
========================================================================

** ELF Header Information

    File Name: .\Objects\LCDs_Profiler.axf

    Machine class: ELFCLASS32 (32-bit)
    Data encoding: ELFDATA2LSB (Little endian)
    Header version: EV_CURRENT (Current version)
    Operating System ABI: none
    ABI Version: 0
    File Type: ET_EXEC (Executable) (2)
    Machine: EM_ARM (ARM)

    Image Entry point: 0x000000c1
    Flags: EF_ARM_HASENTRY + EF_ARM_ABI_FLOAT_SOFT (0x05000202)

    ARM ELF revision: 5 (ABI version 2)

    Conforms to Soft float procedure-call standard

    Built with
    Component: ARM Compiler 5.06 update 6 (build 750) Tool: armasm [4d35ec]
    Component: ARM Compiler 5.06 update 6 (build 750) Tool: armlink [4d35ed]

    Header size: 52 bytes (0x34)
    Program header entry size: 32 bytes (0x20)
    Section header entry size: 40 bytes (0x28)

    Program header entries: 1
    Section header entries: 16

    Program header offset: 421096 (0x00066ce8)
    Section header offset: 421128 (0x00066d08)

    Section header string table index: 15

========================================================================

** Program header #0 (PT_LOAD) [PF_X + PF_W + PF_R + PF_ARM_ENTRY]
    Size : 34952 bytes (27568 bytes in file)
    Virtual address: 0x00000000 (Alignment 8)


========================================================================

** Section #1 'ER_IROM1' (SHT_PROGBITS) [SHF_ALLOC + SHF_EXECINSTR]
    Size   : 27368 bytes (alignment 4)
    Address: 0x00000000

    $d.realdata
    RESET
    __Vectors
        0x00000000:    20000da0    ...     DCD    536874400
        0x00000004:    000000d5    ....    DCD    213
        0x00000008:    000000e1    ....    DCD    225
        0x0000000c:    000000e3    ....    DCD    227
        0x00000010:    00000000    ....    DCD    0
        0x00000014:    00000000    ....    DCD    0
        0x00000018:    00000000    ....    DCD    0
        0x0000001c:    00000000    ....    DCD    0
        0x00000020:    00000000    ....    DCD    0
        0x00000024:    00000000    ....    DCD    0
        0x00000028:    00000000    ....    DCD    0
        0x0000002c:    000000e5    ....    DCD    229
        0x00000030:    00000000    ....    DCD    0
        0x00000034:    00000000    ....    DCD    0
        0x00000038:    000000e7    ....    DCD    231
        0x0000003c:    000000e9    ....    DCD    233
        0x00000040:    000000eb    ....    DCD    235
        0x00000044:    000000eb    ....    DCD    235
        0x00000048:    000000eb    ....    DCD    235
        0x0000004c:    000000eb    ....    DCD    235
        0x00000050:    000000eb    ....    DCD    235
        0x00000054:    000000eb    ....    DCD    235
        0x00000058:    000000eb    ....    DCD    235
        0x0000005c:    000000eb    ....    DCD    235
        0x00000060:    000000eb    ....    DCD    235
        0x00000064:    000000eb    ....    DCD    235
        0x00000068:    000000eb    ....    DCD    235
        0x0000006c:    000000eb    ....    DCD    235
        0x00000070:    00001705    ....    DCD    5893
        0x00000074:    000000eb    ....    DCD    235
        0x00000078:    000000eb    ....    DCD    235
        0x0000007c:    000000eb    ....    DCD    235
        0x00000080:    000000eb    ....    DCD    235
        0x00000084:    000016f5    ....    DCD    5877
        0x00000088:    000000eb    ....    DCD    235
        0x0000008c:    000000eb    ....    DCD    235
        0x00000090:    000000eb    ....    DCD    235
        0x00000094:    000000eb    ....    DCD    235
        0x00000098:    00000f55    U...    DCD    3925
        0x0000009c:    000000eb    ....    DCD    235
        0x000000a0:    000000eb    ....    DCD    235
        0x000000a4:    000000eb    ....    DCD    235
        0x000000a8:    000000eb    ....    DCD    235
        0x000000ac:    000000eb    ....    DCD    235
        0x000000b0:    000000eb    ....    DCD    235
        0x000000b4:    000000eb    ....    DCD    235
        0x000000b8:    000000eb    ....    DCD    235
        0x000000bc:    000000eb    ....    DCD    235
    $t
    .ARM.Collect$$$$00000000
    .ARM.Collect$$$$00000001
    __Vectors_End
    __main
    _main_stk
        0x000000c0:    4803        .H      LDR      r0,__lit__00000000 ; [0xd0] = 0x20000da0
        0x000000c2:    4685        .F      MOV      sp,r0
    .ARM.Collect$$$$00000004
    _main_scatterload
        0x000000c4:    f000f830    ..0.    BL       __scatterload ; 0x128
    .ARM.Collect$$$$00000008
    .ARM.Collect$$$$0000000A
    .ARM.Collect$$$$0000000B
    __main_after_scatterload
    _main_clock
    _main_cpp_init
    _main_init
        0x000000c8:    4800        .H      LDR      r0,[pc,#0] ; [0xcc] = 0x2b25
        0x000000ca:    4700        .G      BX       r0
    $d
        0x000000cc:    00002b25    %+..    DCD    11045
    .ARM.Collect$$$$00002712
    __lit__00000000
    .ARM.Collect$$$$0000000D
    .ARM.Collect$$$$0000000F
    __rt_final_cpp
    __rt_final_exit
        0x000000d0:    20000da0    ...     DCD    536874400
    $t
    .text
    Reset_Handler
        0x000000d4:    b672        r.      CPSID    i
        0x000000d6:    4806        .H      LDR      r0,[pc,#24] ; [0xf0] = 0x160d
        0x000000d8:    4780        .G      BLX      r0
        0x000000da:    b662        b.      CPSIE    i
        0x000000dc:    4805        .H      LDR      r0,[pc,#20] ; [0xf4] = 0xc1
        0x000000de:    4700        .G      BX       r0
    NMI_Handler
        0x000000e0:    e7fe        ..      B        NMI_Handler ; 0xe0
    HardFault_Handler
        0x000000e2:    e7fe        ..      B        HardFault_Handler ; 0xe2
    SVC_Handler
        0x000000e4:    e7fe        ..      B        SVC_Handler ; 0xe4
    PendSV_Handler
        0x000000e6:    e7fe        ..      B        PendSV_Handler ; 0xe6
    SysTick_Handler
        0x000000e8:    e7fe        ..      B        SysTick_Handler ; 0xe8
    ADC0_IRQHandler
    CMP0_IRQHandler
    DAC0_IRQHandler
    DMA0_IRQHandler
    DMA1_IRQHandler
    DMA2_IRQHandler
    DMA3_IRQHandler
    DefaultISR
    FTFA_IRQHandler
    I2C0_IRQHandler
    I2C1_IRQHandler
    LLWU_IRQHandler
    LPTMR0_IRQHandler
    LVD_LVW_IRQHandler
    MCG_IRQHandler
    PORTA_IRQHandler
    PORTD_IRQHandler
    RTC_IRQHandler
    RTC_Seconds_IRQHandler
    Reserved20_IRQHandler
    Reserved39_IRQHandler
    Reserved45_IRQHandler
    SPI0_IRQHandler
    SPI1_IRQHandler
    TPM1_IRQHandler
    TPM2_IRQHandler
    TSI0_IRQHandler
    UART1_IRQHandler
    UART2_IRQHandler
    USB0_IRQHandler
        0x000000ea:    4803        .H      LDR      r0,[pc,#12] ; [0xf8] = 0xeb
        0x000000ec:    4700        .G      BX       r0
    $d
        0x000000ee:    0000        ..      DCW    0
        0x000000f0:    0000160d    ....    DCD    5645
        0x000000f4:    000000c1    ....    DCD    193
        0x000000f8:    000000eb    ....    DCD    235
    $t
    .text
    __aeabi_uidiv
    __aeabi_uidivmod
        0x000000fc:    b530        0.      PUSH     {r4,r5,lr}
        0x000000fe:    460b        .F      MOV      r3,r1
        0x00000100:    4601        .F      MOV      r1,r0
        0x00000102:    2000        .       MOVS     r0,#0
        0x00000104:    2220         "      MOVS     r2,#0x20
        0x00000106:    2401        .$      MOVS     r4,#1
        0x00000108:    e009        ..      B        0x11e ; __aeabi_uidiv + 34
        0x0000010a:    460d        .F      MOV      r5,r1
        0x0000010c:    40d5        .@      LSRS     r5,r5,r2
        0x0000010e:    429d        .B      CMP      r5,r3
        0x00000110:    d305        ..      BCC      0x11e ; __aeabi_uidiv + 34
        0x00000112:    461d        .F      MOV      r5,r3
        0x00000114:    4095        .@      LSLS     r5,r5,r2
        0x00000116:    1b49        I.      SUBS     r1,r1,r5
        0x00000118:    4625        %F      MOV      r5,r4
        0x0000011a:    4095        .@      LSLS     r5,r5,r2
        0x0000011c:    1940        @.      ADDS     r0,r0,r5
        0x0000011e:    4615        .F      MOV      r5,r2
        0x00000120:    1e52        R.      SUBS     r2,r2,#1
        0x00000122:    2d00        .-      CMP      r5,#0
        0x00000124:    dcf1        ..      BGT      0x10a ; __aeabi_uidiv + 14
        0x00000126:    bd30        0.      POP      {r4,r5,pc}
    .text
    __scatterload
    __scatterload_rt2
        0x00000128:    4c06        .L      LDR      r4,[pc,#24] ; [0x144] = 0x6ac8
        0x0000012a:    2501        .%      MOVS     r5,#1
        0x0000012c:    4e06        .N      LDR      r6,[pc,#24] ; [0x148] = 0x6ae8
        0x0000012e:    e005        ..      B        0x13c ; __scatterload + 20
        0x00000130:    68e3        .h      LDR      r3,[r4,#0xc]
        0x00000132:    cc07        ..      LDM      r4!,{r0-r2}
        0x00000134:    432b        +C      ORRS     r3,r3,r5
        0x00000136:    3c0c        .<      SUBS     r4,r4,#0xc
        0x00000138:    4798        .G      BLX      r3
        0x0000013a:    3410        .4      ADDS     r4,r4,#0x10
        0x0000013c:    42b4        .B      CMP      r4,r6
        0x0000013e:    d3f7        ..      BCC      0x130 ; __scatterload + 8
        0x00000140:    f7ffffc2    ....    BL       __main_after_scatterload ; 0xc8
    $d
        0x00000144:    00006ac8    .j..    DCD    27336
        0x00000148:    00006ae8    .j..    DCD    27368
    $t
    i.Control_RGB_LEDs
    Control_RGB_LEDs
        0x0000014c:    b410        ..      PUSH     {r4}
        0x0000014e:    2401        .$      MOVS     r4,#1
        0x00000150:    04a4        ..      LSLS     r4,r4,#18
        0x00000152:    4b0b        .K      LDR      r3,[pc,#44] ; [0x180] = 0xf80ff040
        0x00000154:    2800        .(      CMP      r0,#0
        0x00000156:    d001        ..      BEQ      0x15c ; Control_RGB_LEDs + 16
        0x00000158:    609c        .`      STR      r4,[r3,#8]
        0x0000015a:    e000        ..      B        0x15e ; Control_RGB_LEDs + 18
        0x0000015c:    605c        \`      STR      r4,[r3,#4]
        0x0000015e:    2001        .       MOVS     r0,#1
        0x00000160:    04c0        ..      LSLS     r0,r0,#19
        0x00000162:    2900        .)      CMP      r1,#0
        0x00000164:    d001        ..      BEQ      0x16a ; Control_RGB_LEDs + 30
        0x00000166:    6098        .`      STR      r0,[r3,#8]
        0x00000168:    e000        ..      B        0x16c ; Control_RGB_LEDs + 32
        0x0000016a:    6058        X`      STR      r0,[r3,#4]
        0x0000016c:    2002        .       MOVS     r0,#2
        0x0000016e:    4905        .I      LDR      r1,[pc,#20] ; [0x184] = 0xf80ff0c0
        0x00000170:    2a00        .*      CMP      r2,#0
        0x00000172:    d002        ..      BEQ      0x17a ; Control_RGB_LEDs + 46
        0x00000174:    6088        .`      STR      r0,[r1,#8]
        0x00000176:    bc10        ..      POP      {r4}
        0x00000178:    4770        pG      BX       lr
        0x0000017a:    6048        H`      STR      r0,[r1,#4]
        0x0000017c:    bc10        ..      POP      {r4}
        0x0000017e:    4770        pG      BX       lr
    $d
        0x00000180:    f80ff040    @...    DCD    4161794112
        0x00000184:    f80ff0c0    ....    DCD    4161794240
    $t
    i.Delay
    Delay
        0x00000188:    4904        .I      LDR      r1,[pc,#16] ; [0x19c] = 0x2710
        0x0000018a:    b081        ..      SUB      sp,sp,#4
        0x0000018c:    4348        HC      MULS     r0,r1,r0
        0x0000018e:    9000        ..      STR      r0,[sp,#0]
        0x00000190:    2800        .(      CMP      r0,#0
        0x00000192:    d001        ..      BEQ      0x198 ; Delay + 16
        0x00000194:    1e40        @.      SUBS     r0,r0,#1
        0x00000196:    e7fa        ..      B        0x18e ; Delay + 6
        0x00000198:    b001        ..      ADD      sp,sp,#4
        0x0000019a:    4770        pG      BX       lr
    $d
        0x0000019c:    00002710    .'..    DCD    10000
    $t
    i.Disable_Profiling
    Disable_Profiling
        0x000001a0:    4901        .I      LDR      r1,[pc,#4] ; [0x1a8] = 0x1ffff000
        0x000001a2:    2000        .       MOVS     r0,#0
        0x000001a4:    7008        .p      STRB     r0,[r1,#0]
        0x000001a6:    4770        pG      BX       lr
    $d
        0x000001a8:    1ffff000    ....    DCD    536866816
    $t
    i.Display_Profile
    Display_Profile
        0x000001ac:    b5f0        ..      PUSH     {r4-r7,lr}
        0x000001ae:    b091        ..      SUB      sp,sp,#0x44
        0x000001b0:    2600        .&      MOVS     r6,#0
        0x000001b2:    4f2f        /O      LDR      r7,[pc,#188] ; [0x270] = 0x1ffff018
        0x000001b4:    9602        ..      STR      r6,[sp,#8]
        0x000001b6:    9603        ..      STR      r6,[sp,#0xc]
        0x000001b8:    7839        9x      LDRB     r1,[r7,#0]
        0x000001ba:    20f0        .       MOVS     r0,#0xf0
        0x000001bc:    f7ffff9e    ....    BL       __aeabi_uidiv ; 0xfc
        0x000001c0:    4a2c        ,J      LDR      r2,[pc,#176] ; [0x274] = 0x1ffff000
        0x000001c2:    68d3        .h      LDR      r3,[r2,#0xc]
        0x000001c4:    4601        .F      MOV      r1,r0
        0x000001c6:    a22c        ,.      ADR      r2,{pc}+0xb2 ; 0x278
        0x000001c8:    a806        ..      ADD      r0,sp,#0x18
        0x000001ca:    f001facd    ....    BL       __0snprintf$6 ; 0x1768
        0x000001ce:    4931        1I      LDR      r1,[pc,#196] ; [0x294] = 0x1ffff0ad
        0x000001d0:    4831        1H      LDR      r0,[pc,#196] ; [0x298] = 0x1ffff0a7
        0x000001d2:    f000fe47    ..G.    BL       LCD_Text_Set_Colors ; 0xe64
        0x000001d6:    a906        ..      ADD      r1,sp,#0x18
        0x000001d8:    a802        ..      ADD      r0,sp,#8
        0x000001da:    f000fdf1    ....    BL       LCD_Text_PrintStr ; 0xdc0
        0x000001de:    492f        /I      LDR      r1,[pc,#188] ; [0x29c] = 0x1ffff0a4
        0x000001e0:    482f        /H      LDR      r0,[pc,#188] ; [0x2a0] = 0x1ffff0aa
        0x000001e2:    f000fe3f    ..?.    BL       LCD_Text_Set_Colors ; 0xe64
        0x000001e6:    482f        /H      LDR      r0,[pc,#188] ; [0x2a4] = 0x5a3c
        0x000001e8:    2401        .$      MOVS     r4,#1
        0x000001ea:    6801        .h      LDR      r1,[r0,#0]
        0x000001ec:    2500        .%      MOVS     r5,#0
        0x000001ee:    2900        .)      CMP      r1,#0
        0x000001f0:    d936        6.      BLS      0x260 ; Display_Profile + 180
        0x000001f2:    482d        -H      LDR      r0,[pc,#180] ; [0x2a8] = 0x1ffff4c8
        0x000001f4:    00a9        ..      LSLS     r1,r5,#2
        0x000001f6:    5847        GX      LDR      r7,[r0,r1]
        0x000001f8:    482c        ,H      LDR      r0,[pc,#176] ; [0x2ac] = 0x1ffff2e0
        0x000001fa:    00be        ..      LSLS     r6,r7,#2
        0x000001fc:    5980        .Y      LDR      r0,[r0,r6]
        0x000001fe:    2800        .(      CMP      r0,#0
        0x00000200:    d029        ).      BEQ      0x256 ; Display_Profile + 170
        0x00000202:    2000        .       MOVS     r0,#0
        0x00000204:    9002        ..      STR      r0,[sp,#8]
        0x00000206:    482a        *H      LDR      r0,[pc,#168] ; [0x2b0] = 0x1ffff019
        0x00000208:    7800        .x      LDRB     r0,[r0,#0]
        0x0000020a:    4360        `C      MULS     r0,r4,r0
        0x0000020c:    9003        ..      STR      r0,[sp,#0xc]
        0x0000020e:    4818        .H      LDR      r0,[pc,#96] ; [0x270] = 0x1ffff018
        0x00000210:    7801        .x      LDRB     r1,[r0,#0]
        0x00000212:    20f0        .       MOVS     r0,#0xf0
        0x00000214:    f7ffff72    ..r.    BL       __aeabi_uidiv ; 0xfc
        0x00000218:    4926        &I      LDR      r1,[pc,#152] ; [0x2b4] = 0x4afc
        0x0000021a:    017a        z.      LSLS     r2,r7,#5
        0x0000021c:    1851        Q.      ADDS     r1,r2,r1
        0x0000021e:    3108        .1      ADDS     r1,r1,#8
        0x00000220:    9100        ..      STR      r1,[sp,#0]
        0x00000222:    4922        "I      LDR      r1,[pc,#136] ; [0x2ac] = 0x1ffff2e0
        0x00000224:    598b        .Y      LDR      r3,[r1,r6]
        0x00000226:    4601        .F      MOV      r1,r0
        0x00000228:    a223        #.      ADR      r2,{pc}+0x90 ; 0x2b8
        0x0000022a:    a806        ..      ADD      r0,sp,#0x18
        0x0000022c:    f001fa9c    ....    BL       __0snprintf$6 ; 0x1768
        0x00000230:    a906        ..      ADD      r1,sp,#0x18
        0x00000232:    a802        ..      ADD      r0,sp,#8
        0x00000234:    f000fdc4    ....    BL       LCD_Text_PrintStr ; 0xdc0
        0x00000238:    481d        .H      LDR      r0,[pc,#116] ; [0x2b0] = 0x1ffff019
        0x0000023a:    1c64        d.      ADDS     r4,r4,#1
        0x0000023c:    7801        .x      LDRB     r1,[r0,#0]
        0x0000023e:    20ff        .       MOVS     r0,#0xff
        0x00000240:    3041        A0      ADDS     r0,r0,#0x41
        0x00000242:    f7ffff5b    ..[.    BL       __aeabi_uidiv ; 0xfc
        0x00000246:    42a0        .B      CMP      r0,r4
        0x00000248:    d805        ..      BHI      0x256 ; Display_Profile + 170
        0x0000024a:    a80e        ..      ADD      r0,sp,#0x38
        0x0000024c:    f000f8b8    ....    BL       LCD_TS_Blocking_Read ; 0x3c0
        0x00000250:    2400        .$      MOVS     r4,#0
        0x00000252:    f000f8ad    ....    BL       LCD_Erase ; 0x3b0
        0x00000256:    4813        .H      LDR      r0,[pc,#76] ; [0x2a4] = 0x5a3c
        0x00000258:    1c6d        m.      ADDS     r5,r5,#1
        0x0000025a:    6800        .h      LDR      r0,[r0,#0]
        0x0000025c:    4285        .B      CMP      r5,r0
        0x0000025e:    d3c8        ..      BCC      0x1f2 ; Display_Profile + 70
        0x00000260:    a80e        ..      ADD      r0,sp,#0x38
        0x00000262:    f000f8ad    ....    BL       LCD_TS_Blocking_Read ; 0x3c0
        0x00000266:    f000f8a3    ....    BL       LCD_Erase ; 0x3b0
        0x0000026a:    b011        ..      ADD      sp,sp,#0x44
        0x0000026c:    bdf0        ..      POP      {r4-r7,pc}
    $d
        0x0000026e:    0000        ..      DCW    0
        0x00000270:    1ffff018    ....    DCD    536866840
        0x00000274:    1ffff000    ....    DCD    536866816
        0x00000278:    756c3425    %4lu    DCD    1970025509
        0x0000027c:    746f5420     Tot    DCD    1953453088
        0x00000280:    53206c61    al S    DCD    1394633825
        0x00000284:    6c706d61    ampl    DCD    1819307361
        0x00000288:    20207365    es      DCD    538997605
        0x0000028c:    20202020            DCD    538976288
        0x00000290:    00002020      ..    DCD    8224
        0x00000294:    1ffff0ad    ....    DCD    536866989
        0x00000298:    1ffff0a7    ....    DCD    536866983
        0x0000029c:    1ffff0a4    ....    DCD    536866980
        0x000002a0:    1ffff0aa    ....    DCD    536866986
        0x000002a4:    00005a3c    <Z..    DCD    23100
        0x000002a8:    1ffff4c8    ....    DCD    536868040
        0x000002ac:    1ffff2e0    ....    DCD    536867552
        0x000002b0:    1ffff019    ....    DCD    536866841
        0x000002b4:    00004afc    .J..    DCD    19196
        0x000002b8:    20753425    %4u     DCD    544551973
        0x000002bc:    00007325    %s..    DCD    29477
    $t
    i.Enable_Profiling
    Enable_Profiling
        0x000002c0:    4901        .I      LDR      r1,[pc,#4] ; [0x2c8] = 0x1ffff000
        0x000002c2:    2001        .       MOVS     r0,#1
        0x000002c4:    7008        .p      STRB     r0,[r1,#0]
        0x000002c6:    4770        pG      BX       lr
    $d
        0x000002c8:    1ffff000    ....    DCD    536866816
    $t
    i.Init_Debug_Signals
    Init_Debug_Signals
        0x000002cc:    481c        .H      LDR      r0,[pc,#112] ; [0x340] = 0x40048000
        0x000002ce:    6b81        .k      LDR      r1,[r0,#0x38]
        0x000002d0:    1502        ..      ASRS     r2,r0,#20
        0x000002d2:    4311        .C      ORRS     r1,r1,r2
        0x000002d4:    6381        .c      STR      r1,[r0,#0x38]
        0x000002d6:    481b        .H      LDR      r0,[pc,#108] ; [0x344] = 0x4004a000
        0x000002d8:    6842        Bh      LDR      r2,[r0,#4]
        0x000002da:    2107        .!      MOVS     r1,#7
        0x000002dc:    0209        ..      LSLS     r1,r1,#8
        0x000002de:    438a        .C      BICS     r2,r2,r1
        0x000002e0:    6042        B`      STR      r2,[r0,#4]
        0x000002e2:    6843        Ch      LDR      r3,[r0,#4]
        0x000002e4:    1582        ..      ASRS     r2,r0,#22
        0x000002e6:    4313        .C      ORRS     r3,r3,r2
        0x000002e8:    6043        C`      STR      r3,[r0,#4]
        0x000002ea:    6883        .h      LDR      r3,[r0,#8]
        0x000002ec:    438b        .C      BICS     r3,r3,r1
        0x000002ee:    6083        .`      STR      r3,[r0,#8]
        0x000002f0:    6883        .h      LDR      r3,[r0,#8]
        0x000002f2:    4313        .C      ORRS     r3,r3,r2
        0x000002f4:    6083        .`      STR      r3,[r0,#8]
        0x000002f6:    68c3        .h      LDR      r3,[r0,#0xc]
        0x000002f8:    438b        .C      BICS     r3,r3,r1
        0x000002fa:    60c3        .`      STR      r3,[r0,#0xc]
        0x000002fc:    68c3        .h      LDR      r3,[r0,#0xc]
        0x000002fe:    4313        .C      ORRS     r3,r3,r2
        0x00000300:    60c3        .`      STR      r3,[r0,#0xc]
        0x00000302:    6a03        .j      LDR      r3,[r0,#0x20]
        0x00000304:    438b        .C      BICS     r3,r3,r1
        0x00000306:    6203        .b      STR      r3,[r0,#0x20]
        0x00000308:    6a03        .j      LDR      r3,[r0,#0x20]
        0x0000030a:    4313        .C      ORRS     r3,r3,r2
        0x0000030c:    6203        .b      STR      r3,[r0,#0x20]
        0x0000030e:    6a43        Cj      LDR      r3,[r0,#0x24]
        0x00000310:    438b        .C      BICS     r3,r3,r1
        0x00000312:    6243        Cb      STR      r3,[r0,#0x24]
        0x00000314:    6a43        Cj      LDR      r3,[r0,#0x24]
        0x00000316:    4313        .C      ORRS     r3,r3,r2
        0x00000318:    6243        Cb      STR      r3,[r0,#0x24]
        0x0000031a:    6a83        .j      LDR      r3,[r0,#0x28]
        0x0000031c:    438b        .C      BICS     r3,r3,r1
        0x0000031e:    6283        .b      STR      r3,[r0,#0x28]
        0x00000320:    6a83        .j      LDR      r3,[r0,#0x28]
        0x00000322:    4313        .C      ORRS     r3,r3,r2
        0x00000324:    6283        .b      STR      r3,[r0,#0x28]
        0x00000326:    6ac3        .j      LDR      r3,[r0,#0x2c]
        0x00000328:    438b        .C      BICS     r3,r3,r1
        0x0000032a:    62c3        .b      STR      r3,[r0,#0x2c]
        0x0000032c:    6ac1        .j      LDR      r1,[r0,#0x2c]
        0x0000032e:    4311        .C      ORRS     r1,r1,r2
        0x00000330:    62c1        .b      STR      r1,[r0,#0x2c]
        0x00000332:    4805        .H      LDR      r0,[pc,#20] ; [0x348] = 0xf80ff040
        0x00000334:    6942        Bi      LDR      r2,[r0,#0x14]
        0x00000336:    4905        .I      LDR      r1,[pc,#20] ; [0x34c] = 0xf0e
        0x00000338:    430a        .C      ORRS     r2,r2,r1
        0x0000033a:    6142        Ba      STR      r2,[r0,#0x14]
        0x0000033c:    6081        .`      STR      r1,[r0,#8]
        0x0000033e:    4770        pG      BX       lr
    $d
        0x00000340:    40048000    ...@    DCD    1074036736
        0x00000344:    4004a000    ...@    DCD    1074044928
        0x00000348:    f80ff040    @...    DCD    4161794112
        0x0000034c:    00000f0e    ....    DCD    3854
    $t
    i.Init_Profiling
    Init_Profiling
        0x00000350:    b510        ..      PUSH     {r4,lr}
        0x00000352:    4913        .I      LDR      r1,[pc,#76] ; [0x3a0] = 0x1ffff000
        0x00000354:    2000        .       MOVS     r0,#0
        0x00000356:    60c8        .`      STR      r0,[r1,#0xc]
        0x00000358:    6088        .`      STR      r0,[r1,#8]
        0x0000035a:    6048        H`      STR      r0,[r1,#4]
        0x0000035c:    4c11        .L      LDR      r4,[pc,#68] ; [0x3a4] = 0x5a3c
        0x0000035e:    6821        !h      LDR      r1,[r4,#0]
        0x00000360:    2900        .)      CMP      r1,#0
        0x00000362:    d010        ..      BEQ      0x386 ; Init_Profiling + 54
        0x00000364:    7821        !x      LDRB     r1,[r4,#0]
        0x00000366:    4a10        .J      LDR      r2,[pc,#64] ; [0x3a8] = 0x1ffff2e0
        0x00000368:    07c9        ..      LSLS     r1,r1,#31
        0x0000036a:    0fc9        ..      LSRS     r1,r1,#31
        0x0000036c:    d000        ..      BEQ      0x370 ; Init_Profiling + 32
        0x0000036e:    6010        .`      STR      r0,[r2,#0]
        0x00000370:    6823        #h      LDR      r3,[r4,#0]
        0x00000372:    4299        .B      CMP      r1,r3
        0x00000374:    d207        ..      BCS      0x386 ; Init_Profiling + 54
        0x00000376:    008b        ..      LSLS     r3,r1,#2
        0x00000378:    50d0        .P      STR      r0,[r2,r3]
        0x0000037a:    189b        ..      ADDS     r3,r3,r2
        0x0000037c:    6058        X`      STR      r0,[r3,#4]
        0x0000037e:    6823        #h      LDR      r3,[r4,#0]
        0x00000380:    1c89        ..      ADDS     r1,r1,#2
        0x00000382:    4299        .B      CMP      r1,r3
        0x00000384:    d3f7        ..      BCC      0x376 ; Init_Profiling + 38
        0x00000386:    4809        .H      LDR      r0,[pc,#36] ; [0x3ac] = 0x1ffff0bc
        0x00000388:    217d        }!      MOVS     r1,#0x7d
        0x0000038a:    0109        ..      LSLS     r1,r1,#4
        0x0000038c:    6800        .h      LDR      r0,[r0,#0]
        0x0000038e:    f7fffeb5    ....    BL       __aeabi_uidiv ; 0xfc
        0x00000392:    1e40        @.      SUBS     r0,r0,#1
        0x00000394:    f000fdfa    ....    BL       PIT_Init ; 0xf8c
        0x00000398:    f000f82a    ..*.    BL       PIT_Start ; 0x3f0
        0x0000039c:    bd10        ..      POP      {r4,pc}
    $d
        0x0000039e:    0000        ..      DCW    0
        0x000003a0:    1ffff000    ....    DCD    536866816
        0x000003a4:    00005a3c    <Z..    DCD    23100
        0x000003a8:    1ffff2e0    ....    DCD    536867552
        0x000003ac:    1ffff0bc    ....    DCD    536867004
    $t
    i.LCD_Erase
    LCD_Erase
        0x000003b0:    b510        ..      PUSH     {r4,lr}
        0x000003b2:    4802        .H      LDR      r0,[pc,#8] ; [0x3bc] = 0x1ffff01d
        0x000003b4:    f000f89a    ....    BL       LCD_Fill_Buffer ; 0x4ec
        0x000003b8:    bd10        ..      POP      {r4,pc}
    $d
        0x000003ba:    0000        ..      DCW    0
        0x000003bc:    1ffff01d    ....    DCD    536866845
    $t
    i.LCD_TS_Blocking_Read
    LCD_TS_Blocking_Read
        0x000003c0:    b510        ..      PUSH     {r4,lr}
        0x000003c2:    b082        ..      SUB      sp,sp,#8
        0x000003c4:    4604        .F      MOV      r4,r0
        0x000003c6:    4668        hF      MOV      r0,sp
        0x000003c8:    f000fb3a    ..:.    BL       LCD_TS_Read ; 0xa40
        0x000003cc:    2800        .(      CMP      r0,#0
        0x000003ce:    d0fa        ..      BEQ      0x3c6 ; LCD_TS_Blocking_Read + 6
        0x000003d0:    4668        hF      MOV      r0,sp
        0x000003d2:    f000fb35    ..5.    BL       LCD_TS_Read ; 0xa40
        0x000003d6:    2801        .(      CMP      r0,#1
        0x000003d8:    d108        ..      BNE      0x3ec ; LCD_TS_Blocking_Read + 44
        0x000003da:    9800        ..      LDR      r0,[sp,#0]
        0x000003dc:    6020         `      STR      r0,[r4,#0]
        0x000003de:    9801        ..      LDR      r0,[sp,#4]
        0x000003e0:    6060        ``      STR      r0,[r4,#4]
        0x000003e2:    4668        hF      MOV      r0,sp
        0x000003e4:    f000fb2c    ..,.    BL       LCD_TS_Read ; 0xa40
        0x000003e8:    2801        .(      CMP      r0,#1
        0x000003ea:    d0f6        ..      BEQ      0x3da ; LCD_TS_Blocking_Read + 26
        0x000003ec:    b002        ..      ADD      sp,sp,#8
        0x000003ee:    bd10        ..      POP      {r4,pc}
    i.PIT_Start
    PIT_Start
        0x000003f0:    4802        .H      LDR      r0,[pc,#8] ; [0x3fc] = 0x40037100
        0x000003f2:    6881        .h      LDR      r1,[r0,#8]
        0x000003f4:    2201        ."      MOVS     r2,#1
        0x000003f6:    4311        .C      ORRS     r1,r1,r2
        0x000003f8:    6081        .`      STR      r1,[r0,#8]
        0x000003fa:    4770        pG      BX       lr
    $d
        0x000003fc:    40037100    .q.@    DCD    1073967360
    .ARM.__at_0x400
        0x00000400:    ffffffff    ....    DCD    4294967295
        0x00000404:    ffffffff    ....    DCD    4294967295
        0x00000408:    ffffffff    ....    DCD    4294967295
        0x0000040c:    fffffffe    ....    DCD    4294967294
    $t
    i.Init_RGB_LEDs
    Init_RGB_LEDs
        0x00000410:    4814        .H      LDR      r0,[pc,#80] ; [0x464] = 0x40048000
        0x00000412:    6b81        .k      LDR      r1,[r0,#0x38]
        0x00000414:    2205        ."      MOVS     r2,#5
        0x00000416:    0292        ..      LSLS     r2,r2,#10
        0x00000418:    4311        .C      ORRS     r1,r1,r2
        0x0000041a:    6381        .c      STR      r1,[r0,#0x38]
        0x0000041c:    4812        .H      LDR      r0,[pc,#72] ; [0x468] = 0x4004a040
        0x0000041e:    6882        .h      LDR      r2,[r0,#8]
        0x00000420:    2107        .!      MOVS     r1,#7
        0x00000422:    0209        ..      LSLS     r1,r1,#8
        0x00000424:    438a        .C      BICS     r2,r2,r1
        0x00000426:    6082        .`      STR      r2,[r0,#8]
        0x00000428:    6883        .h      LDR      r3,[r0,#8]
        0x0000042a:    1582        ..      ASRS     r2,r0,#22
        0x0000042c:    4313        .C      ORRS     r3,r3,r2
        0x0000042e:    6083        .`      STR      r3,[r0,#8]
        0x00000430:    68c3        .h      LDR      r3,[r0,#0xc]
        0x00000432:    438b        .C      BICS     r3,r3,r1
        0x00000434:    60c3        .`      STR      r3,[r0,#0xc]
        0x00000436:    68c3        .h      LDR      r3,[r0,#0xc]
        0x00000438:    4313        .C      ORRS     r3,r3,r2
        0x0000043a:    60c3        .`      STR      r3,[r0,#0xc]
        0x0000043c:    480b        .H      LDR      r0,[pc,#44] ; [0x46c] = 0x4004c000
        0x0000043e:    6843        Ch      LDR      r3,[r0,#4]
        0x00000440:    438b        .C      BICS     r3,r3,r1
        0x00000442:    6043        C`      STR      r3,[r0,#4]
        0x00000444:    6841        Ah      LDR      r1,[r0,#4]
        0x00000446:    4311        .C      ORRS     r1,r1,r2
        0x00000448:    6041        A`      STR      r1,[r0,#4]
        0x0000044a:    4809        .H      LDR      r0,[pc,#36] ; [0x470] = 0xf80ff040
        0x0000044c:    6941        Ai      LDR      r1,[r0,#0x14]
        0x0000044e:    2203        ."      MOVS     r2,#3
        0x00000450:    0492        ..      LSLS     r2,r2,#18
        0x00000452:    4311        .C      ORRS     r1,r1,r2
        0x00000454:    6141        Aa      STR      r1,[r0,#0x14]
        0x00000456:    4807        .H      LDR      r0,[pc,#28] ; [0x474] = 0xf80ff0c0
        0x00000458:    6941        Ai      LDR      r1,[r0,#0x14]
        0x0000045a:    2202        ."      MOVS     r2,#2
        0x0000045c:    4311        .C      ORRS     r1,r1,r2
        0x0000045e:    6141        Aa      STR      r1,[r0,#0x14]
        0x00000460:    4770        pG      BX       lr
    $d
        0x00000462:    0000        ..      DCW    0
        0x00000464:    40048000    ...@    DCD    1074036736
        0x00000468:    4004a040    @..@    DCD    1074044992
        0x0000046c:    4004c000    ...@    DCD    1074053120
        0x00000470:    f80ff040    @...    DCD    4161794112
        0x00000474:    f80ff0c0    ....    DCD    4161794240
    $t
    i.LCD_Controller_Init
    LCD_Controller_Init
        0x00000478:    b5f8        ..      PUSH     {r3-r7,lr}
        0x0000047a:    4606        .F      MOV      r6,r0
        0x0000047c:    2500        .%      MOVS     r5,#0
        0x0000047e:    2001        .       MOVS     r0,#1
        0x00000480:    4c19        .L      LDR      r4,[pc,#100] ; [0x4e8] = 0xf80ff080
        0x00000482:    0400        ..      LSLS     r0,r0,#16
        0x00000484:    6060        ``      STR      r0,[r4,#4]
        0x00000486:    10c0        ..      ASRS     r0,r0,#3
        0x00000488:    60a0        .`      STR      r0,[r4,#8]
        0x0000048a:    0107        ..      LSLS     r7,r0,#4
        0x0000048c:    60a7        .`      STR      r7,[r4,#8]
        0x0000048e:    2064        d       MOVS     r0,#0x64
        0x00000490:    f7fffe7a    ..z.    BL       Delay ; 0x188
        0x00000494:    6067        g`      STR      r7,[r4,#4]
        0x00000496:    2064        d       MOVS     r0,#0x64
        0x00000498:    f7fffe76    ..v.    BL       Delay ; 0x188
        0x0000049c:    1178        x.      ASRS     r0,r7,#5
        0x0000049e:    6060        ``      STR      r0,[r4,#4]
        0x000004a0:    0041        A.      LSLS     r1,r0,#1
        0x000004a2:    22ff        ."      MOVS     r2,#0xff
        0x000004a4:    00d2        ..      LSLS     r2,r2,#3
        0x000004a6:    006b        k.      LSLS     r3,r5,#1
        0x000004a8:    5cf7        .\      LDRB     r7,[r6,r3]
        0x000004aa:    2f00        ./      CMP      r7,#0
        0x000004ac:    d018        ..      BEQ      0x4e0 ; LCD_Controller_Init + 104
        0x000004ae:    2f01        ./      CMP      r7,#1
        0x000004b0:    d002        ..      BEQ      0x4b8 ; LCD_Controller_Init + 64
        0x000004b2:    2f02        ./      CMP      r7,#2
        0x000004b4:    d112        ..      BNE      0x4dc ; LCD_Controller_Init + 100
        0x000004b6:    e00a        ..      B        0x4ce ; LCD_Controller_Init + 86
        0x000004b8:    199b        ..      ADDS     r3,r3,r6
        0x000004ba:    785b        [x      LDRB     r3,[r3,#1]
        0x000004bc:    60a0        .`      STR      r0,[r4,#8]
        0x000004be:    60a2        .`      STR      r2,[r4,#8]
        0x000004c0:    00db        ..      LSLS     r3,r3,#3
        0x000004c2:    6063        c`      STR      r3,[r4,#4]
        0x000004c4:    60a1        .`      STR      r1,[r4,#8]
        0x000004c6:    6061        a`      STR      r1,[r4,#4]
        0x000004c8:    6060        ``      STR      r0,[r4,#4]
        0x000004ca:    1c6d        m.      ADDS     r5,r5,#1
        0x000004cc:    e7eb        ..      B        0x4a6 ; LCD_Controller_Init + 46
        0x000004ce:    199b        ..      ADDS     r3,r3,r6
        0x000004d0:    785b        [x      LDRB     r3,[r3,#1]
        0x000004d2:    60a2        .`      STR      r2,[r4,#8]
        0x000004d4:    00db        ..      LSLS     r3,r3,#3
        0x000004d6:    6063        c`      STR      r3,[r4,#4]
        0x000004d8:    60a1        .`      STR      r1,[r4,#8]
        0x000004da:    6061        a`      STR      r1,[r4,#4]
        0x000004dc:    1c6d        m.      ADDS     r5,r5,#1
        0x000004de:    e7e2        ..      B        0x4a6 ; LCD_Controller_Init + 46
        0x000004e0:    200a        .       MOVS     r0,#0xa
        0x000004e2:    f7fffe51    ..Q.    BL       Delay ; 0x188
        0x000004e6:    bdf8        ..      POP      {r3-r7,pc}
    $d
        0x000004e8:    f80ff080    ....    DCD    4161794176
    $t
    i.LCD_Fill_Buffer
    LCD_Fill_Buffer
        0x000004ec:    b4f0        ..      PUSH     {r4-r7}
        0x000004ee:    2501        .%      MOVS     r5,#1
        0x000004f0:    4f32        2O      LDR      r7,[pc,#200] ; [0x5bc] = 0xf80ff080
        0x000004f2:    032d        -.      LSLS     r5,r5,#12
        0x000004f4:    60bd        .`      STR      r5,[r7,#8]
        0x000004f6:    22ff        ."      MOVS     r2,#0xff
        0x000004f8:    00d2        ..      LSLS     r2,r2,#3
        0x000004fa:    60ba        .`      STR      r2,[r7,#8]
        0x000004fc:    21ff        .!      MOVS     r1,#0xff
        0x000004fe:    3151        Q1      ADDS     r1,r1,#0x51
        0x00000500:    6079        y`      STR      r1,[r7,#4]
        0x00000502:    0069        i.      LSLS     r1,r5,#1
        0x00000504:    60b9        .`      STR      r1,[r7,#8]
        0x00000506:    6079        y`      STR      r1,[r7,#4]
        0x00000508:    607d        }`      STR      r5,[r7,#4]
        0x0000050a:    60ba        .`      STR      r2,[r7,#8]
        0x0000050c:    2300        .#      MOVS     r3,#0
        0x0000050e:    607b        {`      STR      r3,[r7,#4]
        0x00000510:    60b9        .`      STR      r1,[r7,#8]
        0x00000512:    6079        y`      STR      r1,[r7,#4]
        0x00000514:    60ba        .`      STR      r2,[r7,#8]
        0x00000516:    607b        {`      STR      r3,[r7,#4]
        0x00000518:    60b9        .`      STR      r1,[r7,#8]
        0x0000051a:    6079        y`      STR      r1,[r7,#4]
        0x0000051c:    60ba        .`      STR      r2,[r7,#8]
        0x0000051e:    607b        {`      STR      r3,[r7,#4]
        0x00000520:    60b9        .`      STR      r1,[r7,#8]
        0x00000522:    6079        y`      STR      r1,[r7,#4]
        0x00000524:    60ba        .`      STR      r2,[r7,#8]
        0x00000526:    24ef        .$      MOVS     r4,#0xef
        0x00000528:    00e4        ..      LSLS     r4,r4,#3
        0x0000052a:    607c        |`      STR      r4,[r7,#4]
        0x0000052c:    60b9        .`      STR      r1,[r7,#8]
        0x0000052e:    6079        y`      STR      r1,[r7,#4]
        0x00000530:    60bd        .`      STR      r5,[r7,#8]
        0x00000532:    60ba        .`      STR      r2,[r7,#8]
        0x00000534:    24ff        .$      MOVS     r4,#0xff
        0x00000536:    3459        Y4      ADDS     r4,r4,#0x59
        0x00000538:    607c        |`      STR      r4,[r7,#4]
        0x0000053a:    60b9        .`      STR      r1,[r7,#8]
        0x0000053c:    6079        y`      STR      r1,[r7,#4]
        0x0000053e:    607d        }`      STR      r5,[r7,#4]
        0x00000540:    60ba        .`      STR      r2,[r7,#8]
        0x00000542:    607b        {`      STR      r3,[r7,#4]
        0x00000544:    60b9        .`      STR      r1,[r7,#8]
        0x00000546:    6079        y`      STR      r1,[r7,#4]
        0x00000548:    60ba        .`      STR      r2,[r7,#8]
        0x0000054a:    607b        {`      STR      r3,[r7,#4]
        0x0000054c:    60b9        .`      STR      r1,[r7,#8]
        0x0000054e:    6079        y`      STR      r1,[r7,#4]
        0x00000550:    60ba        .`      STR      r2,[r7,#8]
        0x00000552:    2308        .#      MOVS     r3,#8
        0x00000554:    607b        {`      STR      r3,[r7,#4]
        0x00000556:    60b9        .`      STR      r1,[r7,#8]
        0x00000558:    6079        y`      STR      r1,[r7,#4]
        0x0000055a:    60ba        .`      STR      r2,[r7,#8]
        0x0000055c:    23ff        .#      MOVS     r3,#0xff
        0x0000055e:    33f9        .3      ADDS     r3,r3,#0xf9
        0x00000560:    607b        {`      STR      r3,[r7,#4]
        0x00000562:    60b9        .`      STR      r1,[r7,#8]
        0x00000564:    6079        y`      STR      r1,[r7,#4]
        0x00000566:    7803        .x      LDRB     r3,[r0,#0]
        0x00000568:    08dc        ..      LSRS     r4,r3,#3
        0x0000056a:    7843        Cx      LDRB     r3,[r0,#1]
        0x0000056c:    00e4        ..      LSLS     r4,r4,#3
        0x0000056e:    095e        ^.      LSRS     r6,r3,#5
        0x00000570:    4334        4C      ORRS     r4,r4,r6
        0x00000572:    261c        .&      MOVS     r6,#0x1c
        0x00000574:    4033        3@      ANDS     r3,r3,r6
        0x00000576:    7880        .x      LDRB     r0,[r0,#2]
        0x00000578:    00db        ..      LSLS     r3,r3,#3
        0x0000057a:    08c0        ..      LSRS     r0,r0,#3
        0x0000057c:    4303        .C      ORRS     r3,r3,r0
        0x0000057e:    60bd        .`      STR      r5,[r7,#8]
        0x00000580:    60ba        .`      STR      r2,[r7,#8]
        0x00000582:    20ff        .       MOVS     r0,#0xff
        0x00000584:    3061        a0      ADDS     r0,r0,#0x61
        0x00000586:    6078        x`      STR      r0,[r7,#4]
        0x00000588:    60b9        .`      STR      r1,[r7,#8]
        0x0000058a:    6079        y`      STR      r1,[r7,#4]
        0x0000058c:    607d        }`      STR      r5,[r7,#4]
        0x0000058e:    2600        .&      MOVS     r6,#0
        0x00000590:    00e5        ..      LSLS     r5,r4,#3
        0x00000592:    00dc        ..      LSLS     r4,r3,#3
        0x00000594:    2300        .#      MOVS     r3,#0
        0x00000596:    4638        8F      MOV      r0,r7
        0x00000598:    6082        .`      STR      r2,[r0,#8]
        0x0000059a:    6045        E`      STR      r5,[r0,#4]
        0x0000059c:    6081        .`      STR      r1,[r0,#8]
        0x0000059e:    6041        A`      STR      r1,[r0,#4]
        0x000005a0:    6082        .`      STR      r2,[r0,#8]
        0x000005a2:    6044        D`      STR      r4,[r0,#4]
        0x000005a4:    6081        .`      STR      r1,[r0,#8]
        0x000005a6:    6041        A`      STR      r1,[r0,#4]
        0x000005a8:    1c5b        [.      ADDS     r3,r3,#1
        0x000005aa:    2bf0        .+      CMP      r3,#0xf0
        0x000005ac:    d3f4        ..      BCC      0x598 ; LCD_Fill_Buffer + 172
        0x000005ae:    20ff        .       MOVS     r0,#0xff
        0x000005b0:    3041        A0      ADDS     r0,r0,#0x41
        0x000005b2:    1c76        v.      ADDS     r6,r6,#1
        0x000005b4:    4286        .B      CMP      r6,r0
        0x000005b6:    d3ed        ..      BCC      0x594 ; LCD_Fill_Buffer + 168
        0x000005b8:    bcf0        ..      POP      {r4-r7}
        0x000005ba:    4770        pG      BX       lr
    $d
        0x000005bc:    f80ff080    ....    DCD    4161794176
    $t
    i.LCD_GPIO_Init
    LCD_GPIO_Init
        0x000005c0:    b430        0.      PUSH     {r4,r5}
        0x000005c2:    4848        HH      LDR      r0,[pc,#288] ; [0x6e4] = 0x40048000
        0x000005c4:    6b81        .k      LDR      r1,[r0,#0x38]
        0x000005c6:    2205        ."      MOVS     r2,#5
        0x000005c8:    02d2        ..      LSLS     r2,r2,#11
        0x000005ca:    4311        .C      ORRS     r1,r1,r2
        0x000005cc:    6381        .c      STR      r1,[r0,#0x38]
        0x000005ce:    4846        FH      LDR      r0,[pc,#280] ; [0x6e8] = 0x4004b000
        0x000005d0:    68c1        .h      LDR      r1,[r0,#0xc]
        0x000005d2:    2307        .#      MOVS     r3,#7
        0x000005d4:    021b        ..      LSLS     r3,r3,#8
        0x000005d6:    4399        .C      BICS     r1,r1,r3
        0x000005d8:    60c1        .`      STR      r1,[r0,#0xc]
        0x000005da:    68c1        .h      LDR      r1,[r0,#0xc]
        0x000005dc:    1582        ..      ASRS     r2,r0,#22
        0x000005de:    4311        .C      ORRS     r1,r1,r2
        0x000005e0:    60c1        .`      STR      r1,[r0,#0xc]
        0x000005e2:    4942        BI      LDR      r1,[pc,#264] ; [0x6ec] = 0xf80ff080
        0x000005e4:    694c        Li      LDR      r4,[r1,#0x14]
        0x000005e6:    2508        .%      MOVS     r5,#8
        0x000005e8:    432c        ,C      ORRS     r4,r4,r5
        0x000005ea:    614c        La      STR      r4,[r1,#0x14]
        0x000005ec:    6904        .i      LDR      r4,[r0,#0x10]
        0x000005ee:    439c        .C      BICS     r4,r4,r3
        0x000005f0:    6104        .a      STR      r4,[r0,#0x10]
        0x000005f2:    6904        .i      LDR      r4,[r0,#0x10]
        0x000005f4:    4314        .C      ORRS     r4,r4,r2
        0x000005f6:    6104        .a      STR      r4,[r0,#0x10]
        0x000005f8:    694c        Li      LDR      r4,[r1,#0x14]
        0x000005fa:    2510        .%      MOVS     r5,#0x10
        0x000005fc:    432c        ,C      ORRS     r4,r4,r5
        0x000005fe:    614c        La      STR      r4,[r1,#0x14]
        0x00000600:    6944        Di      LDR      r4,[r0,#0x14]
        0x00000602:    439c        .C      BICS     r4,r4,r3
        0x00000604:    6144        Da      STR      r4,[r0,#0x14]
        0x00000606:    6944        Di      LDR      r4,[r0,#0x14]
        0x00000608:    4314        .C      ORRS     r4,r4,r2
        0x0000060a:    6144        Da      STR      r4,[r0,#0x14]
        0x0000060c:    694c        Li      LDR      r4,[r1,#0x14]
        0x0000060e:    2520         %      MOVS     r5,#0x20
        0x00000610:    432c        ,C      ORRS     r4,r4,r5
        0x00000612:    614c        La      STR      r4,[r1,#0x14]
        0x00000614:    6984        .i      LDR      r4,[r0,#0x18]
        0x00000616:    439c        .C      BICS     r4,r4,r3
        0x00000618:    6184        .a      STR      r4,[r0,#0x18]
        0x0000061a:    6984        .i      LDR      r4,[r0,#0x18]
        0x0000061c:    4314        .C      ORRS     r4,r4,r2
        0x0000061e:    6184        .a      STR      r4,[r0,#0x18]
        0x00000620:    694c        Li      LDR      r4,[r1,#0x14]
        0x00000622:    2540        @%      MOVS     r5,#0x40
        0x00000624:    432c        ,C      ORRS     r4,r4,r5
        0x00000626:    614c        La      STR      r4,[r1,#0x14]
        0x00000628:    69c4        .i      LDR      r4,[r0,#0x1c]
        0x0000062a:    439c        .C      BICS     r4,r4,r3
        0x0000062c:    61c4        .a      STR      r4,[r0,#0x1c]
        0x0000062e:    69c4        .i      LDR      r4,[r0,#0x1c]
        0x00000630:    4314        .C      ORRS     r4,r4,r2
        0x00000632:    61c4        .a      STR      r4,[r0,#0x1c]
        0x00000634:    694c        Li      LDR      r4,[r1,#0x14]
        0x00000636:    2580        .%      MOVS     r5,#0x80
        0x00000638:    432c        ,C      ORRS     r4,r4,r5
        0x0000063a:    614c        La      STR      r4,[r1,#0x14]
        0x0000063c:    6a04        .j      LDR      r4,[r0,#0x20]
        0x0000063e:    439c        .C      BICS     r4,r4,r3
        0x00000640:    6204        .b      STR      r4,[r0,#0x20]
        0x00000642:    6a04        .j      LDR      r4,[r0,#0x20]
        0x00000644:    4314        .C      ORRS     r4,r4,r2
        0x00000646:    6204        .b      STR      r4,[r0,#0x20]
        0x00000648:    694c        Li      LDR      r4,[r1,#0x14]
        0x0000064a:    4314        .C      ORRS     r4,r4,r2
        0x0000064c:    614c        La      STR      r4,[r1,#0x14]
        0x0000064e:    6a44        Dj      LDR      r4,[r0,#0x24]
        0x00000650:    439c        .C      BICS     r4,r4,r3
        0x00000652:    6244        Db      STR      r4,[r0,#0x24]
        0x00000654:    6a44        Dj      LDR      r4,[r0,#0x24]
        0x00000656:    4314        .C      ORRS     r4,r4,r2
        0x00000658:    6244        Db      STR      r4,[r0,#0x24]
        0x0000065a:    694c        Li      LDR      r4,[r1,#0x14]
        0x0000065c:    1545        E.      ASRS     r5,r0,#21
        0x0000065e:    432c        ,C      ORRS     r4,r4,r5
        0x00000660:    614c        La      STR      r4,[r1,#0x14]
        0x00000662:    6a84        .j      LDR      r4,[r0,#0x28]
        0x00000664:    439c        .C      BICS     r4,r4,r3
        0x00000666:    6284        .b      STR      r4,[r0,#0x28]
        0x00000668:    6a84        .j      LDR      r4,[r0,#0x28]
        0x0000066a:    4314        .C      ORRS     r4,r4,r2
        0x0000066c:    6284        .b      STR      r4,[r0,#0x28]
        0x0000066e:    694c        Li      LDR      r4,[r1,#0x14]
        0x00000670:    1505        ..      ASRS     r5,r0,#20
        0x00000672:    432c        ,C      ORRS     r4,r4,r5
        0x00000674:    614c        La      STR      r4,[r1,#0x14]
        0x00000676:    6b04        .k      LDR      r4,[r0,#0x30]
        0x00000678:    439c        .C      BICS     r4,r4,r3
        0x0000067a:    6304        .c      STR      r4,[r0,#0x30]
        0x0000067c:    6b04        .k      LDR      r4,[r0,#0x30]
        0x0000067e:    4314        .C      ORRS     r4,r4,r2
        0x00000680:    6304        .c      STR      r4,[r0,#0x30]
        0x00000682:    6b44        Dk      LDR      r4,[r0,#0x34]
        0x00000684:    439c        .C      BICS     r4,r4,r3
        0x00000686:    6344        Dc      STR      r4,[r0,#0x34]
        0x00000688:    6b44        Dk      LDR      r4,[r0,#0x34]
        0x0000068a:    4314        .C      ORRS     r4,r4,r2
        0x0000068c:    6344        Dc      STR      r4,[r0,#0x34]
        0x0000068e:    4818        .H      LDR      r0,[pc,#96] ; [0x6f0] = 0x4004b040
        0x00000690:    6804        .h      LDR      r4,[r0,#0]
        0x00000692:    439c        .C      BICS     r4,r4,r3
        0x00000694:    6004        .`      STR      r4,[r0,#0]
        0x00000696:    6804        .h      LDR      r4,[r0,#0]
        0x00000698:    4314        .C      ORRS     r4,r4,r2
        0x0000069a:    6004        .`      STR      r4,[r0,#0]
        0x0000069c:    6844        Dh      LDR      r4,[r0,#4]
        0x0000069e:    439c        .C      BICS     r4,r4,r3
        0x000006a0:    6044        D`      STR      r4,[r0,#4]
        0x000006a2:    6843        Ch      LDR      r3,[r0,#4]
        0x000006a4:    4313        .C      ORRS     r3,r3,r2
        0x000006a6:    6043        C`      STR      r3,[r0,#4]
        0x000006a8:    694a        Ji      LDR      r2,[r1,#0x14]
        0x000006aa:    00a8        ..      LSLS     r0,r5,#2
        0x000006ac:    4302        .C      ORRS     r2,r2,r0
        0x000006ae:    614a        Ja      STR      r2,[r1,#0x14]
        0x000006b0:    694b        Ki      LDR      r3,[r1,#0x14]
        0x000006b2:    0042        B.      LSLS     r2,r0,#1
        0x000006b4:    4313        .C      ORRS     r3,r3,r2
        0x000006b6:    614b        Ka      STR      r3,[r1,#0x14]
        0x000006b8:    694c        Li      LDR      r4,[r1,#0x14]
        0x000006ba:    0103        ..      LSLS     r3,r0,#4
        0x000006bc:    431c        .C      ORRS     r4,r4,r3
        0x000006be:    614c        La      STR      r4,[r1,#0x14]
        0x000006c0:    694d        Mi      LDR      r5,[r1,#0x14]
        0x000006c2:    0144        D.      LSLS     r4,r0,#5
        0x000006c4:    4325        %C      ORRS     r5,r5,r4
        0x000006c6:    614d        Ma      STR      r5,[r1,#0x14]
        0x000006c8:    680d        .h      LDR      r5,[r1,#0]
        0x000006ca:    4305        .C      ORRS     r5,r5,r0
        0x000006cc:    600d        .`      STR      r5,[r1,#0]
        0x000006ce:    6808        .h      LDR      r0,[r1,#0]
        0x000006d0:    4310        .C      ORRS     r0,r0,r2
        0x000006d2:    6008        .`      STR      r0,[r1,#0]
        0x000006d4:    6808        .h      LDR      r0,[r1,#0]
        0x000006d6:    4318        .C      ORRS     r0,r0,r3
        0x000006d8:    6008        .`      STR      r0,[r1,#0]
        0x000006da:    6808        .h      LDR      r0,[r1,#0]
        0x000006dc:    4320         C      ORRS     r0,r0,r4
        0x000006de:    6008        .`      STR      r0,[r1,#0]
        0x000006e0:    bc30        0.      POP      {r4,r5}
        0x000006e2:    4770        pG      BX       lr
    $d
        0x000006e4:    40048000    ...@    DCD    1074036736
        0x000006e8:    4004b000    ...@    DCD    1074049024
        0x000006ec:    f80ff080    ....    DCD    4161794176
        0x000006f0:    4004b040    @..@    DCD    1074049088
    $t
    i.LCD_Init
    LCD_Init
        0x000006f4:    b510        ..      PUSH     {r4,lr}
        0x000006f6:    f7ffff63    ..c.    BL       LCD_GPIO_Init ; 0x5c0
        0x000006fa:    f000f991    ....    BL       LCD_TS_Init ; 0xa20
        0x000006fe:    4811        .H      LDR      r0,[pc,#68] ; [0x744] = 0x40048000
        0x00000700:    6b81        .k      LDR      r1,[r0,#0x38]
        0x00000702:    1542        B.      ASRS     r2,r0,#21
        0x00000704:    4311        .C      ORRS     r1,r1,r2
        0x00000706:    6381        .c      STR      r1,[r0,#0x38]
        0x00000708:    4810        .H      LDR      r0,[pc,#64] ; [0x74c] = 0x1ffff0bc
        0x0000070a:    490f        .I      LDR      r1,[pc,#60] ; [0x748] = 0x9c40
        0x0000070c:    6800        .h      LDR      r0,[r0,#0]
        0x0000070e:    f7fffcf5    ....    BL       __aeabi_uidiv ; 0xfc
        0x00000712:    4602        .F      MOV      r2,r0
        0x00000714:    2103        .!      MOVS     r1,#3
        0x00000716:    0389        ..      LSLS     r1,r1,#14
        0x00000718:    4348        HC      MULS     r0,r1,r0
        0x0000071a:    0c03        ..      LSRS     r3,r0,#16
        0x0000071c:    b292        ..      UXTH     r2,r2
        0x0000071e:    2100        .!      MOVS     r1,#0
        0x00000720:    480b        .H      LDR      r0,[pc,#44] ; [0x750] = 0x40039000
        0x00000722:    f000fc65    ..e.    BL       PWM_Init ; 0xff0
        0x00000726:    480b        .H      LDR      r0,[pc,#44] ; [0x754] = 0x40049000
        0x00000728:    6b01        .k      LDR      r1,[r0,#0x30]
        0x0000072a:    2207        ."      MOVS     r2,#7
        0x0000072c:    0212        ..      LSLS     r2,r2,#8
        0x0000072e:    4011        .@      ANDS     r1,r1,r2
        0x00000730:    6301        .c      STR      r1,[r0,#0x30]
        0x00000732:    6b01        .k      LDR      r1,[r0,#0x30]
        0x00000734:    2203        ."      MOVS     r2,#3
        0x00000736:    0212        ..      LSLS     r2,r2,#8
        0x00000738:    4311        .C      ORRS     r1,r1,r2
        0x0000073a:    6301        .c      STR      r1,[r0,#0x30]
        0x0000073c:    4806        .H      LDR      r0,[pc,#24] ; [0x758] = 0x6937
        0x0000073e:    f7fffe9b    ....    BL       LCD_Controller_Init ; 0x478
        0x00000742:    bd10        ..      POP      {r4,pc}
    $d
        0x00000744:    40048000    ...@    DCD    1074036736
        0x00000748:    00009c40    @...    DCD    40000
        0x0000074c:    1ffff0bc    ....    DCD    536867004
        0x00000750:    40039000    ...@    DCD    1073975296
        0x00000754:    40049000    ...@    DCD    1074040832
        0x00000758:    00006937    7i..    DCD    26935
    $t
    i.LCD_JPEG
    LCD_JPEG
        0x0000075c:    b5f0        ..      PUSH     {r4-r7,lr}
        0x0000075e:    b091        ..      SUB      sp,sp,#0x44
        0x00000760:    4924        $I      LDR      r1,[pc,#144] ; [0x7f4] = 0x1ffff02c
        0x00000762:    2600        .&      MOVS     r6,#0
        0x00000764:    600e        .`      STR      r6,[r1,#0]
        0x00000766:    a124        $.      ADR      r1,{pc}+0x92 ; 0x7f8
        0x00000768:    a808        ..      ADD      r0,sp,#0x20
        0x0000076a:    f002fbc1    ....    BL       pf_opendir ; 0x2ef0
        0x0000076e:    2400        .$      MOVS     r4,#0
        0x00000770:    2800        .(      CMP      r0,#0
        0x00000772:    d00a        ..      BEQ      0x78a ; LCD_JPEG + 46
        0x00000774:    2100        .!      MOVS     r1,#0
        0x00000776:    a221        !.      ADR      r2,{pc}+0x86 ; 0x7fc
        0x00000778:    4608        .F      MOV      r0,r1
        0x0000077a:    f000fb47    ..G.    BL       LCD_Text_PrintStr_RC ; 0xe0c
        0x0000077e:    2100        .!      MOVS     r1,#0
        0x00000780:    a222        ".      ADR      r2,{pc}+0x8c ; 0x80c
        0x00000782:    4608        .F      MOV      r0,r1
        0x00000784:    f000fb42    ..B.    BL       LCD_Text_PrintStr_RC ; 0xe0c
        0x00000788:    e7fe        ..      B        0x788 ; LCD_JPEG + 44
        0x0000078a:    ad04        ..      ADD      r5,sp,#0x10
        0x0000078c:    af10        ..      ADD      r7,sp,#0x40
        0x0000078e:    3501        .5      ADDS     r5,#1
        0x00000790:    a902        ..      ADD      r1,sp,#8
        0x00000792:    a808        ..      ADD      r0,sp,#0x20
        0x00000794:    f002fc8e    ....    BL       pf_readdir ; 0x30b4
        0x00000798:    2800        .(      CMP      r0,#0
        0x0000079a:    d120         .      BNE      0x7de ; LCD_JPEG + 130
        0x0000079c:    4668        hF      MOV      r0,sp
        0x0000079e:    7c40        @|      LDRB     r0,[r0,#0x11]
        0x000007a0:    2800        .(      CMP      r0,#0
        0x000007a2:    d01c        ..      BEQ      0x7de ; LCD_JPEG + 130
        0x000007a4:    4668        hF      MOV      r0,sp
        0x000007a6:    7c00        .|      LDRB     r0,[r0,#0x10]
        0x000007a8:    06c0        ..      LSLS     r0,r0,#27
        0x000007aa:    d4f1        ..      BMI      0x790 ; LCD_JPEG + 52
        0x000007ac:    f7fffe00    ....    BL       LCD_Erase ; 0x3b0
        0x000007b0:    ab0f        ..      ADD      r3,sp,#0x3c
        0x000007b2:    aa0e        ..      ADD      r2,sp,#0x38
        0x000007b4:    a90d        ..      ADD      r1,sp,#0x34
        0x000007b6:    4628        (F      MOV      r0,r5
        0x000007b8:    9700        ..      STR      r7,[sp,#0]
        0x000007ba:    9601        ..      STR      r6,[sp,#4]
        0x000007bc:    f002fff0    ....    BL       pjpeg_load_from_file ; 0x37a0
        0x000007c0:    2800        .(      CMP      r0,#0
        0x000007c2:    d00a        ..      BEQ      0x7da ; LCD_JPEG + 126
        0x000007c4:    2100        .!      MOVS     r1,#0
        0x000007c6:    a215        ..      ADR      r2,{pc}+0x56 ; 0x81c
        0x000007c8:    4608        .F      MOV      r0,r1
        0x000007ca:    f000fb1f    ....    BL       LCD_Text_PrintStr_RC ; 0xe0c
        0x000007ce:    a219        ..      ADR      r2,{pc}+0x66 ; 0x834
        0x000007d0:    2100        .!      MOVS     r1,#0
        0x000007d2:    2001        .       MOVS     r0,#1
        0x000007d4:    f000fb1a    ....    BL       LCD_Text_PrintStr_RC ; 0xe0c
        0x000007d8:    e7fe        ..      B        0x7d8 ; LCD_JPEG + 124
        0x000007da:    1c64        d.      ADDS     r4,r4,#1
        0x000007dc:    e7d8        ..      B        0x790 ; LCD_JPEG + 52
        0x000007de:    2c00        .,      CMP      r4,#0
        0x000007e0:    d104        ..      BNE      0x7ec ; LCD_JPEG + 144
        0x000007e2:    2100        .!      MOVS     r1,#0
        0x000007e4:    a215        ..      ADR      r2,{pc}+0x58 ; 0x83c
        0x000007e6:    4608        .F      MOV      r0,r1
        0x000007e8:    f000fb10    ....    BL       LCD_Text_PrintStr_RC ; 0xe0c
        0x000007ec:    2000        .       MOVS     r0,#0
        0x000007ee:    b011        ..      ADD      sp,sp,#0x44
        0x000007f0:    bdf0        ..      POP      {r4-r7,pc}
    $d
        0x000007f2:    0000        ..      DCW    0
        0x000007f4:    1ffff02c    ,...    DCD    536866860
        0x000007f8:    00000000    ....    DCD    0
        0x000007fc:    6c756f43    Coul    DCD    1819635523
        0x00000800:    74276e64    dn't    DCD    1948741220
        0x00000804:    65706f20     ope    DCD    1701867296
        0x00000808:    0000006e    n...    DCD    110
        0x0000080c:    746f6f72    root    DCD    1953460082
        0x00000810:    72696420     dir    DCD    1919509536
        0x00000814:    6f746365    ecto    DCD    1869898597
        0x00000818:    00007972    ry..    DCD    31090
        0x0000081c:    65706a70    pjpe    DCD    1701866096
        0x00000820:    6f6c5f67    g_lo    DCD    1869373287
        0x00000824:    665f6461    ad_f    DCD    1717527649
        0x00000828:    5f6d6f72    rom_    DCD    1601007474
        0x0000082c:    656c6966    file    DCD    1701603686
        0x00000830:    00000020     ...    DCD    32
        0x00000834:    6c696166    fail    DCD    1818845542
        0x00000838:    00006465    ed..    DCD    25701
        0x0000083c:    4a206f4e    No J    DCD    1243639630
        0x00000840:    73474550    PEGs    DCD    1934050640
        0x00000844:    756f4620     Fou    DCD    1970226720
        0x00000848:    0021646e    nd!.    DCD    2188398
    $t
    i.LCD_Plot_Pixel
    LCD_Plot_Pixel
        0x0000084c:    b4f0        ..      PUSH     {r4-r7}
        0x0000084e:    2501        .%      MOVS     r5,#1
        0x00000850:    4a31        1J      LDR      r2,[pc,#196] ; [0x918] = 0xf80ff080
        0x00000852:    032d        -.      LSLS     r5,r5,#12
        0x00000854:    6095        .`      STR      r5,[r2,#8]
        0x00000856:    24ff        .$      MOVS     r4,#0xff
        0x00000858:    00e4        ..      LSLS     r4,r4,#3
        0x0000085a:    6094        .`      STR      r4,[r2,#8]
        0x0000085c:    23ff        .#      MOVS     r3,#0xff
        0x0000085e:    3351        Q3      ADDS     r3,r3,#0x51
        0x00000860:    6053        S`      STR      r3,[r2,#4]
        0x00000862:    006b        k.      LSLS     r3,r5,#1
        0x00000864:    6093        .`      STR      r3,[r2,#8]
        0x00000866:    6053        S`      STR      r3,[r2,#4]
        0x00000868:    6055        U`      STR      r5,[r2,#4]
        0x0000086a:    6094        .`      STR      r4,[r2,#8]
        0x0000086c:    2700        .'      MOVS     r7,#0
        0x0000086e:    6057        W`      STR      r7,[r2,#4]
        0x00000870:    6093        .`      STR      r3,[r2,#8]
        0x00000872:    6053        S`      STR      r3,[r2,#4]
        0x00000874:    7806        .x      LDRB     r6,[r0,#0]
        0x00000876:    6094        .`      STR      r4,[r2,#8]
        0x00000878:    00f6        ..      LSLS     r6,r6,#3
        0x0000087a:    6056        V`      STR      r6,[r2,#4]
        0x0000087c:    6093        .`      STR      r3,[r2,#8]
        0x0000087e:    6053        S`      STR      r3,[r2,#4]
        0x00000880:    6094        .`      STR      r4,[r2,#8]
        0x00000882:    6057        W`      STR      r7,[r2,#4]
        0x00000884:    6093        .`      STR      r3,[r2,#8]
        0x00000886:    6053        S`      STR      r3,[r2,#4]
        0x00000888:    6094        .`      STR      r4,[r2,#8]
        0x0000088a:    26ef        .&      MOVS     r6,#0xef
        0x0000088c:    00f6        ..      LSLS     r6,r6,#3
        0x0000088e:    6056        V`      STR      r6,[r2,#4]
        0x00000890:    6093        .`      STR      r3,[r2,#8]
        0x00000892:    6053        S`      STR      r3,[r2,#4]
        0x00000894:    6095        .`      STR      r5,[r2,#8]
        0x00000896:    6094        .`      STR      r4,[r2,#8]
        0x00000898:    26ff        .&      MOVS     r6,#0xff
        0x0000089a:    3659        Y6      ADDS     r6,r6,#0x59
        0x0000089c:    6056        V`      STR      r6,[r2,#4]
        0x0000089e:    6093        .`      STR      r3,[r2,#8]
        0x000008a0:    6053        S`      STR      r3,[r2,#4]
        0x000008a2:    6055        U`      STR      r5,[r2,#4]
        0x000008a4:    8886        ..      LDRH     r6,[r0,#4]
        0x000008a6:    6094        .`      STR      r4,[r2,#8]
        0x000008a8:    0436        6.      LSLS     r6,r6,#16
        0x000008aa:    0e36        6.      LSRS     r6,r6,#24
        0x000008ac:    00f6        ..      LSLS     r6,r6,#3
        0x000008ae:    6056        V`      STR      r6,[r2,#4]
        0x000008b0:    6093        .`      STR      r3,[r2,#8]
        0x000008b2:    6053        S`      STR      r3,[r2,#4]
        0x000008b4:    7900        .y      LDRB     r0,[r0,#4]
        0x000008b6:    6094        .`      STR      r4,[r2,#8]
        0x000008b8:    00c0        ..      LSLS     r0,r0,#3
        0x000008ba:    6050        P`      STR      r0,[r2,#4]
        0x000008bc:    6093        .`      STR      r3,[r2,#8]
        0x000008be:    6053        S`      STR      r3,[r2,#4]
        0x000008c0:    6094        .`      STR      r4,[r2,#8]
        0x000008c2:    2008        .       MOVS     r0,#8
        0x000008c4:    6050        P`      STR      r0,[r2,#4]
        0x000008c6:    6093        .`      STR      r3,[r2,#8]
        0x000008c8:    6053        S`      STR      r3,[r2,#4]
        0x000008ca:    6094        .`      STR      r4,[r2,#8]
        0x000008cc:    20ff        .       MOVS     r0,#0xff
        0x000008ce:    30f9        .0      ADDS     r0,r0,#0xf9
        0x000008d0:    6050        P`      STR      r0,[r2,#4]
        0x000008d2:    6093        .`      STR      r3,[r2,#8]
        0x000008d4:    6053        S`      STR      r3,[r2,#4]
        0x000008d6:    7808        .x      LDRB     r0,[r1,#0]
        0x000008d8:    08c6        ..      LSRS     r6,r0,#3
        0x000008da:    7848        Hx      LDRB     r0,[r1,#1]
        0x000008dc:    00f6        ..      LSLS     r6,r6,#3
        0x000008de:    0947        G.      LSRS     r7,r0,#5
        0x000008e0:    433e        >C      ORRS     r6,r6,r7
        0x000008e2:    271c        .'      MOVS     r7,#0x1c
        0x000008e4:    4038        8@      ANDS     r0,r0,r7
        0x000008e6:    7889        .x      LDRB     r1,[r1,#2]
        0x000008e8:    00c0        ..      LSLS     r0,r0,#3
        0x000008ea:    08c9        ..      LSRS     r1,r1,#3
        0x000008ec:    4308        .C      ORRS     r0,r0,r1
        0x000008ee:    6095        .`      STR      r5,[r2,#8]
        0x000008f0:    6094        .`      STR      r4,[r2,#8]
        0x000008f2:    21ff        .!      MOVS     r1,#0xff
        0x000008f4:    3161        a1      ADDS     r1,r1,#0x61
        0x000008f6:    6051        Q`      STR      r1,[r2,#4]
        0x000008f8:    6093        .`      STR      r3,[r2,#8]
        0x000008fa:    6053        S`      STR      r3,[r2,#4]
        0x000008fc:    6055        U`      STR      r5,[r2,#4]
        0x000008fe:    6094        .`      STR      r4,[r2,#8]
        0x00000900:    00f1        ..      LSLS     r1,r6,#3
        0x00000902:    6051        Q`      STR      r1,[r2,#4]
        0x00000904:    6093        .`      STR      r3,[r2,#8]
        0x00000906:    6053        S`      STR      r3,[r2,#4]
        0x00000908:    6094        .`      STR      r4,[r2,#8]
        0x0000090a:    00c0        ..      LSLS     r0,r0,#3
        0x0000090c:    6050        P`      STR      r0,[r2,#4]
        0x0000090e:    6093        .`      STR      r3,[r2,#8]
        0x00000910:    6053        S`      STR      r3,[r2,#4]
        0x00000912:    bcf0        ..      POP      {r4-r7}
        0x00000914:    4770        pG      BX       lr
    $d
        0x00000916:    0000        ..      DCW    0
        0x00000918:    f80ff080    ....    DCD    4161794176
    $t
    i.LCD_Start_Rectangle
    LCD_Start_Rectangle
        0x0000091c:    b4f0        ..      PUSH     {r4-r7}
        0x0000091e:    6802        .h      LDR      r2,[r0,#0]
        0x00000920:    680b        .h      LDR      r3,[r1,#0]
        0x00000922:    429a        .B      CMP      r2,r3
        0x00000924:    d201        ..      BCS      0x92a ; LCD_Start_Rectangle + 14
        0x00000926:    4614        .F      MOV      r4,r2
        0x00000928:    e000        ..      B        0x92c ; LCD_Start_Rectangle + 16
        0x0000092a:    461c        .F      MOV      r4,r3
        0x0000092c:    b2a6        ..      UXTH     r6,r4
        0x0000092e:    429a        .B      CMP      r2,r3
        0x00000930:    d800        ..      BHI      0x934 ; LCD_Start_Rectangle + 24
        0x00000932:    461a        .F      MOV      r2,r3
        0x00000934:    6840        @h      LDR      r0,[r0,#4]
        0x00000936:    6849        Ih      LDR      r1,[r1,#4]
        0x00000938:    b295        ..      UXTH     r5,r2
        0x0000093a:    4288        .B      CMP      r0,r1
        0x0000093c:    d201        ..      BCS      0x942 ; LCD_Start_Rectangle + 38
        0x0000093e:    4602        .F      MOV      r2,r0
        0x00000940:    e000        ..      B        0x944 ; LCD_Start_Rectangle + 40
        0x00000942:    460a        .F      MOV      r2,r1
        0x00000944:    b297        ..      UXTH     r7,r2
        0x00000946:    4288        .B      CMP      r0,r1
        0x00000948:    d800        ..      BHI      0x94c ; LCD_Start_Rectangle + 48
        0x0000094a:    4608        .F      MOV      r0,r1
        0x0000094c:    b284        ..      UXTH     r4,r0
        0x0000094e:    2def        .-      CMP      r5,#0xef
        0x00000950:    d300        ..      BCC      0x954 ; LCD_Start_Rectangle + 56
        0x00000952:    25ef        .%      MOVS     r5,#0xef
        0x00000954:    20ff        .       MOVS     r0,#0xff
        0x00000956:    3040        @0      ADDS     r0,r0,#0x40
        0x00000958:    4284        .B      CMP      r4,r0
        0x0000095a:    d300        ..      BCC      0x95e ; LCD_Start_Rectangle + 66
        0x0000095c:    4604        .F      MOV      r4,r0
        0x0000095e:    1ba8        ..      SUBS     r0,r5,r6
        0x00000960:    1be1        ..      SUBS     r1,r4,r7
        0x00000962:    1c40        @.      ADDS     r0,r0,#1
        0x00000964:    1c49        I.      ADDS     r1,r1,#1
        0x00000966:    4348        HC      MULS     r0,r1,r0
        0x00000968:    4684        .F      MOV      r12,r0
        0x0000096a:    d053        S.      BEQ      0xa14 ; LCD_Start_Rectangle + 248
        0x0000096c:    2001        .       MOVS     r0,#1
        0x0000096e:    492b        +I      LDR      r1,[pc,#172] ; [0xa1c] = 0xf80ff080
        0x00000970:    0300        ..      LSLS     r0,r0,#12
        0x00000972:    6088        .`      STR      r0,[r1,#8]
        0x00000974:    23ff        .#      MOVS     r3,#0xff
        0x00000976:    00db        ..      LSLS     r3,r3,#3
        0x00000978:    608b        .`      STR      r3,[r1,#8]
        0x0000097a:    20ff        .       MOVS     r0,#0xff
        0x0000097c:    3051        Q0      ADDS     r0,r0,#0x51
        0x0000097e:    6048        H`      STR      r0,[r1,#4]
        0x00000980:    2201        ."      MOVS     r2,#1
        0x00000982:    0352        R.      LSLS     r2,r2,#13
        0x00000984:    608a        .`      STR      r2,[r1,#8]
        0x00000986:    604a        J`      STR      r2,[r1,#4]
        0x00000988:    1050        P.      ASRS     r0,r2,#1
        0x0000098a:    6048        H`      STR      r0,[r1,#4]
        0x0000098c:    0a30        0.      LSRS     r0,r6,#8
        0x0000098e:    608b        .`      STR      r3,[r1,#8]
        0x00000990:    00c0        ..      LSLS     r0,r0,#3
        0x00000992:    6048        H`      STR      r0,[r1,#4]
        0x00000994:    608a        .`      STR      r2,[r1,#8]
        0x00000996:    604a        J`      STR      r2,[r1,#4]
        0x00000998:    0630        0.      LSLS     r0,r6,#24
        0x0000099a:    608b        .`      STR      r3,[r1,#8]
        0x0000099c:    0d40        @.      LSRS     r0,r0,#21
        0x0000099e:    6048        H`      STR      r0,[r1,#4]
        0x000009a0:    608a        .`      STR      r2,[r1,#8]
        0x000009a2:    604a        J`      STR      r2,[r1,#4]
        0x000009a4:    0a28        (.      LSRS     r0,r5,#8
        0x000009a6:    608b        .`      STR      r3,[r1,#8]
        0x000009a8:    00c0        ..      LSLS     r0,r0,#3
        0x000009aa:    6048        H`      STR      r0,[r1,#4]
        0x000009ac:    608a        .`      STR      r2,[r1,#8]
        0x000009ae:    604a        J`      STR      r2,[r1,#4]
        0x000009b0:    0628        (.      LSLS     r0,r5,#24
        0x000009b2:    608b        .`      STR      r3,[r1,#8]
        0x000009b4:    0d40        @.      LSRS     r0,r0,#21
        0x000009b6:    6048        H`      STR      r0,[r1,#4]
        0x000009b8:    608a        .`      STR      r2,[r1,#8]
        0x000009ba:    604a        J`      STR      r2,[r1,#4]
        0x000009bc:    1050        P.      ASRS     r0,r2,#1
        0x000009be:    6088        .`      STR      r0,[r1,#8]
        0x000009c0:    608b        .`      STR      r3,[r1,#8]
        0x000009c2:    20ff        .       MOVS     r0,#0xff
        0x000009c4:    3059        Y0      ADDS     r0,r0,#0x59
        0x000009c6:    6048        H`      STR      r0,[r1,#4]
        0x000009c8:    608a        .`      STR      r2,[r1,#8]
        0x000009ca:    604a        J`      STR      r2,[r1,#4]
        0x000009cc:    1050        P.      ASRS     r0,r2,#1
        0x000009ce:    6048        H`      STR      r0,[r1,#4]
        0x000009d0:    0a38        8.      LSRS     r0,r7,#8
        0x000009d2:    608b        .`      STR      r3,[r1,#8]
        0x000009d4:    00c0        ..      LSLS     r0,r0,#3
        0x000009d6:    6048        H`      STR      r0,[r1,#4]
        0x000009d8:    608a        .`      STR      r2,[r1,#8]
        0x000009da:    604a        J`      STR      r2,[r1,#4]
        0x000009dc:    0638        8.      LSLS     r0,r7,#24
        0x000009de:    608b        .`      STR      r3,[r1,#8]
        0x000009e0:    0d40        @.      LSRS     r0,r0,#21
        0x000009e2:    6048        H`      STR      r0,[r1,#4]
        0x000009e4:    608a        .`      STR      r2,[r1,#8]
        0x000009e6:    604a        J`      STR      r2,[r1,#4]
        0x000009e8:    0a20         .      LSRS     r0,r4,#8
        0x000009ea:    608b        .`      STR      r3,[r1,#8]
        0x000009ec:    00c0        ..      LSLS     r0,r0,#3
        0x000009ee:    6048        H`      STR      r0,[r1,#4]
        0x000009f0:    608a        .`      STR      r2,[r1,#8]
        0x000009f2:    604a        J`      STR      r2,[r1,#4]
        0x000009f4:    0620         .      LSLS     r0,r4,#24
        0x000009f6:    608b        .`      STR      r3,[r1,#8]
        0x000009f8:    0d40        @.      LSRS     r0,r0,#21
        0x000009fa:    6048        H`      STR      r0,[r1,#4]
        0x000009fc:    608a        .`      STR      r2,[r1,#8]
        0x000009fe:    604a        J`      STR      r2,[r1,#4]
        0x00000a00:    1050        P.      ASRS     r0,r2,#1
        0x00000a02:    6088        .`      STR      r0,[r1,#8]
        0x00000a04:    608b        .`      STR      r3,[r1,#8]
        0x00000a06:    20ff        .       MOVS     r0,#0xff
        0x00000a08:    3061        a0      ADDS     r0,r0,#0x61
        0x00000a0a:    6048        H`      STR      r0,[r1,#4]
        0x00000a0c:    608a        .`      STR      r2,[r1,#8]
        0x00000a0e:    604a        J`      STR      r2,[r1,#4]
        0x00000a10:    1050        P.      ASRS     r0,r2,#1
        0x00000a12:    6048        H`      STR      r0,[r1,#4]
        0x00000a14:    bcf0        ..      POP      {r4-r7}
        0x00000a16:    4660        `F      MOV      r0,r12
        0x00000a18:    4770        pG      BX       lr
    $d
        0x00000a1a:    0000        ..      DCW    0
        0x00000a1c:    f80ff080    ....    DCD    4161794176
    $t
    i.LCD_TS_Init
    LCD_TS_Init
        0x00000a20:    4805        .H      LDR      r0,[pc,#20] ; [0xa38] = 0x40048000
        0x00000a22:    6bc1        .k      LDR      r1,[r0,#0x3c]
        0x00000a24:    2201        ."      MOVS     r2,#1
        0x00000a26:    06d2        ..      LSLS     r2,r2,#27
        0x00000a28:    4311        .C      ORRS     r1,r1,r2
        0x00000a2a:    63c1        .c      STR      r1,[r0,#0x3c]
        0x00000a2c:    4803        .H      LDR      r0,[pc,#12] ; [0xa3c] = 0x4003b000
        0x00000a2e:    219c        .!      MOVS     r1,#0x9c
        0x00000a30:    6081        .`      STR      r1,[r0,#8]
        0x00000a32:    2100        .!      MOVS     r1,#0
        0x00000a34:    6201        .b      STR      r1,[r0,#0x20]
        0x00000a36:    4770        pG      BX       lr
    $d
        0x00000a38:    40048000    ...@    DCD    1074036736
        0x00000a3c:    4003b000    ...@    DCD    1073983488
    $t
    i.LCD_TS_Read
    LCD_TS_Read
        0x00000a40:    b5f8        ..      PUSH     {r3-r7,lr}
        0x00000a42:    4c60        `L      LDR      r4,[pc,#384] ; [0xbc4] = 0x4004d040
        0x00000a44:    4606        .F      MOV      r6,r0
        0x00000a46:    69a0        .i      LDR      r0,[r4,#0x18]
        0x00000a48:    2507        .%      MOVS     r5,#7
        0x00000a4a:    022d        -.      LSLS     r5,r5,#8
        0x00000a4c:    43a8        .C      BICS     r0,r0,r5
        0x00000a4e:    61a0        .a      STR      r0,[r4,#0x18]
        0x00000a50:    69a1        .i      LDR      r1,[r4,#0x18]
        0x00000a52:    15a0        ..      ASRS     r0,r4,#22
        0x00000a54:    4301        .C      ORRS     r1,r1,r0
        0x00000a56:    61a1        .a      STR      r1,[r4,#0x18]
        0x00000a58:    495b        [I      LDR      r1,[pc,#364] ; [0xbc8] = 0xf80ff100
        0x00000a5a:    694a        Ji      LDR      r2,[r1,#0x14]
        0x00000a5c:    0381        ..      LSLS     r1,r0,#14
        0x00000a5e:    4b5a        ZK      LDR      r3,[pc,#360] ; [0xbc8] = 0xf80ff100
        0x00000a60:    430a        .C      ORRS     r2,r2,r1
        0x00000a62:    615a        Za      STR      r2,[r3,#0x14]
        0x00000a64:    6099        .`      STR      r1,[r3,#8]
        0x00000a66:    4959        YI      LDR      r1,[pc,#356] ; [0xbcc] = 0x4004b000
        0x00000a68:    6809        .h      LDR      r1,[r1,#0]
        0x00000a6a:    4a58        XJ      LDR      r2,[pc,#352] ; [0xbcc] = 0x4004b000
        0x00000a6c:    43a9        .C      BICS     r1,r1,r5
        0x00000a6e:    6011        .`      STR      r1,[r2,#0]
        0x00000a70:    6811        .h      LDR      r1,[r2,#0]
        0x00000a72:    6011        .`      STR      r1,[r2,#0]
        0x00000a74:    6851        Qh      LDR      r1,[r2,#4]
        0x00000a76:    43a9        .C      BICS     r1,r1,r5
        0x00000a78:    6051        Q`      STR      r1,[r2,#4]
        0x00000a7a:    6851        Qh      LDR      r1,[r2,#4]
        0x00000a7c:    4301        .C      ORRS     r1,r1,r0
        0x00000a7e:    6051        Q`      STR      r1,[r2,#4]
        0x00000a80:    4953        SI      LDR      r1,[pc,#332] ; [0xbd0] = 0xf80ff080
        0x00000a82:    694b        Ki      LDR      r3,[r1,#0x14]
        0x00000a84:    2202        ."      MOVS     r2,#2
        0x00000a86:    4393        .C      BICS     r3,r3,r2
        0x00000a88:    614b        Ka      STR      r3,[r1,#0x14]
        0x00000a8a:    69e1        .i      LDR      r1,[r4,#0x1c]
        0x00000a8c:    43a9        .C      BICS     r1,r1,r5
        0x00000a8e:    61e1        .a      STR      r1,[r4,#0x1c]
        0x00000a90:    69e1        .i      LDR      r1,[r4,#0x1c]
        0x00000a92:    4301        .C      ORRS     r1,r1,r0
        0x00000a94:    61e1        .a      STR      r1,[r4,#0x1c]
        0x00000a96:    69e0        .i      LDR      r0,[r4,#0x1c]
        0x00000a98:    4310        .C      ORRS     r0,r0,r2
        0x00000a9a:    61e0        .a      STR      r0,[r4,#0x1c]
        0x00000a9c:    484a        JH      LDR      r0,[pc,#296] ; [0xbc8] = 0xf80ff100
        0x00000a9e:    6940        @i      LDR      r0,[r0,#0x14]
        0x00000aa0:    0597        ..      LSLS     r7,r2,#22
        0x00000aa2:    4949        II      LDR      r1,[pc,#292] ; [0xbc8] = 0xf80ff100
        0x00000aa4:    43b8        .C      BICS     r0,r0,r7
        0x00000aa6:    6148        Ha      STR      r0,[r1,#0x14]
        0x00000aa8:    2001        .       MOVS     r0,#1
        0x00000aaa:    f7fffb6d    ..m.    BL       Delay ; 0x188
        0x00000aae:    4846        FH      LDR      r0,[pc,#280] ; [0xbc8] = 0xf80ff100
        0x00000ab0:    6900        .i      LDR      r0,[r0,#0x10]
        0x00000ab2:    4238        8B      TST      r0,r7
        0x00000ab4:    d001        ..      BEQ      0xaba ; LCD_TS_Read + 122
        0x00000ab6:    2000        .       MOVS     r0,#0
        0x00000ab8:    bdf8        ..      POP      {r3-r7,pc}
        0x00000aba:    4842        BH      LDR      r0,[pc,#264] ; [0xbc4] = 0x4004d040
        0x00000abc:    6982        .i      LDR      r2,[r0,#0x18]
        0x00000abe:    2107        .!      MOVS     r1,#7
        0x00000ac0:    0209        ..      LSLS     r1,r1,#8
        0x00000ac2:    438a        .C      BICS     r2,r2,r1
        0x00000ac4:    6182        .a      STR      r2,[r0,#0x18]
        0x00000ac6:    6982        .i      LDR      r2,[r0,#0x18]
        0x00000ac8:    6182        .a      STR      r2,[r0,#0x18]
        0x00000aca:    4c40        @L      LDR      r4,[pc,#256] ; [0xbcc] = 0x4004b000
        0x00000acc:    6822        "h      LDR      r2,[r4,#0]
        0x00000ace:    438a        .C      BICS     r2,r2,r1
        0x00000ad0:    6022        "`      STR      r2,[r4,#0]
        0x00000ad2:    6822        "h      LDR      r2,[r4,#0]
        0x00000ad4:    6022        "`      STR      r2,[r4,#0]
        0x00000ad6:    6862        bh      LDR      r2,[r4,#4]
        0x00000ad8:    438a        .C      BICS     r2,r2,r1
        0x00000ada:    6062        b`      STR      r2,[r4,#4]
        0x00000adc:    6863        ch      LDR      r3,[r4,#4]
        0x00000ade:    1582        ..      ASRS     r2,r0,#22
        0x00000ae0:    4313        .C      ORRS     r3,r3,r2
        0x00000ae2:    6063        c`      STR      r3,[r4,#4]
        0x00000ae4:    69c3        .i      LDR      r3,[r0,#0x1c]
        0x00000ae6:    438b        .C      BICS     r3,r3,r1
        0x00000ae8:    61c3        .a      STR      r3,[r0,#0x1c]
        0x00000aea:    69c1        .i      LDR      r1,[r0,#0x1c]
        0x00000aec:    4311        .C      ORRS     r1,r1,r2
        0x00000aee:    61c1        .a      STR      r1,[r0,#0x1c]
        0x00000af0:    4837        7H      LDR      r0,[pc,#220] ; [0xbd0] = 0xf80ff080
        0x00000af2:    6941        Ai      LDR      r1,[r0,#0x14]
        0x00000af4:    2202        ."      MOVS     r2,#2
        0x00000af6:    4311        .C      ORRS     r1,r1,r2
        0x00000af8:    6141        Aa      STR      r1,[r0,#0x14]
        0x00000afa:    4933        3I      LDR      r1,[pc,#204] ; [0xbc8] = 0xf80ff100
        0x00000afc:    694b        Ki      LDR      r3,[r1,#0x14]
        0x00000afe:    433b        ;C      ORRS     r3,r3,r7
        0x00000b00:    614b        Ka      STR      r3,[r1,#0x14]
        0x00000b02:    604f        O`      STR      r7,[r1,#4]
        0x00000b04:    6082        .`      STR      r2,[r0,#8]
        0x00000b06:    2001        .       MOVS     r0,#1
        0x00000b08:    f7fffb3e    ..>.    BL       Delay ; 0x188
        0x00000b0c:    4d31        1M      LDR      r5,[pc,#196] ; [0xbd4] = 0x4003b000
        0x00000b0e:    2003        .       MOVS     r0,#3
        0x00000b10:    6028        (`      STR      r0,[r5,#0]
        0x00000b12:    6828        (h      LDR      r0,[r5,#0]
        0x00000b14:    0600        ..      LSLS     r0,r0,#24
        0x00000b16:    d5fc        ..      BPL      0xb12 ; LCD_TS_Read + 210
        0x00000b18:    6928        (i      LDR      r0,[r5,#0x10]
        0x00000b1a:    b287        ..      UXTH     r7,r0
        0x00000b1c:    482e        .H      LDR      r0,[pc,#184] ; [0xbd8] = 0x1ffff030
        0x00000b1e:    8087        ..      STRH     r7,[r0,#4]
        0x00000b20:    6860        `h      LDR      r0,[r4,#4]
        0x00000b22:    2107        .!      MOVS     r1,#7
        0x00000b24:    0209        ..      LSLS     r1,r1,#8
        0x00000b26:    4388        .C      BICS     r0,r0,r1
        0x00000b28:    6060        ``      STR      r0,[r4,#4]
        0x00000b2a:    6860        `h      LDR      r0,[r4,#4]
        0x00000b2c:    6060        ``      STR      r0,[r4,#4]
        0x00000b2e:    4825        %H      LDR      r0,[pc,#148] ; [0xbc4] = 0x4004d040
        0x00000b30:    69c2        .i      LDR      r2,[r0,#0x1c]
        0x00000b32:    438a        .C      BICS     r2,r2,r1
        0x00000b34:    61c2        .a      STR      r2,[r0,#0x1c]
        0x00000b36:    69c2        .i      LDR      r2,[r0,#0x1c]
        0x00000b38:    61c2        .a      STR      r2,[r0,#0x1c]
        0x00000b3a:    69c2        .i      LDR      r2,[r0,#0x1c]
        0x00000b3c:    2302        .#      MOVS     r3,#2
        0x00000b3e:    439a        .C      BICS     r2,r2,r3
        0x00000b40:    61c2        .a      STR      r2,[r0,#0x1c]
        0x00000b42:    6982        .i      LDR      r2,[r0,#0x18]
        0x00000b44:    438a        .C      BICS     r2,r2,r1
        0x00000b46:    6182        .a      STR      r2,[r0,#0x18]
        0x00000b48:    6983        .i      LDR      r3,[r0,#0x18]
        0x00000b4a:    1582        ..      ASRS     r2,r0,#22
        0x00000b4c:    4313        .C      ORRS     r3,r3,r2
        0x00000b4e:    6183        .a      STR      r3,[r0,#0x18]
        0x00000b50:    6820         h      LDR      r0,[r4,#0]
        0x00000b52:    4388        .C      BICS     r0,r0,r1
        0x00000b54:    6020         `      STR      r0,[r4,#0]
        0x00000b56:    6820         h      LDR      r0,[r4,#0]
        0x00000b58:    4310        .C      ORRS     r0,r0,r2
        0x00000b5a:    6020         `      STR      r0,[r4,#0]
        0x00000b5c:    481a        .H      LDR      r0,[pc,#104] ; [0xbc8] = 0xf80ff100
        0x00000b5e:    6941        Ai      LDR      r1,[r0,#0x14]
        0x00000b60:    0392        ..      LSLS     r2,r2,#14
        0x00000b62:    4311        .C      ORRS     r1,r1,r2
        0x00000b64:    6141        Aa      STR      r1,[r0,#0x14]
        0x00000b66:    491a        .I      LDR      r1,[pc,#104] ; [0xbd0] = 0xf80ff080
        0x00000b68:    694c        Li      LDR      r4,[r1,#0x14]
        0x00000b6a:    2301        .#      MOVS     r3,#1
        0x00000b6c:    431c        .C      ORRS     r4,r4,r3
        0x00000b6e:    614c        La      STR      r4,[r1,#0x14]
        0x00000b70:    604b        K`      STR      r3,[r1,#4]
        0x00000b72:    6082        .`      STR      r2,[r0,#8]
        0x00000b74:    4618        .F      MOV      r0,r3
        0x00000b76:    f7fffb07    ....    BL       Delay ; 0x188
        0x00000b7a:    200f        .       MOVS     r0,#0xf
        0x00000b7c:    6028        (`      STR      r0,[r5,#0]
        0x00000b7e:    6828        (h      LDR      r0,[r5,#0]
        0x00000b80:    0600        ..      LSLS     r0,r0,#24
        0x00000b82:    d5fc        ..      BPL      0xb7e ; LCD_TS_Read + 318
        0x00000b84:    6928        (i      LDR      r0,[r5,#0x10]
        0x00000b86:    4c14        .L      LDR      r4,[pc,#80] ; [0xbd8] = 0x1ffff030
        0x00000b88:    b285        ..      UXTH     r5,r0
        0x00000b8a:    8065        e.      STRH     r5,[r4,#2]
        0x00000b8c:    7820         x      LDRB     r0,[r4,#0]
        0x00000b8e:    2800        .(      CMP      r0,#0
        0x00000b90:    d014        ..      BEQ      0xbbc ; LCD_TS_Read + 380
        0x00000b92:    68e0        .h      LDR      r0,[r4,#0xc]
        0x00000b94:    4287        .B      CMP      r7,r0
        0x00000b96:    d201        ..      BCS      0xb9c ; LCD_TS_Read + 348
        0x00000b98:    2000        .       MOVS     r0,#0
        0x00000b9a:    e003        ..      B        0xba4 ; LCD_TS_Read + 356
        0x00000b9c:    1a38        8.      SUBS     r0,r7,r0
        0x00000b9e:    68a1        .h      LDR      r1,[r4,#8]
        0x00000ba0:    f7fffaac    ....    BL       __aeabi_uidiv ; 0xfc
        0x00000ba4:    6030        0`      STR      r0,[r6,#0]
        0x00000ba6:    6960        `i      LDR      r0,[r4,#0x14]
        0x00000ba8:    4285        .B      CMP      r5,r0
        0x00000baa:    d201        ..      BCS      0xbb0 ; LCD_TS_Read + 368
        0x00000bac:    2000        .       MOVS     r0,#0
        0x00000bae:    e003        ..      B        0xbb8 ; LCD_TS_Read + 376
        0x00000bb0:    1a28        (.      SUBS     r0,r5,r0
        0x00000bb2:    6921        !i      LDR      r1,[r4,#0x10]
        0x00000bb4:    f7fffaa2    ....    BL       __aeabi_uidiv ; 0xfc
        0x00000bb8:    6070        p`      STR      r0,[r6,#4]
        0x00000bba:    e001        ..      B        0xbc0 ; LCD_TS_Read + 384
        0x00000bbc:    6037        7`      STR      r7,[r6,#0]
        0x00000bbe:    6075        u`      STR      r5,[r6,#4]
        0x00000bc0:    2001        .       MOVS     r0,#1
        0x00000bc2:    bdf8        ..      POP      {r3-r7,pc}
    $d
        0x00000bc4:    4004d040    @..@    DCD    1074057280
        0x00000bc8:    f80ff100    ....    DCD    4161794304
        0x00000bcc:    4004b000    ...@    DCD    1074049024
        0x00000bd0:    f80ff080    ....    DCD    4161794176
        0x00000bd4:    4003b000    ...@    DCD    1073983488
        0x00000bd8:    1ffff030    0...    DCD    536866864
    $t
    i.LCD_Text_Init
    LCD_Text_Init
        0x00000bdc:    480b        .H      LDR      r0,[pc,#44] ; [0xc0c] = 0x1ffff018
        0x00000bde:    490a        .I      LDR      r1,[pc,#40] ; [0xc08] = 0x5a40
        0x00000be0:    220c        ."      MOVS     r2,#0xc
        0x00000be2:    6081        .`      STR      r1,[r0,#8]
        0x00000be4:    7002        .p      STRB     r2,[r0,#0]
        0x00000be6:    2213        ."      MOVS     r2,#0x13
        0x00000be8:    7042        Bp      STRB     r2,[r0,#1]
        0x00000bea:    60c1        .`      STR      r1,[r0,#0xc]
        0x00000bec:    3108        .1      ADDS     r1,r1,#8
        0x00000bee:    6101        .a      STR      r1,[r0,#0x10]
        0x00000bf0:    4907        .I      LDR      r1,[pc,#28] ; [0xc10] = 0x1ffff01a
        0x00000bf2:    20ff        .       MOVS     r0,#0xff
        0x00000bf4:    7008        .p      STRB     r0,[r1,#0]
        0x00000bf6:    7048        Hp      STRB     r0,[r1,#1]
        0x00000bf8:    2000        .       MOVS     r0,#0
        0x00000bfa:    7088        .p      STRB     r0,[r1,#2]
        0x00000bfc:    4905        .I      LDR      r1,[pc,#20] ; [0xc14] = 0x1ffff01d
        0x00000bfe:    7008        .p      STRB     r0,[r1,#0]
        0x00000c00:    7048        Hp      STRB     r0,[r1,#1]
        0x00000c02:    7088        .p      STRB     r0,[r1,#2]
        0x00000c04:    4770        pG      BX       lr
    $d
        0x00000c06:    0000        ..      DCW    0
        0x00000c08:    00005a40    @Z..    DCD    23104
        0x00000c0c:    1ffff018    ....    DCD    536866840
        0x00000c10:    1ffff01a    ....    DCD    536866842
        0x00000c14:    1ffff01d    ....    DCD    536866845
    $t
    i.LCD_Text_PrintChar
    LCD_Text_PrintChar
        0x00000c18:    b5f0        ..      PUSH     {r4-r7,lr}
        0x00000c1a:    4c66        fL      LDR      r4,[pc,#408] ; [0xdb4] = 0x1ffff018
        0x00000c1c:    b085        ..      SUB      sp,sp,#0x14
        0x00000c1e:    68e2        .h      LDR      r2,[r4,#0xc]
        0x00000c20:    7892        .x      LDRB     r2,[r2,#2]
        0x00000c22:    1a89        ..      SUBS     r1,r1,r2
        0x00000c24:    0609        ..      LSLS     r1,r1,#24
        0x00000c26:    6922        "i      LDR      r2,[r4,#0x10]
        0x00000c28:    0d89        ..      LSRS     r1,r1,#22
        0x00000c2a:    5851        QX      LDR      r1,[r2,r1]
        0x00000c2c:    68a2        .h      LDR      r2,[r4,#8]
        0x00000c2e:    b2cd        ..      UXTB     r5,r1
        0x00000c30:    0a09        ..      LSRS     r1,r1,#8
        0x00000c32:    1851        Q.      ADDS     r1,r2,r1
        0x00000c34:    9101        ..      STR      r1,[sp,#4]
        0x00000c36:    7821        !x      LDRB     r1,[r4,#0]
        0x00000c38:    6802        .h      LDR      r2,[r0,#0]
        0x00000c3a:    1e49        I.      SUBS     r1,r1,#1
        0x00000c3c:    1851        Q.      ADDS     r1,r2,r1
        0x00000c3e:    9102        ..      STR      r1,[sp,#8]
        0x00000c40:    7861        ax      LDRB     r1,[r4,#1]
        0x00000c42:    6842        Bh      LDR      r2,[r0,#4]
        0x00000c44:    1e49        I.      SUBS     r1,r1,#1
        0x00000c46:    1851        Q.      ADDS     r1,r2,r1
        0x00000c48:    9103        ..      STR      r1,[sp,#0xc]
        0x00000c4a:    a902        ..      ADD      r1,sp,#8
        0x00000c4c:    f7fffe66    ..f.    BL       LCD_Start_Rectangle ; 0x91c
        0x00000c50:    2000        .       MOVS     r0,#0
        0x00000c52:    9004        ..      STR      r0,[sp,#0x10]
        0x00000c54:    7860        `x      LDRB     r0,[r4,#1]
        0x00000c56:    2800        .(      CMP      r0,#0
        0x00000c58:    d974        t.      BLS      0xd44 ; LCD_Text_PrintChar + 300
        0x00000c5a:    2400        .$      MOVS     r4,#0
        0x00000c5c:    9801        ..      LDR      r0,[sp,#4]
        0x00000c5e:    7806        .x      LDRB     r6,[r0,#0]
        0x00000c60:    2e00        ..      CMP      r6,#0
        0x00000c62:    d014        ..      BEQ      0xc8e ; LCD_Text_PrintChar + 118
        0x00000c64:    2eff        ..      CMP      r6,#0xff
        0x00000c66:    d01d        ..      BEQ      0xca4 ; LCD_Text_PrintChar + 140
        0x00000c68:    2700        .'      MOVS     r7,#0
        0x00000c6a:    0670        p.      LSLS     r0,r6,#25
        0x00000c6c:    d025        %.      BEQ      0xcba ; LCD_Text_PrintChar + 162
        0x00000c6e:    43f0        .C      MVNS     r0,r6
        0x00000c70:    0641        A.      LSLS     r1,r0,#25
        0x00000c72:    d02a        *.      BEQ      0xcca ; LCD_Text_PrintChar + 178
        0x00000c74:    06b1        ..      LSLS     r1,r6,#26
        0x00000c76:    d03d        =.      BEQ      0xcf4 ; LCD_Text_PrintChar + 220
        0x00000c78:    0681        ..      LSLS     r1,r0,#26
        0x00000c7a:    d047        G.      BEQ      0xd0c ; LCD_Text_PrintChar + 244
        0x00000c7c:    06f1        ..      LSLS     r1,r6,#27
        0x00000c7e:    d051        Q.      BEQ      0xd24 ; LCD_Text_PrintChar + 268
        0x00000c80:    06c1        ..      LSLS     r1,r0,#27
        0x00000c82:    d057        W.      BEQ      0xd34 ; LCD_Text_PrintChar + 284
        0x00000c84:    0731        1.      LSLS     r1,r6,#28
        0x00000c86:    d05e        ^.      BEQ      0xd46 ; LCD_Text_PrintChar + 302
        0x00000c88:    0700        ..      LSLS     r0,r0,#28
        0x00000c8a:    d064        d.      BEQ      0xd56 ; LCD_Text_PrintChar + 318
        0x00000c8c:    e077        w.      B        0xd7e ; LCD_Text_PrintChar + 358
        0x00000c8e:    1b2e        ..      SUBS     r6,r5,r4
        0x00000c90:    2e08        ..      CMP      r6,#8
        0x00000c92:    dd00        ..      BLE      0xc96 ; LCD_Text_PrintChar + 126
        0x00000c94:    2608        .&      MOVS     r6,#8
        0x00000c96:    4631        1F      MOV      r1,r6
        0x00000c98:    4847        GH      LDR      r0,[pc,#284] ; [0xdb8] = 0x1ffff01d
        0x00000c9a:    f000f937    ..7.    BL       LCD_Write_Rectangle_Pixel ; 0xf0c
        0x00000c9e:    19a0        ..      ADDS     r0,r4,r6
        0x00000ca0:    b2c4        ..      UXTB     r4,r0
        0x00000ca2:    e070        p.      B        0xd86 ; LCD_Text_PrintChar + 366
        0x00000ca4:    1b2e        ..      SUBS     r6,r5,r4
        0x00000ca6:    2e08        ..      CMP      r6,#8
        0x00000ca8:    dd00        ..      BLE      0xcac ; LCD_Text_PrintChar + 148
        0x00000caa:    2608        .&      MOVS     r6,#8
        0x00000cac:    4631        1F      MOV      r1,r6
        0x00000cae:    4843        CH      LDR      r0,[pc,#268] ; [0xdbc] = 0x1ffff01a
        0x00000cb0:    f000f92c    ..,.    BL       LCD_Write_Rectangle_Pixel ; 0xf0c
        0x00000cb4:    19a0        ..      ADDS     r0,r4,r6
        0x00000cb6:    b2c4        ..      UXTB     r4,r0
        0x00000cb8:    e065        e.      B        0xd86 ; LCD_Text_PrintChar + 366
        0x00000cba:    1b28        (.      SUBS     r0,r5,r4
        0x00000cbc:    2807        .(      CMP      r0,#7
        0x00000cbe:    dd21        !.      BLE      0xd04 ; LCD_Text_PrintChar + 236
        0x00000cc0:    2007        .       MOVS     r0,#7
        0x00000cc2:    4601        .F      MOV      r1,r0
        0x00000cc4:    9000        ..      STR      r0,[sp,#0]
        0x00000cc6:    483c        <H      LDR      r0,[pc,#240] ; [0xdb8] = 0x1ffff01d
        0x00000cc8:    e006        ..      B        0xcd8 ; LCD_Text_PrintChar + 192
        0x00000cca:    1b28        (.      SUBS     r0,r5,r4
        0x00000ccc:    2807        .(      CMP      r0,#7
        0x00000cce:    dd25        %.      BLE      0xd1c ; LCD_Text_PrintChar + 260
        0x00000cd0:    2007        .       MOVS     r0,#7
        0x00000cd2:    4601        .F      MOV      r1,r0
        0x00000cd4:    9000        ..      STR      r0,[sp,#0]
        0x00000cd6:    4839        9H      LDR      r0,[pc,#228] ; [0xdbc] = 0x1ffff01a
        0x00000cd8:    f000f918    ....    BL       LCD_Write_Rectangle_Pixel ; 0xf0c
        0x00000cdc:    e004        ..      B        0xce8 ; LCD_Text_PrintChar + 208
        0x00000cde:    f000f915    ....    BL       LCD_Write_Rectangle_Pixel ; 0xf0c
        0x00000ce2:    9800        ..      LDR      r0,[sp,#0]
        0x00000ce4:    2800        .(      CMP      r0,#0
        0x00000ce6:    d04a        J.      BEQ      0xd7e ; LCD_Text_PrintChar + 358
        0x00000ce8:    9800        ..      LDR      r0,[sp,#0]
        0x00000cea:    9f00        ..      LDR      r7,[sp,#0]
        0x00000cec:    1820         .      ADDS     r0,r4,r0
        0x00000cee:    b2c4        ..      UXTB     r4,r0
        0x00000cf0:    40fe        .@      LSRS     r6,r6,r7
        0x00000cf2:    e044        D.      B        0xd7e ; LCD_Text_PrintChar + 358
        0x00000cf4:    1b28        (.      SUBS     r0,r5,r4
        0x00000cf6:    2806        .(      CMP      r0,#6
        0x00000cf8:    dd04        ..      BLE      0xd04 ; LCD_Text_PrintChar + 236
        0x00000cfa:    2006        .       MOVS     r0,#6
        0x00000cfc:    4601        .F      MOV      r1,r0
        0x00000cfe:    9000        ..      STR      r0,[sp,#0]
        0x00000d00:    482d        -H      LDR      r0,[pc,#180] ; [0xdb8] = 0x1ffff01d
        0x00000d02:    e7e9        ..      B        0xcd8 ; LCD_Text_PrintChar + 192
        0x00000d04:    4601        .F      MOV      r1,r0
        0x00000d06:    9000        ..      STR      r0,[sp,#0]
        0x00000d08:    482b        +H      LDR      r0,[pc,#172] ; [0xdb8] = 0x1ffff01d
        0x00000d0a:    e7e8        ..      B        0xcde ; LCD_Text_PrintChar + 198
        0x00000d0c:    1b28        (.      SUBS     r0,r5,r4
        0x00000d0e:    2806        .(      CMP      r0,#6
        0x00000d10:    dd04        ..      BLE      0xd1c ; LCD_Text_PrintChar + 260
        0x00000d12:    2006        .       MOVS     r0,#6
        0x00000d14:    4601        .F      MOV      r1,r0
        0x00000d16:    9000        ..      STR      r0,[sp,#0]
        0x00000d18:    4828        (H      LDR      r0,[pc,#160] ; [0xdbc] = 0x1ffff01a
        0x00000d1a:    e7dd        ..      B        0xcd8 ; LCD_Text_PrintChar + 192
        0x00000d1c:    4601        .F      MOV      r1,r0
        0x00000d1e:    9000        ..      STR      r0,[sp,#0]
        0x00000d20:    4826        &H      LDR      r0,[pc,#152] ; [0xdbc] = 0x1ffff01a
        0x00000d22:    e7dc        ..      B        0xcde ; LCD_Text_PrintChar + 198
        0x00000d24:    1b28        (.      SUBS     r0,r5,r4
        0x00000d26:    2805        .(      CMP      r0,#5
        0x00000d28:    ddec        ..      BLE      0xd04 ; LCD_Text_PrintChar + 236
        0x00000d2a:    2005        .       MOVS     r0,#5
        0x00000d2c:    4601        .F      MOV      r1,r0
        0x00000d2e:    9000        ..      STR      r0,[sp,#0]
        0x00000d30:    4821        !H      LDR      r0,[pc,#132] ; [0xdb8] = 0x1ffff01d
        0x00000d32:    e7d1        ..      B        0xcd8 ; LCD_Text_PrintChar + 192
        0x00000d34:    1b28        (.      SUBS     r0,r5,r4
        0x00000d36:    2805        .(      CMP      r0,#5
        0x00000d38:    ddf0        ..      BLE      0xd1c ; LCD_Text_PrintChar + 260
        0x00000d3a:    2005        .       MOVS     r0,#5
        0x00000d3c:    4601        .F      MOV      r1,r0
        0x00000d3e:    9000        ..      STR      r0,[sp,#0]
        0x00000d40:    481e        .H      LDR      r0,[pc,#120] ; [0xdbc] = 0x1ffff01a
        0x00000d42:    e7c9        ..      B        0xcd8 ; LCD_Text_PrintChar + 192
        0x00000d44:    e034        4.      B        0xdb0 ; LCD_Text_PrintChar + 408
        0x00000d46:    1b28        (.      SUBS     r0,r5,r4
        0x00000d48:    2804        .(      CMP      r0,#4
        0x00000d4a:    dddb        ..      BLE      0xd04 ; LCD_Text_PrintChar + 236
        0x00000d4c:    2004        .       MOVS     r0,#4
        0x00000d4e:    4601        .F      MOV      r1,r0
        0x00000d50:    9000        ..      STR      r0,[sp,#0]
        0x00000d52:    4819        .H      LDR      r0,[pc,#100] ; [0xdb8] = 0x1ffff01d
        0x00000d54:    e7c0        ..      B        0xcd8 ; LCD_Text_PrintChar + 192
        0x00000d56:    1b28        (.      SUBS     r0,r5,r4
        0x00000d58:    2804        .(      CMP      r0,#4
        0x00000d5a:    dddf        ..      BLE      0xd1c ; LCD_Text_PrintChar + 260
        0x00000d5c:    2004        .       MOVS     r0,#4
        0x00000d5e:    4601        .F      MOV      r1,r0
        0x00000d60:    9000        ..      STR      r0,[sp,#0]
        0x00000d62:    4816        .H      LDR      r0,[pc,#88] ; [0xdbc] = 0x1ffff01a
        0x00000d64:    e7b8        ..      B        0xcd8 ; LCD_Text_PrintChar + 192
        0x00000d66:    07f0        ..      LSLS     r0,r6,#31
        0x00000d68:    d001        ..      BEQ      0xd6e ; LCD_Text_PrintChar + 342
        0x00000d6a:    4814        .H      LDR      r0,[pc,#80] ; [0xdbc] = 0x1ffff01a
        0x00000d6c:    e000        ..      B        0xd70 ; LCD_Text_PrintChar + 344
        0x00000d6e:    4812        .H      LDR      r0,[pc,#72] ; [0xdb8] = 0x1ffff01d
        0x00000d70:    2101        .!      MOVS     r1,#1
        0x00000d72:    f000f8cb    ....    BL       LCD_Write_Rectangle_Pixel ; 0xf0c
        0x00000d76:    1c64        d.      ADDS     r4,r4,#1
        0x00000d78:    0876        v.      LSRS     r6,r6,#1
        0x00000d7a:    b2e4        ..      UXTB     r4,r4
        0x00000d7c:    1c7f        ..      ADDS     r7,r7,#1
        0x00000d7e:    42ac        .B      CMP      r4,r5
        0x00000d80:    d201        ..      BCS      0xd86 ; LCD_Text_PrintChar + 366
        0x00000d82:    2f08        ./      CMP      r7,#8
        0x00000d84:    d3ef        ..      BCC      0xd66 ; LCD_Text_PrintChar + 334
        0x00000d86:    9801        ..      LDR      r0,[sp,#4]
        0x00000d88:    1c40        @.      ADDS     r0,r0,#1
        0x00000d8a:    9001        ..      STR      r0,[sp,#4]
        0x00000d8c:    42ac        .B      CMP      r4,r5
        0x00000d8e:    d200        ..      BCS      0xd92 ; LCD_Text_PrintChar + 378
        0x00000d90:    e764        d.      B        0xc5c ; LCD_Text_PrintChar + 68
        0x00000d92:    4e08        .N      LDR      r6,[pc,#32] ; [0xdb4] = 0x1ffff018
        0x00000d94:    7830        0x      LDRB     r0,[r6,#0]
        0x00000d96:    4284        .B      CMP      r4,r0
        0x00000d98:    d203        ..      BCS      0xda2 ; LCD_Text_PrintChar + 394
        0x00000d9a:    1b01        ..      SUBS     r1,r0,r4
        0x00000d9c:    1d70        p.      ADDS     r0,r6,#5
        0x00000d9e:    f000f8b5    ....    BL       LCD_Write_Rectangle_Pixel ; 0xf0c
        0x00000da2:    9804        ..      LDR      r0,[sp,#0x10]
        0x00000da4:    1c40        @.      ADDS     r0,r0,#1
        0x00000da6:    9004        ..      STR      r0,[sp,#0x10]
        0x00000da8:    7871        qx      LDRB     r1,[r6,#1]
        0x00000daa:    4288        .B      CMP      r0,r1
        0x00000dac:    d200        ..      BCS      0xdb0 ; LCD_Text_PrintChar + 408
        0x00000dae:    e754        T.      B        0xc5a ; LCD_Text_PrintChar + 66
        0x00000db0:    b005        ..      ADD      sp,sp,#0x14
        0x00000db2:    bdf0        ..      POP      {r4-r7,pc}
    $d
        0x00000db4:    1ffff018    ....    DCD    536866840
        0x00000db8:    1ffff01d    ....    DCD    536866845
        0x00000dbc:    1ffff01a    ....    DCD    536866842
    $t
    i.LCD_Text_PrintStr
    LCD_Text_PrintStr
        0x00000dc0:    b570        p.      PUSH     {r4-r6,lr}
        0x00000dc2:    4605        .F      MOV      r5,r0
        0x00000dc4:    7808        .x      LDRB     r0,[r1,#0]
        0x00000dc6:    460c        .F      MOV      r4,r1
        0x00000dc8:    2800        .(      CMP      r0,#0
        0x00000dca:    d016        ..      BEQ      0xdfa ; LCD_Text_PrintStr + 58
        0x00000dcc:    4e0e        .N      LDR      r6,[pc,#56] ; [0xe08] = 0x1ffff018
        0x00000dce:    b2c1        ..      UXTB     r1,r0
        0x00000dd0:    4628        (F      MOV      r0,r5
        0x00000dd2:    f7ffff21    ..!.    BL       LCD_Text_PrintChar ; 0xc18
        0x00000dd6:    7820         x      LDRB     r0,[r4,#0]
        0x00000dd8:    2820         (      CMP      r0,#0x20
        0x00000dda:    d00f        ..      BEQ      0xdfc ; LCD_Text_PrintStr + 60
        0x00000ddc:    68f1        .h      LDR      r1,[r6,#0xc]
        0x00000dde:    7889        .x      LDRB     r1,[r1,#2]
        0x00000de0:    1a40        @.      SUBS     r0,r0,r1
        0x00000de2:    0600        ..      LSLS     r0,r0,#24
        0x00000de4:    6931        1i      LDR      r1,[r6,#0x10]
        0x00000de6:    0d80        ..      LSRS     r0,r0,#22
        0x00000de8:    5c08        .\      LDRB     r0,[r1,r0]
        0x00000dea:    6829        )h      LDR      r1,[r5,#0]
        0x00000dec:    1c40        @.      ADDS     r0,r0,#1
        0x00000dee:    1840        @.      ADDS     r0,r0,r1
        0x00000df0:    6028        (`      STR      r0,[r5,#0]
        0x00000df2:    7860        `x      LDRB     r0,[r4,#1]
        0x00000df4:    1c64        d.      ADDS     r4,r4,#1
        0x00000df6:    2800        .(      CMP      r0,#0
        0x00000df8:    d1e9        ..      BNE      0xdce ; LCD_Text_PrintStr + 14
        0x00000dfa:    bd70        p.      POP      {r4-r6,pc}
        0x00000dfc:    7831        1x      LDRB     r1,[r6,#0]
        0x00000dfe:    6828        (h      LDR      r0,[r5,#0]
        0x00000e00:    1840        @.      ADDS     r0,r0,r1
        0x00000e02:    6028        (`      STR      r0,[r5,#0]
        0x00000e04:    e7f5        ..      B        0xdf2 ; LCD_Text_PrintStr + 50
    $d
        0x00000e06:    0000        ..      DCW    0
        0x00000e08:    1ffff018    ....    DCD    536866840
    $t
    i.LCD_Text_PrintStr_RC
    LCD_Text_PrintStr_RC
        0x00000e0c:    b530        0.      PUSH     {r4,r5,lr}
        0x00000e0e:    4d14        .M      LDR      r5,[pc,#80] ; [0xe60] = 0x1ffff018
        0x00000e10:    4614        .F      MOV      r4,r2
        0x00000e12:    782a        *x      LDRB     r2,[r5,#0]
        0x00000e14:    b083        ..      SUB      sp,sp,#0xc
        0x00000e16:    4351        QC      MULS     r1,r2,r1
        0x00000e18:    9100        ..      STR      r1,[sp,#0]
        0x00000e1a:    7869        ix      LDRB     r1,[r5,#1]
        0x00000e1c:    4348        HC      MULS     r0,r1,r0
        0x00000e1e:    9001        ..      STR      r0,[sp,#4]
        0x00000e20:    7820         x      LDRB     r0,[r4,#0]
        0x00000e22:    2800        .(      CMP      r0,#0
        0x00000e24:    d015        ..      BEQ      0xe52 ; LCD_Text_PrintStr_RC + 70
        0x00000e26:    b2c1        ..      UXTB     r1,r0
        0x00000e28:    4668        hF      MOV      r0,sp
        0x00000e2a:    f7fffef5    ....    BL       LCD_Text_PrintChar ; 0xc18
        0x00000e2e:    7820         x      LDRB     r0,[r4,#0]
        0x00000e30:    2820         (      CMP      r0,#0x20
        0x00000e32:    d010        ..      BEQ      0xe56 ; LCD_Text_PrintStr_RC + 74
        0x00000e34:    68e9        .h      LDR      r1,[r5,#0xc]
        0x00000e36:    7889        .x      LDRB     r1,[r1,#2]
        0x00000e38:    1a40        @.      SUBS     r0,r0,r1
        0x00000e3a:    0600        ..      LSLS     r0,r0,#24
        0x00000e3c:    6929        )i      LDR      r1,[r5,#0x10]
        0x00000e3e:    0d80        ..      LSRS     r0,r0,#22
        0x00000e40:    5c08        .\      LDRB     r0,[r1,r0]
        0x00000e42:    9900        ..      LDR      r1,[sp,#0]
        0x00000e44:    1c40        @.      ADDS     r0,r0,#1
        0x00000e46:    1840        @.      ADDS     r0,r0,r1
        0x00000e48:    9000        ..      STR      r0,[sp,#0]
        0x00000e4a:    7860        `x      LDRB     r0,[r4,#1]
        0x00000e4c:    1c64        d.      ADDS     r4,r4,#1
        0x00000e4e:    2800        .(      CMP      r0,#0
        0x00000e50:    d1e9        ..      BNE      0xe26 ; LCD_Text_PrintStr_RC + 26
        0x00000e52:    b003        ..      ADD      sp,sp,#0xc
        0x00000e54:    bd30        0.      POP      {r4,r5,pc}
        0x00000e56:    7828        (x      LDRB     r0,[r5,#0]
        0x00000e58:    9900        ..      LDR      r1,[sp,#0]
        0x00000e5a:    1808        ..      ADDS     r0,r1,r0
        0x00000e5c:    e7f4        ..      B        0xe48 ; LCD_Text_PrintStr_RC + 60
    $d
        0x00000e5e:    0000        ..      DCW    0
        0x00000e60:    1ffff018    ....    DCD    536866840
    $t
    i.LCD_Text_Set_Colors
    LCD_Text_Set_Colors
        0x00000e64:    4a07        .J      LDR      r2,[pc,#28] ; [0xe84] = 0x1ffff01a
        0x00000e66:    7803        .x      LDRB     r3,[r0,#0]
        0x00000e68:    7013        .p      STRB     r3,[r2,#0]
        0x00000e6a:    7843        Cx      LDRB     r3,[r0,#1]
        0x00000e6c:    7053        Sp      STRB     r3,[r2,#1]
        0x00000e6e:    7880        .x      LDRB     r0,[r0,#2]
        0x00000e70:    7090        .p      STRB     r0,[r2,#2]
        0x00000e72:    4805        .H      LDR      r0,[pc,#20] ; [0xe88] = 0x1ffff01d
        0x00000e74:    780a        .x      LDRB     r2,[r1,#0]
        0x00000e76:    7002        .p      STRB     r2,[r0,#0]
        0x00000e78:    784a        Jx      LDRB     r2,[r1,#1]
        0x00000e7a:    7042        Bp      STRB     r2,[r0,#1]
        0x00000e7c:    7889        .x      LDRB     r1,[r1,#2]
        0x00000e7e:    7081        .p      STRB     r1,[r0,#2]
        0x00000e80:    4770        pG      BX       lr
    $d
        0x00000e82:    0000        ..      DCW    0
        0x00000e84:    1ffff01a    ....    DCD    536866842
        0x00000e88:    1ffff01d    ....    DCD    536866845
    $t
    i.LCD_Write_Rectangle_N_Quad_Pixel_Components
    LCD_Write_Rectangle_N_Quad_Pixel_Components
        0x00000e8c:    b5ff        ..      PUSH     {r0-r7,lr}
        0x00000e8e:    4a1b        .J      LDR      r2,[pc,#108] ; [0xefc] = 0xf80ff080
        0x00000e90:    2501        .%      MOVS     r5,#1
        0x00000e92:    468e        .F      MOV      lr,r1
        0x00000e94:    4684        .F      MOV      r12,r0
        0x00000e96:    036d        m.      LSLS     r5,r5,#13
        0x00000e98:    4660        `F      MOV      r0,r12
        0x00000e9a:    c808        ..      LDM      r0!,{r3}
        0x00000e9c:    4684        .F      MOV      r12,r0
        0x00000e9e:    4670        pF      MOV      r0,lr
        0x00000ea0:    c810        ..      LDM      r0!,{r4}
        0x00000ea2:    4686        .F      MOV      lr,r0
        0x00000ea4:    9802        ..      LDR      r0,[sp,#8]
        0x00000ea6:    4e17        .N      LDR      r6,[pc,#92] ; [0xf04] = 0x7070707
        0x00000ea8:    c802        ..      LDM      r0!,{r1}
        0x00000eaa:    9002        ..      STR      r0,[sp,#8]
        0x00000eac:    4814        .H      LDR      r0,[pc,#80] ; [0xf00] = 0xf8f8f8f8
        0x00000eae:    08c9        ..      LSRS     r1,r1,#3
        0x00000eb0:    4003        .@      ANDS     r3,r3,r0
        0x00000eb2:    0960        `.      LSRS     r0,r4,#5
        0x00000eb4:    08a4        ..      LSRS     r4,r4,#2
        0x00000eb6:    4030        0@      ANDS     r0,r0,r6
        0x00000eb8:    4034        4@      ANDS     r4,r4,r6
        0x00000eba:    4e13        .N      LDR      r6,[pc,#76] ; [0xf08] = 0x1f1f1f1f
        0x00000ebc:    4303        .C      ORRS     r3,r3,r0
        0x00000ebe:    4031        1@      ANDS     r1,r1,r6
        0x00000ec0:    430c        .C      ORRS     r4,r4,r1
        0x00000ec2:    2600        .&      MOVS     r6,#0
        0x00000ec4:    21ff        .!      MOVS     r1,#0xff
        0x00000ec6:    00c9        ..      LSLS     r1,r1,#3
        0x00000ec8:    061f        ..      LSLS     r7,r3,#24
        0x00000eca:    0620         .      LSLS     r0,r4,#24
        0x00000ecc:    6091        .`      STR      r1,[r2,#8]
        0x00000ece:    0d7f        ..      LSRS     r7,r7,#21
        0x00000ed0:    6057        W`      STR      r7,[r2,#4]
        0x00000ed2:    6095        .`      STR      r5,[r2,#8]
        0x00000ed4:    6055        U`      STR      r5,[r2,#4]
        0x00000ed6:    6091        .`      STR      r1,[r2,#8]
        0x00000ed8:    0d47        G.      LSRS     r7,r0,#21
        0x00000eda:    6057        W`      STR      r7,[r2,#4]
        0x00000edc:    6095        .`      STR      r5,[r2,#8]
        0x00000ede:    6055        U`      STR      r5,[r2,#4]
        0x00000ee0:    1c76        v.      ADDS     r6,r6,#1
        0x00000ee2:    0a1b        ..      LSRS     r3,r3,#8
        0x00000ee4:    0a24        $.      LSRS     r4,r4,#8
        0x00000ee6:    b2f6        ..      UXTB     r6,r6
        0x00000ee8:    2e04        ..      CMP      r6,#4
        0x00000eea:    d3ed        ..      BCC      0xec8 ; LCD_Write_Rectangle_N_Quad_Pixel_Components + 60
        0x00000eec:    9803        ..      LDR      r0,[sp,#0xc]
        0x00000eee:    1e40        @.      SUBS     r0,r0,#1
        0x00000ef0:    9003        ..      STR      r0,[sp,#0xc]
        0x00000ef2:    2800        .(      CMP      r0,#0
        0x00000ef4:    dcd0        ..      BGT      0xe98 ; LCD_Write_Rectangle_N_Quad_Pixel_Components + 12
        0x00000ef6:    b004        ..      ADD      sp,sp,#0x10
        0x00000ef8:    bdf0        ..      POP      {r4-r7,pc}
    $d
        0x00000efa:    0000        ..      DCW    0
        0x00000efc:    f80ff080    ....    DCD    4161794176
        0x00000f00:    f8f8f8f8    ....    DCD    4177066232
        0x00000f04:    07070707    ....    DCD    117901063
        0x00000f08:    1f1f1f1f    ....    DCD    522133279
    $t
    i.LCD_Write_Rectangle_Pixel
    LCD_Write_Rectangle_Pixel
        0x00000f0c:    b470        p.      PUSH     {r4-r6}
        0x00000f0e:    7802        .x      LDRB     r2,[r0,#0]
        0x00000f10:    7843        Cx      LDRB     r3,[r0,#1]
        0x00000f12:    08d2        ..      LSRS     r2,r2,#3
        0x00000f14:    00d2        ..      LSLS     r2,r2,#3
        0x00000f16:    095c        \.      LSRS     r4,r3,#5
        0x00000f18:    4322        "C      ORRS     r2,r2,r4
        0x00000f1a:    241c        .$      MOVS     r4,#0x1c
        0x00000f1c:    7880        .x      LDRB     r0,[r0,#2]
        0x00000f1e:    4023        #@      ANDS     r3,r3,r4
        0x00000f20:    00dc        ..      LSLS     r4,r3,#3
        0x00000f22:    08c0        ..      LSRS     r0,r0,#3
        0x00000f24:    4304        .C      ORRS     r4,r4,r0
        0x00000f26:    1e49        I.      SUBS     r1,r1,#1
        0x00000f28:    d310        ..      BCC      0xf4c ; LCD_Write_Rectangle_Pixel + 64
        0x00000f2a:    00d5        ..      LSLS     r5,r2,#3
        0x00000f2c:    23ff        .#      MOVS     r3,#0xff
        0x00000f2e:    2201        ."      MOVS     r2,#1
        0x00000f30:    00db        ..      LSLS     r3,r3,#3
        0x00000f32:    4807        .H      LDR      r0,[pc,#28] ; [0xf50] = 0xf80ff080
        0x00000f34:    0352        R.      LSLS     r2,r2,#13
        0x00000f36:    00e4        ..      LSLS     r4,r4,#3
        0x00000f38:    6083        .`      STR      r3,[r0,#8]
        0x00000f3a:    6045        E`      STR      r5,[r0,#4]
        0x00000f3c:    6082        .`      STR      r2,[r0,#8]
        0x00000f3e:    6042        B`      STR      r2,[r0,#4]
        0x00000f40:    6083        .`      STR      r3,[r0,#8]
        0x00000f42:    6044        D`      STR      r4,[r0,#4]
        0x00000f44:    6082        .`      STR      r2,[r0,#8]
        0x00000f46:    6042        B`      STR      r2,[r0,#4]
        0x00000f48:    1e49        I.      SUBS     r1,r1,#1
        0x00000f4a:    d2f5        ..      BCS      0xf38 ; LCD_Write_Rectangle_Pixel + 44
        0x00000f4c:    bc70        p.      POP      {r4-r6}
        0x00000f4e:    4770        pG      BX       lr
    $d
        0x00000f50:    f80ff080    ....    DCD    4161794176
    $t
    i.PIT_IRQHandler
    PIT_IRQHandler
        0x00000f54:    b510        ..      PUSH     {r4,lr}
        0x00000f56:    480b        .H      LDR      r0,[pc,#44] ; [0xf84] = 0x40037100
        0x00000f58:    68c1        .h      LDR      r1,[r0,#0xc]
        0x00000f5a:    07c9        ..      LSLS     r1,r1,#31
        0x00000f5c:    d00a        ..      BEQ      0xf74 ; PIT_IRQHandler + 32
        0x00000f5e:    68c1        .h      LDR      r1,[r0,#0xc]
        0x00000f60:    07c9        ..      LSLS     r1,r1,#31
        0x00000f62:    0fc9        ..      LSRS     r1,r1,#31
        0x00000f64:    60c1        .`      STR      r1,[r0,#0xc]
        0x00000f66:    4808        .H      LDR      r0,[pc,#32] ; [0xf88] = 0x1ffff000
        0x00000f68:    7800        .x      LDRB     r0,[r0,#0]
        0x00000f6a:    2800        .(      CMP      r0,#0
        0x00000f6c:    d001        ..      BEQ      0xf72 ; PIT_IRQHandler + 30
        0x00000f6e:    f000f875    ..u.    BL       Process_Profile_Sample ; 0x105c
        0x00000f72:    bd10        ..      POP      {r4,pc}
        0x00000f74:    69c1        .i      LDR      r1,[r0,#0x1c]
        0x00000f76:    07c9        ..      LSLS     r1,r1,#31
        0x00000f78:    d0fb        ..      BEQ      0xf72 ; PIT_IRQHandler + 30
        0x00000f7a:    69c1        .i      LDR      r1,[r0,#0x1c]
        0x00000f7c:    07c9        ..      LSLS     r1,r1,#31
        0x00000f7e:    0fc9        ..      LSRS     r1,r1,#31
        0x00000f80:    61c1        .a      STR      r1,[r0,#0x1c]
        0x00000f82:    bd10        ..      POP      {r4,pc}
    $d
        0x00000f84:    40037100    .q.@    DCD    1073967360
        0x00000f88:    1ffff000    ....    DCD    536866816
    $t
    i.PIT_Init
    PIT_Init
        0x00000f8c:    b410        ..      PUSH     {r4}
        0x00000f8e:    4912        .I      LDR      r1,[pc,#72] ; [0xfd8] = 0x40048000
        0x00000f90:    6bca        .k      LDR      r2,[r1,#0x3c]
        0x00000f92:    2301        .#      MOVS     r3,#1
        0x00000f94:    05db        ..      LSLS     r3,r3,#23
        0x00000f96:    431a        .C      ORRS     r2,r2,r3
        0x00000f98:    63ca        .c      STR      r2,[r1,#0x3c]
        0x00000f9a:    4910        .I      LDR      r1,[pc,#64] ; [0xfdc] = 0x40037000
        0x00000f9c:    680b        .h      LDR      r3,[r1,#0]
        0x00000f9e:    2202        ."      MOVS     r2,#2
        0x00000fa0:    4393        .C      BICS     r3,r3,r2
        0x00000fa2:    600b        .`      STR      r3,[r1,#0]
        0x00000fa4:    680b        .h      LDR      r3,[r1,#0]
        0x00000fa6:    2401        .$      MOVS     r4,#1
        0x00000fa8:    4323        #C      ORRS     r3,r3,r4
        0x00000faa:    600b        .`      STR      r3,[r1,#0]
        0x00000fac:    490c        .I      LDR      r1,[pc,#48] ; [0xfe0] = 0x40037100
        0x00000fae:    6008        .`      STR      r0,[r1,#0]
        0x00000fb0:    6888        .h      LDR      r0,[r1,#8]
        0x00000fb2:    2304        .#      MOVS     r3,#4
        0x00000fb4:    4018        .@      ANDS     r0,r0,r3
        0x00000fb6:    6088        .`      STR      r0,[r1,#8]
        0x00000fb8:    6888        .h      LDR      r0,[r1,#8]
        0x00000fba:    4310        .C      ORRS     r0,r0,r2
        0x00000fbc:    6088        .`      STR      r0,[r1,#8]
        0x00000fbe:    4909        .I      LDR      r1,[pc,#36] ; [0xfe4] = 0xe000e414
        0x00000fc0:    6808        .h      LDR      r0,[r1,#0]
        0x00000fc2:    22ff        ."      MOVS     r2,#0xff
        0x00000fc4:    0412        ..      LSLS     r2,r2,#16
        0x00000fc6:    4390        .C      BICS     r0,r0,r2
        0x00000fc8:    6008        .`      STR      r0,[r1,#0]
        0x00000fca:    4907        .I      LDR      r1,[pc,#28] ; [0xfe8] = 0xe000e280
        0x00000fcc:    0518        ..      LSLS     r0,r3,#20
        0x00000fce:    6008        .`      STR      r0,[r1,#0]
        0x00000fd0:    4906        .I      LDR      r1,[pc,#24] ; [0xfec] = 0xe000e100
        0x00000fd2:    6008        .`      STR      r0,[r1,#0]
        0x00000fd4:    bc10        ..      POP      {r4}
        0x00000fd6:    4770        pG      BX       lr
    $d
        0x00000fd8:    40048000    ...@    DCD    1074036736
        0x00000fdc:    40037000    .p.@    DCD    1073967104
        0x00000fe0:    40037100    .q.@    DCD    1073967360
        0x00000fe4:    e000e414    ....    DCD    3758154772
        0x00000fe8:    e000e280    ....    DCD    3758154368
        0x00000fec:    e000e100    ....    DCD    3758153984
    $t
    i.PWM_Init
    PWM_Init
        0x00000ff0:    b470        p.      PUSH     {r4-r6}
        0x00000ff2:    4c16        .L      LDR      r4,[pc,#88] ; [0x104c] = 0xbffc8000
        0x00000ff4:    1906        ..      ADDS     r6,r0,r4
        0x00000ff6:    4c16        .L      LDR      r4,[pc,#88] ; [0x1050] = 0x40048000
        0x00000ff8:    d01c        ..      BEQ      0x1034 ; PWM_Init + 68
        0x00000ffa:    2501        .%      MOVS     r5,#1
        0x00000ffc:    032d        -.      LSLS     r5,r5,#12
        0x00000ffe:    1b76        v.      SUBS     r6,r6,r5
        0x00001000:    d01e        ..      BEQ      0x1040 ; PWM_Init + 80
        0x00001002:    42ae        .B      CMP      r6,r5
        0x00001004:    d103        ..      BNE      0x100e ; PWM_Init + 30
        0x00001006:    6be5        .k      LDR      r5,[r4,#0x3c]
        0x00001008:    03b6        ..      LSLS     r6,r6,#14
        0x0000100a:    4335        5C      ORRS     r5,r5,r6
        0x0000100c:    63e5        .c      STR      r5,[r4,#0x3c]
        0x0000100e:    6865        eh      LDR      r5,[r4,#4]
        0x00001010:    4e10        .N      LDR      r6,[pc,#64] ; [0x1054] = 0x1010000
        0x00001012:    4335        5C      ORRS     r5,r5,r6
        0x00001014:    6065        e`      STR      r5,[r4,#4]
        0x00001016:    6082        .`      STR      r2,[r0,#8]
        0x00001018:    2228        ("      MOVS     r2,#0x28
        0x0000101a:    00c9        ..      LSLS     r1,r1,#3
        0x0000101c:    1809        ..      ADDS     r1,r1,r0
        0x0000101e:    60ca        .`      STR      r2,[r1,#0xc]
        0x00001020:    222b        +"      MOVS     r2,#0x2b
        0x00001022:    6002        .`      STR      r2,[r0,#0]
        0x00001024:    3080        .0      ADDS     r0,r0,#0x80
        0x00001026:    6842        Bh      LDR      r2,[r0,#4]
        0x00001028:    4c0b        .L      LDR      r4,[pc,#44] ; [0x1058] = 0xa0000c0
        0x0000102a:    4322        "C      ORRS     r2,r2,r4
        0x0000102c:    6042        B`      STR      r2,[r0,#4]
        0x0000102e:    610b        .a      STR      r3,[r1,#0x10]
        0x00001030:    bc70        p.      POP      {r4-r6}
        0x00001032:    4770        pG      BX       lr
        0x00001034:    6be5        .k      LDR      r5,[r4,#0x3c]
        0x00001036:    2601        .&      MOVS     r6,#1
        0x00001038:    0636        6.      LSLS     r6,r6,#24
        0x0000103a:    4335        5C      ORRS     r5,r5,r6
        0x0000103c:    63e5        .c      STR      r5,[r4,#0x3c]
        0x0000103e:    e7e6        ..      B        0x100e ; PWM_Init + 30
        0x00001040:    6be5        .k      LDR      r5,[r4,#0x3c]
        0x00001042:    2601        .&      MOVS     r6,#1
        0x00001044:    0676        v.      LSLS     r6,r6,#25
        0x00001046:    4335        5C      ORRS     r5,r5,r6
        0x00001048:    63e5        .c      STR      r5,[r4,#0x3c]
        0x0000104a:    e7e0        ..      B        0x100e ; PWM_Init + 30
    $d
        0x0000104c:    bffc8000    ....    DCD    3220996096
        0x00001050:    40048000    ...@    DCD    1074036736
        0x00001054:    01010000    ....    DCD    16842752
        0x00001058:    0a0000c0    ....    DCD    167772352
    $t
    i.Process_Profile_Sample
    Process_Profile_Sample
        0x0000105c:    b470        p.      PUSH     {r4-r6}
        0x0000105e:    f3ef8008    ....    MRS      r0,MSP
        0x00001062:    6ac1        .j      LDR      r1,[r0,#0x2c]
        0x00001064:    4815        .H      LDR      r0,[pc,#84] ; [0x10bc] = 0x1ffff000
        0x00001066:    6101        .a      STR      r1,[r0,#0x10]
        0x00001068:    68c1        .h      LDR      r1,[r0,#0xc]
        0x0000106a:    1c49        I.      ADDS     r1,r1,#1
        0x0000106c:    60c1        .`      STR      r1,[r0,#0xc]
        0x0000106e:    4d14        .M      LDR      r5,[pc,#80] ; [0x10c0] = 0x5a3c
        0x00001070:    2100        .!      MOVS     r1,#0
        0x00001072:    682a        *h      LDR      r2,[r5,#0]
        0x00001074:    2a00        .*      CMP      r2,#0
        0x00001076:    d916        ..      BLS      0x10a6 ; Process_Profile_Sample + 74
        0x00001078:    4e12        .N      LDR      r6,[pc,#72] ; [0x10c4] = 0x4afc
        0x0000107a:    014a        J.      LSLS     r2,r1,#5
        0x0000107c:    58b3        .X      LDR      r3,[r6,r2]
        0x0000107e:    6904        .i      LDR      r4,[r0,#0x10]
        0x00001080:    085b        [.      LSRS     r3,r3,#1
        0x00001082:    005b        [.      LSLS     r3,r3,#1
        0x00001084:    1992        ..      ADDS     r2,r2,r6
        0x00001086:    6852        Rh      LDR      r2,[r2,#4]
        0x00001088:    429c        .B      CMP      r4,r3
        0x0000108a:    d308        ..      BCC      0x109e ; Process_Profile_Sample + 66
        0x0000108c:    6903        .i      LDR      r3,[r0,#0x10]
        0x0000108e:    4293        .B      CMP      r3,r2
        0x00001090:    d805        ..      BHI      0x109e ; Process_Profile_Sample + 66
        0x00001092:    4c0d        .L      LDR      r4,[pc,#52] ; [0x10c8] = 0x1ffff2e0
        0x00001094:    008a        ..      LSLS     r2,r1,#2
        0x00001096:    58a3        .X      LDR      r3,[r4,r2]
        0x00001098:    1c5b        [.      ADDS     r3,r3,#1
        0x0000109a:    50a3        .P      STR      r3,[r4,r2]
        0x0000109c:    e003        ..      B        0x10a6 ; Process_Profile_Sample + 74
        0x0000109e:    682a        *h      LDR      r2,[r5,#0]
        0x000010a0:    1c49        I.      ADDS     r1,r1,#1
        0x000010a2:    4291        .B      CMP      r1,r2
        0x000010a4:    d3e9        ..      BCC      0x107a ; Process_Profile_Sample + 30
        0x000010a6:    682a        *h      LDR      r2,[r5,#0]
        0x000010a8:    4291        .B      CMP      r1,r2
        0x000010aa:    d104        ..      BNE      0x10b6 ; Process_Profile_Sample + 90
        0x000010ac:    6901        .i      LDR      r1,[r0,#0x10]
        0x000010ae:    6041        A`      STR      r1,[r0,#4]
        0x000010b0:    6881        .h      LDR      r1,[r0,#8]
        0x000010b2:    1c49        I.      ADDS     r1,r1,#1
        0x000010b4:    6081        .`      STR      r1,[r0,#8]
        0x000010b6:    bc70        p.      POP      {r4-r6}
        0x000010b8:    4770        pG      BX       lr
    $d
        0x000010ba:    0000        ..      DCW    0
        0x000010bc:    1ffff000    ....    DCD    536866816
        0x000010c0:    00005a3c    <Z..    DCD    23100
        0x000010c4:    00004afc    .J..    DCD    19196
        0x000010c8:    1ffff2e0    ....    DCD    536867552
    $t
    i.Q_Dequeue
    Q_Dequeue
        0x000010cc:    b510        ..      PUSH     {r4,lr}
        0x000010ce:    4601        .F      MOV      r1,r0
        0x000010d0:    2200        ."      MOVS     r2,#0
        0x000010d2:    f000f819    ....    BL       Q_Empty ; 0x1108
        0x000010d6:    2800        .(      CMP      r0,#0
        0x000010d8:    d114        ..      BNE      0x1104 ; Q_Dequeue + 56
        0x000010da:    680a        .h      LDR      r2,[r1,#0]
        0x000010dc:    4608        .F      MOV      r0,r1
        0x000010de:    300c        .0      ADDS     r0,r0,#0xc
        0x000010e0:    5c12        .\      LDRB     r2,[r2,r0]
        0x000010e2:    6808        .h      LDR      r0,[r1,#0]
        0x000010e4:    235f        _#      MOVS     r3,#0x5f
        0x000010e6:    180c        ..      ADDS     r4,r1,r0
        0x000010e8:    1c40        @.      ADDS     r0,r0,#1
        0x000010ea:    6008        .`      STR      r0,[r1,#0]
        0x000010ec:    7323        #s      STRB     r3,[r4,#0xc]
        0x000010ee:    6808        .h      LDR      r0,[r1,#0]
        0x000010f0:    b2c0        ..      UXTB     r0,r0
        0x000010f2:    6008        .`      STR      r0,[r1,#0]
        0x000010f4:    f3ef8010    ....    MRS      r0,PRIMASK
        0x000010f8:    b672        r.      CPSID    i
        0x000010fa:    688b        .h      LDR      r3,[r1,#8]
        0x000010fc:    1e5b        [.      SUBS     r3,r3,#1
        0x000010fe:    608b        .`      STR      r3,[r1,#8]
        0x00001100:    f3808810    ....    MSR      PRIMASK,r0
        0x00001104:    4610        .F      MOV      r0,r2
        0x00001106:    bd10        ..      POP      {r4,pc}
    i.Q_Empty
    Q_Empty
        0x00001108:    6880        .h      LDR      r0,[r0,#8]
        0x0000110a:    2800        .(      CMP      r0,#0
        0x0000110c:    d001        ..      BEQ      0x1112 ; Q_Empty + 10
        0x0000110e:    2000        .       MOVS     r0,#0
        0x00001110:    4770        pG      BX       lr
        0x00001112:    2001        .       MOVS     r0,#1
        0x00001114:    4770        pG      BX       lr
    i.Q_Enqueue
    Q_Enqueue
        0x00001116:    b500        ..      PUSH     {lr}
        0x00001118:    460b        .F      MOV      r3,r1
        0x0000111a:    4602        .F      MOV      r2,r0
        0x0000111c:    f000f816    ....    BL       Q_Full ; 0x114c
        0x00001120:    2800        .(      CMP      r0,#0
        0x00001122:    d001        ..      BEQ      0x1128 ; Q_Enqueue + 18
        0x00001124:    2000        .       MOVS     r0,#0
        0x00001126:    bd00        ..      POP      {pc}
        0x00001128:    6850        Ph      LDR      r0,[r2,#4]
        0x0000112a:    1811        ..      ADDS     r1,r2,r0
        0x0000112c:    1c40        @.      ADDS     r0,r0,#1
        0x0000112e:    6050        P`      STR      r0,[r2,#4]
        0x00001130:    730b        .s      STRB     r3,[r1,#0xc]
        0x00001132:    6850        Ph      LDR      r0,[r2,#4]
        0x00001134:    b2c0        ..      UXTB     r0,r0
        0x00001136:    6050        P`      STR      r0,[r2,#4]
        0x00001138:    f3ef8010    ....    MRS      r0,PRIMASK
        0x0000113c:    b672        r.      CPSID    i
        0x0000113e:    6891        .h      LDR      r1,[r2,#8]
        0x00001140:    1c49        I.      ADDS     r1,r1,#1
        0x00001142:    6091        .`      STR      r1,[r2,#8]
        0x00001144:    f3808810    ....    MSR      PRIMASK,r0
        0x00001148:    2001        .       MOVS     r0,#1
        0x0000114a:    bd00        ..      POP      {pc}
    i.Q_Full
    Q_Full
        0x0000114c:    6880        .h      LDR      r0,[r0,#8]
        0x0000114e:    1fc1        ..      SUBS     r1,r0,#7
        0x00001150:    39f9        .9      SUBS     r1,r1,#0xf9
        0x00001152:    d001        ..      BEQ      0x1158 ; Q_Full + 12
        0x00001154:    2000        .       MOVS     r0,#0
        0x00001156:    4770        pG      BX       lr
        0x00001158:    2001        .       MOVS     r0,#1
        0x0000115a:    4770        pG      BX       lr
    i.SD_Init
    SD_Init
        0x0000115c:    b5f0        ..      PUSH     {r4-r7,lr}
        0x0000115e:    4606        .F      MOV      r6,r0
        0x00001160:    2001        .       MOVS     r0,#1
        0x00001162:    497a        zI      LDR      r1,[pc,#488] ; [0x134c] = 0x400ff040
        0x00001164:    b083        ..      SUB      sp,sp,#0xc
        0x00001166:    0240        @.      LSLS     r0,r0,#9
        0x00001168:    6048        H`      STR      r0,[r1,#4]
        0x0000116a:    2200        ."      MOVS     r2,#0
        0x0000116c:    4617        .F      MOV      r7,r2
        0x0000116e:    9200        ..      STR      r2,[sp,#0]
        0x00001170:    f000f968    ..h.    BL       SPI_Init ; 0x1444
        0x00001174:    f000f950    ..P.    BL       SPI_CS_High ; 0x1418
        0x00001178:    f000f95e    ..^.    BL       SPI_Freq_High ; 0x1438
        0x0000117c:    2400        .$      MOVS     r4,#0
        0x0000117e:    20ff        .       MOVS     r0,#0xff
        0x00001180:    f000f98a    ....    BL       SPI_RW ; 0x1498
        0x00001184:    1c64        d.      ADDS     r4,r4,#1
        0x00001186:    b2e4        ..      UXTB     r4,r4
        0x00001188:    2c0a        .,      CMP      r4,#0xa
        0x0000118a:    d1f8        ..      BNE      0x117e ; SD_Init + 34
        0x0000118c:    20ff        .       MOVS     r0,#0xff
        0x0000118e:    30f5        .0      ADDS     r0,r0,#0xf5
        0x00001190:    f000f9ce    ....    BL       SPI_Timer_On ; 0x1530
        0x00001194:    f000f9de    ....    BL       SPI_Timer_Status ; 0x1554
        0x00001198:    2801        .(      CMP      r0,#1
        0x0000119a:    d106        ..      BNE      0x11aa ; SD_Init + 78
        0x0000119c:    4d6b        kM      LDR      r5,[pc,#428] ; [0x134c] = 0x400ff040
        0x0000119e:    0244        D.      LSLS     r4,r0,#9
        0x000011a0:    60ec        .`      STR      r4,[r5,#0xc]
        0x000011a2:    f000f9d7    ....    BL       SPI_Timer_Status ; 0x1554
        0x000011a6:    2801        .(      CMP      r0,#1
        0x000011a8:    d0fa        ..      BEQ      0x11a0 ; SD_Init + 68
        0x000011aa:    2501        .%      MOVS     r5,#1
        0x000011ac:    4c67        gL      LDR      r4,[pc,#412] ; [0x134c] = 0x400ff040
        0x000011ae:    026d        m.      LSLS     r5,r5,#9
        0x000011b0:    6065        e`      STR      r5,[r4,#4]
        0x000011b2:    f000f9b7    ....    BL       SPI_Timer_Off ; 0x1524
        0x000011b6:    2000        .       MOVS     r0,#0
        0x000011b8:    7030        0p      STRB     r0,[r6,#0]
        0x000011ba:    20ff        .       MOVS     r0,#0xff
        0x000011bc:    30f5        .0      ADDS     r0,r0,#0xf5
        0x000011be:    f000f9b7    ....    BL       SPI_Timer_On ; 0x1530
        0x000011c2:    e000        ..      B        0x11c6 ; SD_Init + 106
        0x000011c4:    60e5        .`      STR      r5,[r4,#0xc]
        0x000011c6:    2100        .!      MOVS     r1,#0
        0x000011c8:    2040        @       MOVS     r0,#0x40
        0x000011ca:    f000fb63    ..c.    BL       __SD_Send_Cmd ; 0x1894
        0x000011ce:    2801        .(      CMP      r0,#1
        0x000011d0:    d003        ..      BEQ      0x11da ; SD_Init + 126
        0x000011d2:    f000f9bf    ....    BL       SPI_Timer_Status ; 0x1554
        0x000011d6:    2801        .(      CMP      r0,#1
        0x000011d8:    d0f4        ..      BEQ      0x11c4 ; SD_Init + 104
        0x000011da:    2001        .       MOVS     r0,#1
        0x000011dc:    495b        [I      LDR      r1,[pc,#364] ; [0x134c] = 0x400ff040
        0x000011de:    0240        @.      LSLS     r0,r0,#9
        0x000011e0:    6048        H`      STR      r0,[r1,#4]
        0x000011e2:    f000f99f    ....    BL       SPI_Timer_Off ; 0x1524
        0x000011e6:    2100        .!      MOVS     r1,#0
        0x000011e8:    2040        @       MOVS     r0,#0x40
        0x000011ea:    f000fb53    ..S.    BL       __SD_Send_Cmd ; 0x1894
        0x000011ee:    2801        .(      CMP      r0,#1
        0x000011f0:    d154        T.      BNE      0x129c ; SD_Init + 320
        0x000011f2:    21ff        .!      MOVS     r1,#0xff
        0x000011f4:    31ab        .1      ADDS     r1,r1,#0xab
        0x000011f6:    2048        H       MOVS     r0,#0x48
        0x000011f8:    f000fb4c    ..L.    BL       __SD_Send_Cmd ; 0x1894
        0x000011fc:    2801        .(      CMP      r0,#1
        0x000011fe:    d009        ..      BEQ      0x1214 ; SD_Init + 184
        0x00001200:    2100        .!      MOVS     r1,#0
        0x00001202:    20e9        .       MOVS     r0,#0xe9
        0x00001204:    f000fb46    ..F.    BL       __SD_Send_Cmd ; 0x1894
        0x00001208:    2801        .(      CMP      r0,#1
        0x0000120a:    d848        H.      BHI      0x129e ; SD_Init + 322
        0x0000120c:    2002        .       MOVS     r0,#2
        0x0000120e:    9000        ..      STR      r0,[sp,#0]
        0x00001210:    20e9        .       MOVS     r0,#0xe9
        0x00001212:    e047        G.      B        0x12a4 ; SD_Init + 328
        0x00001214:    2400        .$      MOVS     r4,#0
        0x00001216:    ad01        ..      ADD      r5,sp,#4
        0x00001218:    20ff        .       MOVS     r0,#0xff
        0x0000121a:    f000f93d    ..=.    BL       SPI_RW ; 0x1498
        0x0000121e:    5528        (U      STRB     r0,[r5,r4]
        0x00001220:    1c64        d.      ADDS     r4,r4,#1
        0x00001222:    b2e4        ..      UXTB     r4,r4
        0x00001224:    2c04        .,      CMP      r4,#4
        0x00001226:    d3f7        ..      BCC      0x1218 ; SD_Init + 188
        0x00001228:    4668        hF      MOV      r0,sp
        0x0000122a:    7980        .y      LDRB     r0,[r0,#6]
        0x0000122c:    2801        .(      CMP      r0,#1
        0x0000122e:    d163        c.      BNE      0x12f8 ; SD_Init + 412
        0x00001230:    4668        hF      MOV      r0,sp
        0x00001232:    79c0        .y      LDRB     r0,[r0,#7]
        0x00001234:    28aa        .(      CMP      r0,#0xaa
        0x00001236:    d15f        _.      BNE      0x12f8 ; SD_Init + 412
        0x00001238:    207d        }       MOVS     r0,#0x7d
        0x0000123a:    00c0        ..      LSLS     r0,r0,#3
        0x0000123c:    f000f978    ..x.    BL       SPI_Timer_On ; 0x1530
        0x00001240:    2401        .$      MOVS     r4,#1
        0x00001242:    0264        d.      LSLS     r4,r4,#9
        0x00001244:    e001        ..      B        0x124a ; SD_Init + 238
        0x00001246:    4841        AH      LDR      r0,[pc,#260] ; [0x134c] = 0x400ff040
        0x00001248:    60c4        .`      STR      r4,[r0,#0xc]
        0x0000124a:    f000f983    ....    BL       SPI_Timer_Status ; 0x1554
        0x0000124e:    2801        .(      CMP      r0,#1
        0x00001250:    d105        ..      BNE      0x125e ; SD_Init + 258
        0x00001252:    0781        ..      LSLS     r1,r0,#30
        0x00001254:    20e9        .       MOVS     r0,#0xe9
        0x00001256:    f000fb1d    ....    BL       __SD_Send_Cmd ; 0x1894
        0x0000125a:    2800        .(      CMP      r0,#0
        0x0000125c:    d1f3        ..      BNE      0x1246 ; SD_Init + 234
        0x0000125e:    483b        ;H      LDR      r0,[pc,#236] ; [0x134c] = 0x400ff040
        0x00001260:    6044        D`      STR      r4,[r0,#4]
        0x00001262:    f000f95f    .._.    BL       SPI_Timer_Off ; 0x1524
        0x00001266:    f000f975    ..u.    BL       SPI_Timer_Status ; 0x1554
        0x0000126a:    2801        .(      CMP      r0,#1
        0x0000126c:    d144        D.      BNE      0x12f8 ; SD_Init + 412
        0x0000126e:    2100        .!      MOVS     r1,#0
        0x00001270:    207a        z       MOVS     r0,#0x7a
        0x00001272:    f000fb0f    ....    BL       __SD_Send_Cmd ; 0x1894
        0x00001276:    2800        .(      CMP      r0,#0
        0x00001278:    d13e        >.      BNE      0x12f8 ; SD_Init + 412
        0x0000127a:    2400        .$      MOVS     r4,#0
        0x0000127c:    20ff        .       MOVS     r0,#0xff
        0x0000127e:    f000f90b    ....    BL       SPI_RW ; 0x1498
        0x00001282:    5528        (U      STRB     r0,[r5,r4]
        0x00001284:    1c64        d.      ADDS     r4,r4,#1
        0x00001286:    b2e4        ..      UXTB     r4,r4
        0x00001288:    2c04        .,      CMP      r4,#4
        0x0000128a:    d3f7        ..      BCC      0x127c ; SD_Init + 288
        0x0000128c:    4668        hF      MOV      r0,sp
        0x0000128e:    7900        .y      LDRB     r0,[r0,#4]
        0x00001290:    0640        @.      LSLS     r0,r0,#25
        0x00001292:    d501        ..      BPL      0x1298 ; SD_Init + 316
        0x00001294:    200c        .       MOVS     r0,#0xc
        0x00001296:    e000        ..      B        0x129a ; SD_Init + 318
        0x00001298:    2004        .       MOVS     r0,#4
        0x0000129a:    9000        ..      STR      r0,[sp,#0]
        0x0000129c:    e02c        ,.      B        0x12f8 ; SD_Init + 412
        0x0000129e:    2001        .       MOVS     r0,#1
        0x000012a0:    9000        ..      STR      r0,[sp,#0]
        0x000012a2:    2041        A       MOVS     r0,#0x41
        0x000012a4:    9002        ..      STR      r0,[sp,#8]
        0x000012a6:    20fa        .       MOVS     r0,#0xfa
        0x000012a8:    f000f942    ..B.    BL       SPI_Timer_On ; 0x1530
        0x000012ac:    4d27        'M      LDR      r5,[pc,#156] ; [0x134c] = 0x400ff040
        0x000012ae:    156c        l.      ASRS     r4,r5,#21
        0x000012b0:    e000        ..      B        0x12b4 ; SD_Init + 344
        0x000012b2:    60ec        .`      STR      r4,[r5,#0xc]
        0x000012b4:    f000f94e    ..N.    BL       SPI_Timer_Status ; 0x1554
        0x000012b8:    2801        .(      CMP      r0,#1
        0x000012ba:    d105        ..      BNE      0x12c8 ; SD_Init + 364
        0x000012bc:    2100        .!      MOVS     r1,#0
        0x000012be:    9802        ..      LDR      r0,[sp,#8]
        0x000012c0:    f000fae8    ....    BL       __SD_Send_Cmd ; 0x1894
        0x000012c4:    2800        .(      CMP      r0,#0
        0x000012c6:    d1f4        ..      BNE      0x12b2 ; SD_Init + 342
        0x000012c8:    606c        l`      STR      r4,[r5,#4]
        0x000012ca:    f000f92b    ..+.    BL       SPI_Timer_Off ; 0x1524
        0x000012ce:    f000f941    ..A.    BL       SPI_Timer_Status ; 0x1554
        0x000012d2:    2800        .(      CMP      r0,#0
        0x000012d4:    d100        ..      BNE      0x12d8 ; SD_Init + 380
        0x000012d6:    9000        ..      STR      r0,[sp,#0]
        0x000012d8:    2100        .!      MOVS     r1,#0
        0x000012da:    207b        {       MOVS     r0,#0x7b
        0x000012dc:    f000fada    ....    BL       __SD_Send_Cmd ; 0x1894
        0x000012e0:    2800        .(      CMP      r0,#0
        0x000012e2:    d001        ..      BEQ      0x12e8 ; SD_Init + 396
        0x000012e4:    2000        .       MOVS     r0,#0
        0x000012e6:    9000        ..      STR      r0,[sp,#0]
        0x000012e8:    4621        !F      MOV      r1,r4
        0x000012ea:    2050        P       MOVS     r0,#0x50
        0x000012ec:    f000fad2    ....    BL       __SD_Send_Cmd ; 0x1894
        0x000012f0:    2800        .(      CMP      r0,#0
        0x000012f2:    d001        ..      BEQ      0x12f8 ; SD_Init + 412
        0x000012f4:    2000        .       MOVS     r0,#0
        0x000012f6:    9000        ..      STR      r0,[sp,#0]
        0x000012f8:    1c7f        ..      ADDS     r7,r7,#1
        0x000012fa:    b2ff        ..      UXTB     r7,r7
        0x000012fc:    9800        ..      LDR      r0,[sp,#0]
        0x000012fe:    2f03        ./      CMP      r7,#3
        0x00001300:    d003        ..      BEQ      0x130a ; SD_Init + 430
        0x00001302:    2800        .(      CMP      r0,#0
        0x00001304:    d100        ..      BNE      0x1308 ; SD_Init + 428
        0x00001306:    e733        3.      B        0x1170 ; SD_Init + 20
        0x00001308:    e001        ..      B        0x130e ; SD_Init + 434
        0x0000130a:    2800        .(      CMP      r0,#0
        0x0000130c:    d015        ..      BEQ      0x133a ; SD_Init + 478
        0x0000130e:    7070        pp      STRB     r0,[r6,#1]
        0x00001310:    2001        .       MOVS     r0,#1
        0x00001312:    7030        0p      STRB     r0,[r6,#0]
        0x00001314:    4630        0F      MOV      r0,r6
        0x00001316:    f000fa55    ..U.    BL       __SD_Sectors ; 0x17c4
        0x0000131a:    1e40        @.      SUBS     r0,r0,#1
        0x0000131c:    6070        p`      STR      r0,[r6,#4]
        0x0000131e:    2000        .       MOVS     r0,#0
        0x00001320:    8130        0.      STRH     r0,[r6,#8]
        0x00001322:    8170        p.      STRH     r0,[r6,#0xa]
        0x00001324:    f000f888    ....    BL       SPI_Freq_High ; 0x1438
        0x00001328:    f000f8d4    ....    BL       SPI_Release ; 0x14d4
        0x0000132c:    2001        .       MOVS     r0,#1
        0x0000132e:    4907        .I      LDR      r1,[pc,#28] ; [0x134c] = 0x400ff040
        0x00001330:    0240        @.      LSLS     r0,r0,#9
        0x00001332:    6088        .`      STR      r0,[r1,#8]
        0x00001334:    2000        .       MOVS     r0,#0
        0x00001336:    b003        ..      ADD      sp,sp,#0xc
        0x00001338:    bdf0        ..      POP      {r4-r7,pc}
        0x0000133a:    f000f8cb    ....    BL       SPI_Release ; 0x14d4
        0x0000133e:    2001        .       MOVS     r0,#1
        0x00001340:    4902        .I      LDR      r1,[pc,#8] ; [0x134c] = 0x400ff040
        0x00001342:    0240        @.      LSLS     r0,r0,#9
        0x00001344:    6088        .`      STR      r0,[r1,#8]
        0x00001346:    2001        .       MOVS     r0,#1
        0x00001348:    b003        ..      ADD      sp,sp,#0xc
        0x0000134a:    bdf0        ..      POP      {r4-r7,pc}
    $d
        0x0000134c:    400ff040    @..@    DCD    1074786368
    $t
    i.SD_Read
    SD_Read
        0x00001350:    b5ff        ..      PUSH     {r0-r7,lr}
        0x00001352:    460d        .F      MOV      r5,r1
        0x00001354:    492e        .I      LDR      r1,[pc,#184] ; [0x1410] = 0x400ff040
        0x00001356:    b081        ..      SUB      sp,sp,#4
        0x00001358:    2004        .       MOVS     r0,#4
        0x0000135a:    461e        .F      MOV      r6,r3
        0x0000135c:    6048        H`      STR      r0,[r1,#4]
        0x0000135e:    2002        .       MOVS     r0,#2
        0x00001360:    9000        ..      STR      r0,[sp,#0]
        0x00001362:    9801        ..      LDR      r0,[sp,#4]
        0x00001364:    6840        @h      LDR      r0,[r0,#4]
        0x00001366:    4290        .B      CMP      r0,r2
        0x00001368:    d309        ..      BCC      0x137e ; SD_Read + 46
        0x0000136a:    980a        ..      LDR      r0,[sp,#0x28]
        0x0000136c:    2800        .(      CMP      r0,#0
        0x0000136e:    d006        ..      BEQ      0x137e ; SD_Read + 46
        0x00001370:    4611        .F      MOV      r1,r2
        0x00001372:    2051        Q       MOVS     r0,#0x51
        0x00001374:    f000fa8e    ....    BL       __SD_Send_Cmd ; 0x1894
        0x00001378:    2800        .(      CMP      r0,#0
        0x0000137a:    d006        ..      BEQ      0x138a ; SD_Read + 58
        0x0000137c:    e03b        ;.      B        0x13f6 ; SD_Read + 166
        0x0000137e:    4924        $I      LDR      r1,[pc,#144] ; [0x1410] = 0x400ff040
        0x00001380:    2004        .       MOVS     r0,#4
        0x00001382:    6088        .`      STR      r0,[r1,#8]
        0x00001384:    2003        .       MOVS     r0,#3
        0x00001386:    b005        ..      ADD      sp,sp,#0x14
        0x00001388:    bdf0        ..      POP      {r4-r7,pc}
        0x0000138a:    2064        d       MOVS     r0,#0x64
        0x0000138c:    f000f8d0    ....    BL       SPI_Timer_On ; 0x1530
        0x00001390:    4f1f        .O      LDR      r7,[pc,#124] ; [0x1410] = 0x400ff040
        0x00001392:    2004        .       MOVS     r0,#4
        0x00001394:    60f8        .`      STR      r0,[r7,#0xc]
        0x00001396:    20ff        .       MOVS     r0,#0xff
        0x00001398:    f000f87e    ..~.    BL       SPI_RW ; 0x1498
        0x0000139c:    4604        .F      MOV      r4,r0
        0x0000139e:    28ff        .(      CMP      r0,#0xff
        0x000013a0:    d007        ..      BEQ      0x13b2 ; SD_Read + 98
        0x000013a2:    4f1b        .O      LDR      r7,[pc,#108] ; [0x1410] = 0x400ff040
        0x000013a4:    2004        .       MOVS     r0,#4
        0x000013a6:    6078        x`      STR      r0,[r7,#4]
        0x000013a8:    f000f8bc    ....    BL       SPI_Timer_Off ; 0x1524
        0x000013ac:    2cfe        .,      CMP      r4,#0xfe
        0x000013ae:    d009        ..      BEQ      0x13c4 ; SD_Read + 116
        0x000013b0:    e021        !.      B        0x13f6 ; SD_Read + 166
        0x000013b2:    f000f8cf    ....    BL       SPI_Timer_Status ; 0x1554
        0x000013b6:    2801        .(      CMP      r0,#1
        0x000013b8:    d0eb        ..      BEQ      0x1392 ; SD_Read + 66
        0x000013ba:    2004        .       MOVS     r0,#4
        0x000013bc:    6078        x`      STR      r0,[r7,#4]
        0x000013be:    f000f8b1    ....    BL       SPI_Timer_Off ; 0x1524
        0x000013c2:    e018        ..      B        0x13f6 ; SD_Read + 166
        0x000013c4:    980a        ..      LDR      r0,[sp,#0x28]
        0x000013c6:    2400        .$      MOVS     r4,#0
        0x000013c8:    1837        7.      ADDS     r7,r6,r0
        0x000013ca:    4811        .H      LDR      r0,[pc,#68] ; [0x1410] = 0x400ff040
        0x000013cc:    2104        .!      MOVS     r1,#4
        0x000013ce:    60c1        .`      STR      r1,[r0,#0xc]
        0x000013d0:    20ff        .       MOVS     r0,#0xff
        0x000013d2:    f000f861    ..a.    BL       SPI_RW ; 0x1498
        0x000013d6:    42b4        .B      CMP      r4,r6
        0x000013d8:    d303        ..      BCC      0x13e2 ; SD_Read + 146
        0x000013da:    42a7        .B      CMP      r7,r4
        0x000013dc:    d901        ..      BLS      0x13e2 ; SD_Read + 146
        0x000013de:    7028        (p      STRB     r0,[r5,#0]
        0x000013e0:    1c6d        m.      ADDS     r5,r5,#1
        0x000013e2:    1c64        d.      ADDS     r4,r4,#1
        0x000013e4:    480b        .H      LDR      r0,[pc,#44] ; [0x1414] = 0x202
        0x000013e6:    b2a4        ..      UXTH     r4,r4
        0x000013e8:    4284        .B      CMP      r4,r0
        0x000013ea:    d3ee        ..      BCC      0x13ca ; SD_Read + 122
        0x000013ec:    4908        .I      LDR      r1,[pc,#32] ; [0x1410] = 0x400ff040
        0x000013ee:    2004        .       MOVS     r0,#4
        0x000013f0:    6048        H`      STR      r0,[r1,#4]
        0x000013f2:    2000        .       MOVS     r0,#0
        0x000013f4:    9000        ..      STR      r0,[sp,#0]
        0x000013f6:    f000f86d    ..m.    BL       SPI_Release ; 0x14d4
        0x000013fa:    9801        ..      LDR      r0,[sp,#4]
        0x000013fc:    9901        ..      LDR      r1,[sp,#4]
        0x000013fe:    8900        ..      LDRH     r0,[r0,#8]
        0x00001400:    1c40        @.      ADDS     r0,r0,#1
        0x00001402:    8108        ..      STRH     r0,[r1,#8]
        0x00001404:    4902        .I      LDR      r1,[pc,#8] ; [0x1410] = 0x400ff040
        0x00001406:    2004        .       MOVS     r0,#4
        0x00001408:    6088        .`      STR      r0,[r1,#8]
        0x0000140a:    9800        ..      LDR      r0,[sp,#0]
        0x0000140c:    b005        ..      ADD      sp,sp,#0x14
        0x0000140e:    bdf0        ..      POP      {r4-r7,pc}
    $d
        0x00001410:    400ff040    @..@    DCD    1074786368
        0x00001414:    00000202    ....    DCD    514
    $t
    i.SPI_CS_High
    SPI_CS_High
        0x00001418:    4802        .H      LDR      r0,[pc,#8] ; [0x1424] = 0x400ff100
        0x0000141a:    6801        .h      LDR      r1,[r0,#0]
        0x0000141c:    2210        ."      MOVS     r2,#0x10
        0x0000141e:    4311        .C      ORRS     r1,r1,r2
        0x00001420:    6001        .`      STR      r1,[r0,#0]
        0x00001422:    4770        pG      BX       lr
    $d
        0x00001424:    400ff100    ...@    DCD    1074786560
    $t
    i.SPI_CS_Low
    SPI_CS_Low
        0x00001428:    4802        .H      LDR      r0,[pc,#8] ; [0x1434] = 0x400ff100
        0x0000142a:    6801        .h      LDR      r1,[r0,#0]
        0x0000142c:    2210        ."      MOVS     r2,#0x10
        0x0000142e:    4391        .C      BICS     r1,r1,r2
        0x00001430:    6001        .`      STR      r1,[r0,#0]
        0x00001432:    4770        pG      BX       lr
    $d
        0x00001434:    400ff100    ...@    DCD    1074786560
    $t
    i.SPI_Freq_High
    SPI_Freq_High
        0x00001438:    4901        .I      LDR      r1,[pc,#4] ; [0x1440] = 0x40077000
        0x0000143a:    2001        .       MOVS     r0,#1
        0x0000143c:    7088        .p      STRB     r0,[r1,#2]
        0x0000143e:    4770        pG      BX       lr
    $d
        0x00001440:    40077000    .p.@    DCD    1074229248
    $t
    i.SPI_Init
    SPI_Init
        0x00001444:    480f        .H      LDR      r0,[pc,#60] ; [0x1484] = 0x40048000
        0x00001446:    6b81        .k      LDR      r1,[r0,#0x38]
        0x00001448:    2201        ."      MOVS     r2,#1
        0x0000144a:    0352        R.      LSLS     r2,r2,#13
        0x0000144c:    4311        .C      ORRS     r1,r1,r2
        0x0000144e:    6381        .c      STR      r1,[r0,#0x38]
        0x00001450:    6b41        Ak      LDR      r1,[r0,#0x34]
        0x00001452:    0292        ..      LSLS     r2,r2,#10
        0x00001454:    4311        .C      ORRS     r1,r1,r2
        0x00001456:    6341        Ac      STR      r1,[r0,#0x34]
        0x00001458:    21ff        .!      MOVS     r1,#0xff
        0x0000145a:    480b        .H      LDR      r0,[pc,#44] ; [0x1488] = 0x4004d000
        0x0000145c:    3141        A1      ADDS     r1,r1,#0x41
        0x0000145e:    6101        .a      STR      r1,[r0,#0x10]
        0x00001460:    490a        .I      LDR      r1,[pc,#40] ; [0x148c] = 0x400ff100
        0x00001462:    694a        Ji      LDR      r2,[r1,#0x14]
        0x00001464:    2310        .#      MOVS     r3,#0x10
        0x00001466:    431a        .C      ORRS     r2,r2,r3
        0x00001468:    614a        Ja      STR      r2,[r1,#0x14]
        0x0000146a:    2109        .!      MOVS     r1,#9
        0x0000146c:    0189        ..      LSLS     r1,r1,#6
        0x0000146e:    6081        .`      STR      r1,[r0,#8]
        0x00001470:    6041        A`      STR      r1,[r0,#4]
        0x00001472:    4907        .I      LDR      r1,[pc,#28] ; [0x1490] = 0x203
        0x00001474:    60c1        .`      STR      r1,[r0,#0xc]
        0x00001476:    4807        .H      LDR      r0,[pc,#28] ; [0x1494] = 0x40077000
        0x00001478:    21d0        .!      MOVS     r1,#0xd0
        0x0000147a:    7001        .p      STRB     r1,[r0,#0]
        0x0000147c:    2100        .!      MOVS     r1,#0
        0x0000147e:    7041        Ap      STRB     r1,[r0,#1]
        0x00001480:    70c1        .p      STRB     r1,[r0,#3]
        0x00001482:    4770        pG      BX       lr
    $d
        0x00001484:    40048000    ...@    DCD    1074036736
        0x00001488:    4004d000    ...@    DCD    1074057216
        0x0000148c:    400ff100    ...@    DCD    1074786560
        0x00001490:    00000203    ....    DCD    515
        0x00001494:    40077000    .p.@    DCD    1074229248
    $t
    i.SPI_RW
    SPI_RW
        0x00001498:    b410        ..      PUSH     {r4}
        0x0000149a:    4b0c        .K      LDR      r3,[pc,#48] ; [0x14cc] = 0x400ff040
        0x0000149c:    2202        ."      MOVS     r2,#2
        0x0000149e:    605a        Z`      STR      r2,[r3,#4]
        0x000014a0:    490b        .I      LDR      r1,[pc,#44] ; [0x14d0] = 0x40077000
        0x000014a2:    78cc        .x      LDRB     r4,[r1,#3]
        0x000014a4:    06a4        ..      LSLS     r4,r4,#26
        0x000014a6:    d403        ..      BMI      0x14b0 ; SPI_RW + 24
        0x000014a8:    60da        .`      STR      r2,[r3,#0xc]
        0x000014aa:    78cc        .x      LDRB     r4,[r1,#3]
        0x000014ac:    06a4        ..      LSLS     r4,r4,#26
        0x000014ae:    d5fb        ..      BPL      0x14a8 ; SPI_RW + 16
        0x000014b0:    605a        Z`      STR      r2,[r3,#4]
        0x000014b2:    7148        Hq      STRB     r0,[r1,#5]
        0x000014b4:    78c8        .x      LDRB     r0,[r1,#3]
        0x000014b6:    0600        ..      LSLS     r0,r0,#24
        0x000014b8:    d403        ..      BMI      0x14c2 ; SPI_RW + 42
        0x000014ba:    60da        .`      STR      r2,[r3,#0xc]
        0x000014bc:    78c8        .x      LDRB     r0,[r1,#3]
        0x000014be:    0600        ..      LSLS     r0,r0,#24
        0x000014c0:    d5fb        ..      BPL      0x14ba ; SPI_RW + 34
        0x000014c2:    609a        .`      STR      r2,[r3,#8]
        0x000014c4:    7948        Hy      LDRB     r0,[r1,#5]
        0x000014c6:    bc10        ..      POP      {r4}
        0x000014c8:    4770        pG      BX       lr
    $d
        0x000014ca:    0000        ..      DCW    0
        0x000014cc:    400ff040    @..@    DCD    1074786368
        0x000014d0:    40077000    .p.@    DCD    1074229248
    $t
    i.SPI_Release
    SPI_Release
        0x000014d4:    b430        0.      PUSH     {r4,r5}
        0x000014d6:    2501        .%      MOVS     r5,#1
        0x000014d8:    026d        m.      LSLS     r5,r5,#9
        0x000014da:    2202        ."      MOVS     r2,#2
        0x000014dc:    4b0f        .K      LDR      r3,[pc,#60] ; [0x151c] = 0x400ff040
        0x000014de:    4910        .I      LDR      r1,[pc,#64] ; [0x1520] = 0x40077000
        0x000014e0:    e003        ..      B        0x14ea ; SPI_Release + 22
        0x000014e2:    1e6d        m.      SUBS     r5,r5,#1
        0x000014e4:    042d        -.      LSLS     r5,r5,#16
        0x000014e6:    0c2d        -.      LSRS     r5,r5,#16
        0x000014e8:    d015        ..      BEQ      0x1516 ; SPI_Release + 66
        0x000014ea:    24ff        .$      MOVS     r4,#0xff
        0x000014ec:    605a        Z`      STR      r2,[r3,#4]
        0x000014ee:    78c8        .x      LDRB     r0,[r1,#3]
        0x000014f0:    0680        ..      LSLS     r0,r0,#26
        0x000014f2:    d403        ..      BMI      0x14fc ; SPI_Release + 40
        0x000014f4:    60da        .`      STR      r2,[r3,#0xc]
        0x000014f6:    78c8        .x      LDRB     r0,[r1,#3]
        0x000014f8:    0680        ..      LSLS     r0,r0,#26
        0x000014fa:    d5fb        ..      BPL      0x14f4 ; SPI_Release + 32
        0x000014fc:    605a        Z`      STR      r2,[r3,#4]
        0x000014fe:    714c        Lq      STRB     r4,[r1,#5]
        0x00001500:    78c8        .x      LDRB     r0,[r1,#3]
        0x00001502:    0600        ..      LSLS     r0,r0,#24
        0x00001504:    d403        ..      BMI      0x150e ; SPI_Release + 58
        0x00001506:    60da        .`      STR      r2,[r3,#0xc]
        0x00001508:    78c8        .x      LDRB     r0,[r1,#3]
        0x0000150a:    0600        ..      LSLS     r0,r0,#24
        0x0000150c:    d5fb        ..      BPL      0x1506 ; SPI_Release + 50
        0x0000150e:    609a        .`      STR      r2,[r3,#8]
        0x00001510:    7948        Hy      LDRB     r0,[r1,#5]
        0x00001512:    28ff        .(      CMP      r0,#0xff
        0x00001514:    d1e5        ..      BNE      0x14e2 ; SPI_Release + 14
        0x00001516:    bc30        0.      POP      {r4,r5}
        0x00001518:    4770        pG      BX       lr
    $d
        0x0000151a:    0000        ..      DCW    0
        0x0000151c:    400ff040    @..@    DCD    1074786368
        0x00001520:    40077000    .p.@    DCD    1074229248
    $t
    i.SPI_Timer_Off
    SPI_Timer_Off
        0x00001524:    4901        .I      LDR      r1,[pc,#4] ; [0x152c] = 0x40040000
        0x00001526:    2000        .       MOVS     r0,#0
        0x00001528:    6008        .`      STR      r0,[r1,#0]
        0x0000152a:    4770        pG      BX       lr
    $d
        0x0000152c:    40040000    ...@    DCD    1074003968
    $t
    i.SPI_Timer_On
    SPI_Timer_On
        0x00001530:    4906        .I      LDR      r1,[pc,#24] ; [0x154c] = 0x40048000
        0x00001532:    6b8b        .k      LDR      r3,[r1,#0x38]
        0x00001534:    2201        ."      MOVS     r2,#1
        0x00001536:    4313        .C      ORRS     r3,r3,r2
        0x00001538:    638b        .c      STR      r3,[r1,#0x38]
        0x0000153a:    4905        .I      LDR      r1,[pc,#20] ; [0x1550] = 0x40040000
        0x0000153c:    2300        .#      MOVS     r3,#0
        0x0000153e:    600b        .`      STR      r3,[r1,#0]
        0x00001540:    6088        .`      STR      r0,[r1,#8]
        0x00001542:    2005        .       MOVS     r0,#5
        0x00001544:    6048        H`      STR      r0,[r1,#4]
        0x00001546:    600a        .`      STR      r2,[r1,#0]
        0x00001548:    4770        pG      BX       lr
    $d
        0x0000154a:    0000        ..      DCW    0
        0x0000154c:    40048000    ...@    DCD    1074036736
        0x00001550:    40040000    ...@    DCD    1074003968
    $t
    i.SPI_Timer_Status
    SPI_Timer_Status
        0x00001554:    4802        .H      LDR      r0,[pc,#8] ; [0x1560] = 0x40040000
        0x00001556:    6800        .h      LDR      r0,[r0,#0]
        0x00001558:    0600        ..      LSLS     r0,r0,#24
        0x0000155a:    17c0        ..      ASRS     r0,r0,#31
        0x0000155c:    1c40        @.      ADDS     r0,r0,#1
        0x0000155e:    4770        pG      BX       lr
    $d
        0x00001560:    40040000    ...@    DCD    1074003968
    $t
    i.Sort_Profile_Regions
    Sort_Profile_Regions
        0x00001564:    4a25        %J      LDR      r2,[pc,#148] ; [0x15fc] = 0x5a3c
        0x00001566:    6810        .h      LDR      r0,[r2,#0]
        0x00001568:    2800        .(      CMP      r0,#0
        0x0000156a:    d046        F.      BEQ      0x15fa ; Sort_Profile_Regions + 150
        0x0000156c:    b4f0        ..      PUSH     {r4-r7}
        0x0000156e:    7814        .x      LDRB     r4,[r2,#0]
        0x00001570:    4923        #I      LDR      r1,[pc,#140] ; [0x1600] = 0x1ffff4c4
        0x00001572:    2000        .       MOVS     r0,#0
        0x00001574:    07e4        ..      LSLS     r4,r4,#31
        0x00001576:    d002        ..      BEQ      0x157e ; Sort_Profile_Regions + 26
        0x00001578:    6048        H`      STR      r0,[r1,#4]
        0x0000157a:    2001        .       MOVS     r0,#1
        0x0000157c:    1d09        ..      ADDS     r1,r1,#4
        0x0000157e:    6814        .h      LDR      r4,[r2,#0]
        0x00001580:    0864        d.      LSRS     r4,r4,#1
        0x00001582:    46a4        .F      MOV      r12,r4
        0x00001584:    d00c        ..      BEQ      0x15a0 ; Sort_Profile_Regions + 60
        0x00001586:    1c44        D.      ADDS     r4,r0,#1
        0x00001588:    608c        .`      STR      r4,[r1,#8]
        0x0000158a:    6048        H`      STR      r0,[r1,#4]
        0x0000158c:    4664        dF      MOV      r4,r12
        0x0000158e:    1e64        d.      SUBS     r4,r4,#1
        0x00001590:    1c80        ..      ADDS     r0,r0,#2
        0x00001592:    3108        .1      ADDS     r1,r1,#8
        0x00001594:    46a4        .F      MOV      r12,r4
        0x00001596:    2c00        .,      CMP      r4,#0
        0x00001598:    d1f5        ..      BNE      0x1586 ; Sort_Profile_Regions + 34
        0x0000159a:    6810        .h      LDR      r0,[r2,#0]
        0x0000159c:    2800        .(      CMP      r0,#0
        0x0000159e:    d02a        *.      BEQ      0x15f6 ; Sort_Profile_Regions + 146
        0x000015a0:    6810        .h      LDR      r0,[r2,#0]
        0x000015a2:    2800        .(      CMP      r0,#0
        0x000015a4:    d927        '.      BLS      0x15f6 ; Sort_Profile_Regions + 146
        0x000015a6:    4917        .I      LDR      r1,[pc,#92] ; [0x1604] = 0x1ffff2e0
        0x000015a8:    4814        .H      LDR      r0,[pc,#80] ; [0x15fc] = 0x5a3c
        0x000015aa:    6802        .h      LDR      r2,[r0,#0]
        0x000015ac:    4660        `F      MOV      r0,r12
        0x000015ae:    1c40        @.      ADDS     r0,r0,#1
        0x000015b0:    4282        .B      CMP      r2,r0
        0x000015b2:    d919        ..      BLS      0x15e8 ; Sort_Profile_Regions + 132
        0x000015b4:    4a11        .J      LDR      r2,[pc,#68] ; [0x15fc] = 0x5a3c
        0x000015b6:    4660        `F      MOV      r0,r12
        0x000015b8:    6813        .h      LDR      r3,[r2,#0]
        0x000015ba:    1c40        @.      ADDS     r0,r0,#1
        0x000015bc:    4298        .B      CMP      r0,r3
        0x000015be:    d213        ..      BCS      0x15e8 ; Sort_Profile_Regions + 132
        0x000015c0:    4662        bF      MOV      r2,r12
        0x000015c2:    0094        ..      LSLS     r4,r2,#2
        0x000015c4:    4b10        .K      LDR      r3,[pc,#64] ; [0x1608] = 0x1ffff4c8
        0x000015c6:    591a        .Y      LDR      r2,[r3,r4]
        0x000015c8:    0095        ..      LSLS     r5,r2,#2
        0x000015ca:    594e        NY      LDR      r6,[r1,r5]
        0x000015cc:    0085        ..      LSLS     r5,r0,#2
        0x000015ce:    595b        [Y      LDR      r3,[r3,r5]
        0x000015d0:    009f        ..      LSLS     r7,r3,#2
        0x000015d2:    59cf        .Y      LDR      r7,[r1,r7]
        0x000015d4:    42be        .B      CMP      r6,r7
        0x000015d6:    d202        ..      BCS      0x15de ; Sort_Profile_Regions + 122
        0x000015d8:    4e0b        .N      LDR      r6,[pc,#44] ; [0x1608] = 0x1ffff4c8
        0x000015da:    5133        3Q      STR      r3,[r6,r4]
        0x000015dc:    5172        rQ      STR      r2,[r6,r5]
        0x000015de:    4a07        .J      LDR      r2,[pc,#28] ; [0x15fc] = 0x5a3c
        0x000015e0:    1c40        @.      ADDS     r0,r0,#1
        0x000015e2:    6812        .h      LDR      r2,[r2,#0]
        0x000015e4:    4290        .B      CMP      r0,r2
        0x000015e6:    d3ed        ..      BCC      0x15c4 ; Sort_Profile_Regions + 96
        0x000015e8:    4a04        .J      LDR      r2,[pc,#16] ; [0x15fc] = 0x5a3c
        0x000015ea:    4660        `F      MOV      r0,r12
        0x000015ec:    1c40        @.      ADDS     r0,r0,#1
        0x000015ee:    6812        .h      LDR      r2,[r2,#0]
        0x000015f0:    4684        .F      MOV      r12,r0
        0x000015f2:    4290        .B      CMP      r0,r2
        0x000015f4:    d3d8        ..      BCC      0x15a8 ; Sort_Profile_Regions + 68
        0x000015f6:    bcf0        ..      POP      {r4-r7}
        0x000015f8:    4770        pG      BX       lr
        0x000015fa:    4770        pG      BX       lr
    $d
        0x000015fc:    00005a3c    <Z..    DCD    23100
        0x00001600:    1ffff4c4    ....    DCD    536868036
        0x00001604:    1ffff2e0    ....    DCD    536867552
        0x00001608:    1ffff4c8    ....    DCD    536868040
    $t
    i.SystemInit
    SystemInit
        0x0000160c:    482d        -H      LDR      r0,[pc,#180] ; [0x16c4] = 0x40048100
        0x0000160e:    2200        ."      MOVS     r2,#0
        0x00001610:    6002        .`      STR      r2,[r0,#0]
        0x00001612:    482d        -H      LDR      r0,[pc,#180] ; [0x16c8] = 0x4007f000
        0x00001614:    7800        .x      LDRB     r0,[r0,#0]
        0x00001616:    07c0        ..      LSLS     r0,r0,#31
        0x00001618:    d007        ..      BEQ      0x162a ; SystemInit + 30
        0x0000161a:    482c        ,H      LDR      r0,[pc,#176] ; [0x16cc] = 0x4007d000
        0x0000161c:    7881        .x      LDRB     r1,[r0,#2]
        0x0000161e:    0709        ..      LSLS     r1,r1,#28
        0x00001620:    d503        ..      BPL      0x162a ; SystemInit + 30
        0x00001622:    7881        .x      LDRB     r1,[r0,#2]
        0x00001624:    2308        .#      MOVS     r3,#8
        0x00001626:    4319        .C      ORRS     r1,r1,r3
        0x00001628:    7081        .p      STRB     r1,[r0,#2]
        0x0000162a:    4929        )I      LDR      r1,[pc,#164] ; [0x16d0] = 0x4007e000
        0x0000162c:    202a        *       MOVS     r0,#0x2a
        0x0000162e:    7008        .p      STRB     r0,[r1,#0]
        0x00001630:    4929        )I      LDR      r1,[pc,#164] ; [0x16d8] = 0x40048040
        0x00001632:    4828        (H      LDR      r0,[pc,#160] ; [0x16d4] = 0x10010000
        0x00001634:    6048        H`      STR      r0,[r1,#4]
        0x00001636:    4829        )H      LDR      r0,[pc,#164] ; [0x16dc] = 0x40047000
        0x00001638:    6801        .h      LDR      r1,[r0,#0]
        0x0000163a:    2303        .#      MOVS     r3,#3
        0x0000163c:    049b        ..      LSLS     r3,r3,#18
        0x0000163e:    4319        .C      ORRS     r1,r1,r3
        0x00001640:    6001        .`      STR      r1,[r0,#0]
        0x00001642:    4827        'H      LDR      r0,[pc,#156] ; [0x16e0] = 0x40048000
        0x00001644:    6841        Ah      LDR      r1,[r0,#4]
        0x00001646:    2301        .#      MOVS     r3,#1
        0x00001648:    041b        ..      LSLS     r3,r3,#16
        0x0000164a:    4319        .C      ORRS     r1,r1,r3
        0x0000164c:    6041        A`      STR      r1,[r0,#4]
        0x0000164e:    6841        Ah      LDR      r1,[r0,#4]
        0x00001650:    2303        .#      MOVS     r3,#3
        0x00001652:    061b        ..      LSLS     r3,r3,#24
        0x00001654:    4399        .C      BICS     r1,r1,r3
        0x00001656:    2301        .#      MOVS     r3,#1
        0x00001658:    061b        ..      LSLS     r3,r3,#24
        0x0000165a:    18c9        ..      ADDS     r1,r1,r3
        0x0000165c:    6041        A`      STR      r1,[r0,#4]
        0x0000165e:    6b81        .k      LDR      r1,[r0,#0x38]
        0x00001660:    1543        C.      ASRS     r3,r0,#21
        0x00001662:    4319        .C      ORRS     r1,r1,r3
        0x00001664:    6381        .c      STR      r1,[r0,#0x38]
        0x00001666:    481f        .H      LDR      r0,[pc,#124] ; [0x16e4] = 0x40049040
        0x00001668:    6883        .h      LDR      r3,[r0,#8]
        0x0000166a:    491f        .I      LDR      r1,[pc,#124] ; [0x16e8] = 0xfefff8ff
        0x0000166c:    400b        .@      ANDS     r3,r3,r1
        0x0000166e:    6083        .`      STR      r3,[r0,#8]
        0x00001670:    68c3        .h      LDR      r3,[r0,#0xc]
        0x00001672:    400b        .@      ANDS     r3,r3,r1
        0x00001674:    60c3        .`      STR      r3,[r0,#0xc]
        0x00001676:    481d        .H      LDR      r0,[pc,#116] ; [0x16ec] = 0x40064000
        0x00001678:    7202        .r      STRB     r2,[r0,#8]
        0x0000167a:    2124        $!      MOVS     r1,#0x24
        0x0000167c:    7041        Ap      STRB     r1,[r0,#1]
        0x0000167e:    4b1c        .K      LDR      r3,[pc,#112] ; [0x16f0] = 0x40065000
        0x00001680:    2180        .!      MOVS     r1,#0x80
        0x00001682:    7019        .p      STRB     r1,[r3,#0]
        0x00001684:    219a        .!      MOVS     r1,#0x9a
        0x00001686:    7001        .p      STRB     r1,[r0,#0]
        0x00001688:    7981        .y      LDRB     r1,[r0,#6]
        0x0000168a:    0789        ..      LSLS     r1,r1,#30
        0x0000168c:    d5fc        ..      BPL      0x1688 ; SystemInit + 124
        0x0000168e:    7981        .y      LDRB     r1,[r0,#6]
        0x00001690:    06c9        ..      LSLS     r1,r1,#27
        0x00001692:    d4fc        ..      BMI      0x168e ; SystemInit + 130
        0x00001694:    78c1        .x      LDRB     r1,[r0,#3]
        0x00001696:    06c9        ..      LSLS     r1,r1,#27
        0x00001698:    0ec9        ..      LSRS     r1,r1,#27
        0x0000169a:    70c1        .p      STRB     r1,[r0,#3]
        0x0000169c:    2101        .!      MOVS     r1,#1
        0x0000169e:    7101        .q      STRB     r1,[r0,#4]
        0x000016a0:    7142        Bq      STRB     r2,[r0,#5]
        0x000016a2:    7941        Ay      LDRB     r1,[r0,#5]
        0x000016a4:    2240        @"      MOVS     r2,#0x40
        0x000016a6:    4311        .C      ORRS     r1,r1,r2
        0x000016a8:    7141        Aq      STRB     r1,[r0,#5]
        0x000016aa:    7981        .y      LDRB     r1,[r0,#6]
        0x000016ac:    0649        I.      LSLS     r1,r1,#25
        0x000016ae:    d5fc        ..      BPL      0x16aa ; SystemInit + 158
        0x000016b0:    7801        .x      LDRB     r1,[r0,#0]
        0x000016b2:    0689        ..      LSLS     r1,r1,#26
        0x000016b4:    0e89        ..      LSRS     r1,r1,#26
        0x000016b6:    7001        .p      STRB     r1,[r0,#0]
        0x000016b8:    7981        .y      LDRB     r1,[r0,#6]
        0x000016ba:    0709        ..      LSLS     r1,r1,#28
        0x000016bc:    0f89        ..      LSRS     r1,r1,#30
        0x000016be:    2903        .)      CMP      r1,#3
        0x000016c0:    d1fa        ..      BNE      0x16b8 ; SystemInit + 172
        0x000016c2:    4770        pG      BX       lr
    $d
        0x000016c4:    40048100    ...@    DCD    1074036992
        0x000016c8:    4007f000    ...@    DCD    1074262016
        0x000016cc:    4007d000    ...@    DCD    1074253824
        0x000016d0:    4007e000    ...@    DCD    1074257920
        0x000016d4:    10010000    ....    DCD    268500992
        0x000016d8:    40048040    @..@    DCD    1074036800
        0x000016dc:    40047000    .p.@    DCD    1074032640
        0x000016e0:    40048000    ...@    DCD    1074036736
        0x000016e4:    40049040    @..@    DCD    1074040896
        0x000016e8:    fefff8ff    ....    DCD    4278188287
        0x000016ec:    40064000    .@.@    DCD    1074151424
        0x000016f0:    40065000    .P.@    DCD    1074155520
    $t
    i.TPM0_IRQHandler
    TPM0_IRQHandler
        0x000016f4:    4802        .H      LDR      r0,[pc,#8] ; [0x1700] = 0x40038000
        0x000016f6:    6801        .h      LDR      r1,[r0,#0]
        0x000016f8:    2280        ."      MOVS     r2,#0x80
        0x000016fa:    4311        .C      ORRS     r1,r1,r2
        0x000016fc:    6001        .`      STR      r1,[r0,#0]
        0x000016fe:    4770        pG      BX       lr
    $d
        0x00001700:    40038000    ...@    DCD    1073971200
    $t
    i.UART0_IRQHandler
    UART0_IRQHandler
        0x00001704:    b570        p.      PUSH     {r4-r6,lr}
        0x00001706:    4c15        .L      LDR      r4,[pc,#84] ; [0x175c] = 0x4006a000
        0x00001708:    7920         y      LDRB     r0,[r4,#4]
        0x0000170a:    0700        ..      LSLS     r0,r0,#28
        0x0000170c:    d004        ..      BEQ      0x1718 ; UART0_IRQHandler + 20
        0x0000170e:    7920         y      LDRB     r0,[r4,#4]
        0x00001710:    210f        .!      MOVS     r1,#0xf
        0x00001712:    4308        .C      ORRS     r0,r0,r1
        0x00001714:    7120         q      STRB     r0,[r4,#4]
        0x00001716:    79e0        .y      LDRB     r0,[r4,#7]
        0x00001718:    7920         y      LDRB     r0,[r4,#4]
        0x0000171a:    0680        ..      LSLS     r0,r0,#26
        0x0000171c:    d509        ..      BPL      0x1732 ; UART0_IRQHandler + 46
        0x0000171e:    79e5        .y      LDRB     r5,[r4,#7]
        0x00001720:    480f        .H      LDR      r0,[pc,#60] ; [0x1760] = 0x1ffff1d4
        0x00001722:    f7fffd13    ....    BL       Q_Full ; 0x114c
        0x00001726:    2800        .(      CMP      r0,#0
        0x00001728:    d103        ..      BNE      0x1732 ; UART0_IRQHandler + 46
        0x0000172a:    4629        )F      MOV      r1,r5
        0x0000172c:    480c        .H      LDR      r0,[pc,#48] ; [0x1760] = 0x1ffff1d4
        0x0000172e:    f7fffcf2    ....    BL       Q_Enqueue ; 0x1116
        0x00001732:    78e0        .x      LDRB     r0,[r4,#3]
        0x00001734:    0600        ..      LSLS     r0,r0,#24
        0x00001736:    d50b        ..      BPL      0x1750 ; UART0_IRQHandler + 76
        0x00001738:    7920         y      LDRB     r0,[r4,#4]
        0x0000173a:    0600        ..      LSLS     r0,r0,#24
        0x0000173c:    d508        ..      BPL      0x1750 ; UART0_IRQHandler + 76
        0x0000173e:    4809        .H      LDR      r0,[pc,#36] ; [0x1764] = 0x1ffff0c8
        0x00001740:    f7fffce2    ....    BL       Q_Empty ; 0x1108
        0x00001744:    2800        .(      CMP      r0,#0
        0x00001746:    d004        ..      BEQ      0x1752 ; UART0_IRQHandler + 78
        0x00001748:    78e0        .x      LDRB     r0,[r4,#3]
        0x0000174a:    0640        @.      LSLS     r0,r0,#25
        0x0000174c:    0e40        @.      LSRS     r0,r0,#25
        0x0000174e:    70e0        .p      STRB     r0,[r4,#3]
        0x00001750:    bd70        p.      POP      {r4-r6,pc}
        0x00001752:    4804        .H      LDR      r0,[pc,#16] ; [0x1764] = 0x1ffff0c8
        0x00001754:    f7fffcba    ....    BL       Q_Dequeue ; 0x10cc
        0x00001758:    71e0        .q      STRB     r0,[r4,#7]
        0x0000175a:    bd70        p.      POP      {r4-r6,pc}
    $d
        0x0000175c:    4006a000    ...@    DCD    1074176000
        0x00001760:    1ffff1d4    ....    DCD    536867284
        0x00001764:    1ffff0c8    ....    DCD    536867016
    $t
    i.__0snprintf$6
    __0snprintf$6
    __1snprintf$6
    __2snprintf
        0x00001768:    b40f        ..      PUSH     {r0-r3}
        0x0000176a:    b51c        ..      PUSH     {r2-r4,lr}
        0x0000176c:    4602        .F      MOV      r2,r0
        0x0000176e:    2000        .       MOVS     r0,#0
        0x00001770:    ac07        ..      ADD      r4,sp,#0x1c
        0x00001772:    2900        .)      CMP      r1,#0
        0x00001774:    d00b        ..      BEQ      0x178e ; __0snprintf$6 + 38
        0x00001776:    1e49        I.      SUBS     r1,r1,#1
        0x00001778:    9101        ..      STR      r1,[sp,#4]
        0x0000177a:    9200        ..      STR      r2,[sp,#0]
        0x0000177c:    4b06        .K      LDR      r3,[pc,#24] ; [0x1798] = 0x1ca5
        0x0000177e:    466a        jF      MOV      r2,sp
        0x00001780:    4621        !F      MOV      r1,r4
        0x00001782:    9806        ..      LDR      r0,[sp,#0x18]
        0x00001784:    f000f8e6    ....    BL       _printf_core ; 0x1954
        0x00001788:    9a00        ..      LDR      r2,[sp,#0]
        0x0000178a:    2100        .!      MOVS     r1,#0
        0x0000178c:    7011        .p      STRB     r1,[r2,#0]
        0x0000178e:    bc1c        ..      POP      {r2-r4}
        0x00001790:    bc08        ..      POP      {r3}
        0x00001792:    b004        ..      ADD      sp,sp,#0x10
        0x00001794:    4718        .G      BX       r3
    $d
        0x00001796:    0000        ..      DCW    0
        0x00001798:    00001ca5    ....    DCD    7333
    $t
    i.__0sprintf$6
    __0sprintf$6
    __1sprintf$6
    __2sprintf
        0x0000179c:    b40f        ..      PUSH     {r0-r3}
        0x0000179e:    b510        ..      PUSH     {r4,lr}
        0x000017a0:    a904        ..      ADD      r1,sp,#0x10
        0x000017a2:    4b07        .K      LDR      r3,[pc,#28] ; [0x17c0] = 0x1cbb
        0x000017a4:    aa02        ..      ADD      r2,sp,#8
        0x000017a6:    9803        ..      LDR      r0,[sp,#0xc]
        0x000017a8:    f000f8d4    ....    BL       _printf_core ; 0x1954
        0x000017ac:    4604        .F      MOV      r4,r0
        0x000017ae:    a902        ..      ADD      r1,sp,#8
        0x000017b0:    2000        .       MOVS     r0,#0
        0x000017b2:    f000fa82    ....    BL       _sputc ; 0x1cba
        0x000017b6:    4620         F      MOV      r0,r4
        0x000017b8:    bc10        ..      POP      {r4}
        0x000017ba:    bc08        ..      POP      {r3}
        0x000017bc:    b004        ..      ADD      sp,sp,#0x10
        0x000017be:    4718        .G      BX       r3
    $d
        0x000017c0:    00001cbb    ....    DCD    7355
    $t
    i.__SD_Sectors
    __SD_Sectors
        0x000017c4:    b5f1        ..      PUSH     {r0,r4-r7,lr}
        0x000017c6:    2500        .%      MOVS     r5,#0
        0x000017c8:    b088        ..      SUB      sp,sp,#0x20
        0x000017ca:    462e        .F      MOV      r6,r5
        0x000017cc:    4629        )F      MOV      r1,r5
        0x000017ce:    2049        I       MOVS     r0,#0x49
        0x000017d0:    9506        ..      STR      r5,[sp,#0x18]
        0x000017d2:    f000f85f    .._.    BL       __SD_Send_Cmd ; 0x1894
        0x000017d6:    2800        .(      CMP      r0,#0
        0x000017d8:    d002        ..      BEQ      0x17e0 ; __SD_Sectors + 28
        0x000017da:    2000        .       MOVS     r0,#0
        0x000017dc:    b009        ..      ADD      sp,sp,#0x24
        0x000017de:    bdf0        ..      POP      {r4-r7,pc}
        0x000017e0:    20ff        .       MOVS     r0,#0xff
        0x000017e2:    f7fffe59    ..Y.    BL       SPI_RW ; 0x1498
        0x000017e6:    28ff        .(      CMP      r0,#0xff
        0x000017e8:    d0fa        ..      BEQ      0x17e0 ; __SD_Sectors + 28
        0x000017ea:    2400        .$      MOVS     r4,#0
        0x000017ec:    466f        oF      MOV      r7,sp
        0x000017ee:    20ff        .       MOVS     r0,#0xff
        0x000017f0:    f7fffe52    ..R.    BL       SPI_RW ; 0x1498
        0x000017f4:    5538        8U      STRB     r0,[r7,r4]
        0x000017f6:    1c64        d.      ADDS     r4,r4,#1
        0x000017f8:    b2e4        ..      UXTB     r4,r4
        0x000017fa:    2c10        .,      CMP      r4,#0x10
        0x000017fc:    d1f7        ..      BNE      0x17ee ; __SD_Sectors + 42
        0x000017fe:    20ff        .       MOVS     r0,#0xff
        0x00001800:    f7fffe4a    ..J.    BL       SPI_RW ; 0x1498
        0x00001804:    20ff        .       MOVS     r0,#0xff
        0x00001806:    f7fffe47    ..G.    BL       SPI_RW ; 0x1498
        0x0000180a:    f7fffe63    ..c.    BL       SPI_Release ; 0x14d4
        0x0000180e:    9808        ..      LDR      r0,[sp,#0x20]
        0x00001810:    7840        @x      LDRB     r0,[r0,#1]
        0x00001812:    0781        ..      LSLS     r1,r0,#30
        0x00001814:    d516        ..      BPL      0x1844 ; __SD_Sectors + 128
        0x00001816:    4669        iF      MOV      r1,sp
        0x00001818:    7948        Hy      LDRB     r0,[r1,#5]
        0x0000181a:    0700        ..      LSLS     r0,r0,#28
        0x0000181c:    0f00        ..      LSRS     r0,r0,#28
        0x0000181e:    9006        ..      STR      r0,[sp,#0x18]
        0x00001820:    7988        .y      LDRB     r0,[r1,#6]
        0x00001822:    79c9        .y      LDRB     r1,[r1,#7]
        0x00001824:    0780        ..      LSLS     r0,r0,#30
        0x00001826:    0d80        ..      LSRS     r0,r0,#22
        0x00001828:    4301        .C      ORRS     r1,r1,r0
        0x0000182a:    0088        ..      LSLS     r0,r1,#2
        0x0000182c:    4669        iF      MOV      r1,sp
        0x0000182e:    7a09        .z      LDRB     r1,[r1,#8]
        0x00001830:    098d        ..      LSRS     r5,r1,#6
        0x00001832:    4305        .C      ORRS     r5,r5,r0
        0x00001834:    4669        iF      MOV      r1,sp
        0x00001836:    7a48        Hz      LDRB     r0,[r1,#9]
        0x00001838:    7a89        .z      LDRB     r1,[r1,#0xa]
        0x0000183a:    0780        ..      LSLS     r0,r0,#30
        0x0000183c:    0f40        @.      LSRS     r0,r0,#29
        0x0000183e:    09ce        ..      LSRS     r6,r1,#7
        0x00001840:    4306        .C      ORRS     r6,r6,r0
        0x00001842:    e00b        ..      B        0x185c ; __SD_Sectors + 152
        0x00001844:    0740        @.      LSLS     r0,r0,#29
        0x00001846:    d509        ..      BPL      0x185c ; __SD_Sectors + 152
        0x00001848:    466a        jF      MOV      r2,sp
        0x0000184a:    79d0        .y      LDRB     r0,[r2,#7]
        0x0000184c:    7a55        Uz      LDRB     r5,[r2,#9]
        0x0000184e:    0201        ..      LSLS     r1,r0,#8
        0x00001850:    7a10        .z      LDRB     r0,[r2,#8]
        0x00001852:    4308        .C      ORRS     r0,r0,r1
        0x00001854:    0600        ..      LSLS     r0,r0,#24
        0x00001856:    0c00        ..      LSRS     r0,r0,#16
        0x00001858:    4305        .C      ORRS     r5,r5,r0
        0x0000185a:    2608        .&      MOVS     r6,#8
        0x0000185c:    2101        .!      MOVS     r1,#1
        0x0000185e:    1c6d        m.      ADDS     r5,r5,#1
        0x00001860:    1cb6        ..      ADDS     r6,r6,#2
        0x00001862:    d007        ..      BEQ      0x1874 ; __SD_Sectors + 176
        0x00001864:    07f0        ..      LSLS     r0,r6,#31
        0x00001866:    d000        ..      BEQ      0x186a ; __SD_Sectors + 166
        0x00001868:    2102        .!      MOVS     r1,#2
        0x0000186a:    0870        p.      LSRS     r0,r6,#1
        0x0000186c:    d002        ..      BEQ      0x1874 ; __SD_Sectors + 176
        0x0000186e:    0089        ..      LSLS     r1,r1,#2
        0x00001870:    1e40        @.      SUBS     r0,r0,#1
        0x00001872:    d1fc        ..      BNE      0x186e ; __SD_Sectors + 170
        0x00001874:    9a06        ..      LDR      r2,[sp,#0x18]
        0x00001876:    4369        iC      MULS     r1,r5,r1
        0x00001878:    2001        .       MOVS     r0,#1
        0x0000187a:    2a00        .*      CMP      r2,#0
        0x0000187c:    d007        ..      BEQ      0x188e ; __SD_Sectors + 202
        0x0000187e:    07d3        ..      LSLS     r3,r2,#31
        0x00001880:    d000        ..      BEQ      0x1884 ; __SD_Sectors + 192
        0x00001882:    2002        .       MOVS     r0,#2
        0x00001884:    0852        R.      LSRS     r2,r2,#1
        0x00001886:    d002        ..      BEQ      0x188e ; __SD_Sectors + 202
        0x00001888:    0080        ..      LSLS     r0,r0,#2
        0x0000188a:    1e52        R.      SUBS     r2,r2,#1
        0x0000188c:    d1fc        ..      BNE      0x1888 ; __SD_Sectors + 196
        0x0000188e:    4348        HC      MULS     r0,r1,r0
        0x00001890:    b009        ..      ADD      sp,sp,#0x24
        0x00001892:    bdf0        ..      POP      {r4-r7,pc}
    i.__SD_Send_Cmd
    __SD_Send_Cmd
        0x00001894:    b5f8        ..      PUSH     {r3-r7,lr}
        0x00001896:    24ff        .$      MOVS     r4,#0xff
        0x00001898:    4d25        %M      LDR      r5,[pc,#148] ; [0x1930] = 0x400ff040
        0x0000189a:    3401        .4      ADDS     r4,#1
        0x0000189c:    460f        .F      MOV      r7,r1
        0x0000189e:    4606        .F      MOV      r6,r0
        0x000018a0:    606c        l`      STR      r4,[r5,#4]
        0x000018a2:    0600        ..      LSLS     r0,r0,#24
        0x000018a4:    d509        ..      BPL      0x18ba ; __SD_Send_Cmd + 38
        0x000018a6:    0676        v.      LSLS     r6,r6,#25
        0x000018a8:    0e76        v.      LSRS     r6,r6,#25
        0x000018aa:    2100        .!      MOVS     r1,#0
        0x000018ac:    2077        w       MOVS     r0,#0x77
        0x000018ae:    f7fffff1    ....    BL       __SD_Send_Cmd ; 0x1894
        0x000018b2:    2801        .(      CMP      r0,#1
        0x000018b4:    d901        ..      BLS      0x18ba ; __SD_Send_Cmd + 38
        0x000018b6:    60ac        .`      STR      r4,[r5,#8]
        0x000018b8:    bdf8        ..      POP      {r3-r7,pc}
        0x000018ba:    f7fffdad    ....    BL       SPI_CS_High ; 0x1418
        0x000018be:    20ff        .       MOVS     r0,#0xff
        0x000018c0:    f7fffdea    ....    BL       SPI_RW ; 0x1498
        0x000018c4:    f7fffdb0    ....    BL       SPI_CS_Low ; 0x1428
        0x000018c8:    20ff        .       MOVS     r0,#0xff
        0x000018ca:    f7fffde5    ....    BL       SPI_RW ; 0x1498
        0x000018ce:    4630        0F      MOV      r0,r6
        0x000018d0:    f7fffde2    ....    BL       SPI_RW ; 0x1498
        0x000018d4:    0e38        8.      LSRS     r0,r7,#24
        0x000018d6:    f7fffddf    ....    BL       SPI_RW ; 0x1498
        0x000018da:    0238        8.      LSLS     r0,r7,#8
        0x000018dc:    0e00        ..      LSRS     r0,r0,#24
        0x000018de:    f7fffddb    ....    BL       SPI_RW ; 0x1498
        0x000018e2:    0438        8.      LSLS     r0,r7,#16
        0x000018e4:    0e00        ..      LSRS     r0,r0,#24
        0x000018e6:    f7fffdd7    ....    BL       SPI_RW ; 0x1498
        0x000018ea:    b2f8        ..      UXTB     r0,r7
        0x000018ec:    f7fffdd4    ....    BL       SPI_RW ; 0x1498
        0x000018f0:    2001        .       MOVS     r0,#1
        0x000018f2:    2e40        @.      CMP      r6,#0x40
        0x000018f4:    d002        ..      BEQ      0x18fc ; __SD_Send_Cmd + 104
        0x000018f6:    2e48        H.      CMP      r6,#0x48
        0x000018f8:    d002        ..      BEQ      0x1900 ; __SD_Send_Cmd + 108
        0x000018fa:    e002        ..      B        0x1902 ; __SD_Send_Cmd + 110
        0x000018fc:    2095        .       MOVS     r0,#0x95
        0x000018fe:    e000        ..      B        0x1902 ; __SD_Send_Cmd + 110
        0x00001900:    2087        .       MOVS     r0,#0x87
        0x00001902:    f7fffdc9    ....    BL       SPI_RW ; 0x1498
        0x00001906:    2005        .       MOVS     r0,#5
        0x00001908:    f7fffe12    ....    BL       SPI_Timer_On ; 0x1530
        0x0000190c:    60ec        .`      STR      r4,[r5,#0xc]
        0x0000190e:    20ff        .       MOVS     r0,#0xff
        0x00001910:    f7fffdc2    ....    BL       SPI_RW ; 0x1498
        0x00001914:    4606        .F      MOV      r6,r0
        0x00001916:    0600        ..      LSLS     r0,r0,#24
        0x00001918:    d503        ..      BPL      0x1922 ; __SD_Send_Cmd + 142
        0x0000191a:    f7fffe1b    ....    BL       SPI_Timer_Status ; 0x1554
        0x0000191e:    2801        .(      CMP      r0,#1
        0x00001920:    d0f4        ..      BEQ      0x190c ; __SD_Send_Cmd + 120
        0x00001922:    606c        l`      STR      r4,[r5,#4]
        0x00001924:    f7fffdfe    ....    BL       SPI_Timer_Off ; 0x1524
        0x00001928:    60ac        .`      STR      r4,[r5,#8]
        0x0000192a:    4630        0F      MOV      r0,r6
        0x0000192c:    bdf8        ..      POP      {r3-r7,pc}
    $d
        0x0000192e:    0000        ..      DCW    0
        0x00001930:    400ff040    @..@    DCD    1074786368
    $t
    i.__scatterload_copy
    __scatterload_copy
        0x00001934:    e002        ..      B        0x193c ; __scatterload_copy + 8
        0x00001936:    c808        ..      LDM      r0!,{r3}
        0x00001938:    1f12        ..      SUBS     r2,r2,#4
        0x0000193a:    c108        ..      STM      r1!,{r3}
        0x0000193c:    2a00        .*      CMP      r2,#0
        0x0000193e:    d1fa        ..      BNE      0x1936 ; __scatterload_copy + 2
        0x00001940:    4770        pG      BX       lr
    i.__scatterload_null
    __scatterload_null
        0x00001942:    4770        pG      BX       lr
    i.__scatterload_zeroinit
    __scatterload_zeroinit
        0x00001944:    2000        .       MOVS     r0,#0
        0x00001946:    e001        ..      B        0x194c ; __scatterload_zeroinit + 8
        0x00001948:    c101        ..      STM      r1!,{r0}
        0x0000194a:    1f12        ..      SUBS     r2,r2,#4
        0x0000194c:    2a00        .*      CMP      r2,#0
        0x0000194e:    d1fb        ..      BNE      0x1948 ; __scatterload_zeroinit + 4
        0x00001950:    4770        pG      BX       lr
        0x00001952:    0000        ..      MOVS     r0,r0
    i._printf_core
    _printf_core
        0x00001954:    b5ff        ..      PUSH     {r0-r7,lr}
        0x00001956:    b08f        ..      SUB      sp,sp,#0x3c
        0x00001958:    4605        .F      MOV      r5,r0
        0x0000195a:    2600        .&      MOVS     r6,#0
        0x0000195c:    e006        ..      B        0x196c ; _printf_core + 24
        0x0000195e:    2825        %(      CMP      r0,#0x25
        0x00001960:    d00a        ..      BEQ      0x1978 ; _printf_core + 36
        0x00001962:    9a12        ..      LDR      r2,[sp,#0x48]
        0x00001964:    9911        ..      LDR      r1,[sp,#0x44]
        0x00001966:    4790        .G      BLX      r2
        0x00001968:    1c6d        m.      ADDS     r5,r5,#1
        0x0000196a:    1c76        v.      ADDS     r6,r6,#1
        0x0000196c:    7828        (x      LDRB     r0,[r5,#0]
        0x0000196e:    2800        .(      CMP      r0,#0
        0x00001970:    d1f5        ..      BNE      0x195e ; _printf_core + 10
        0x00001972:    4630        0F      MOV      r0,r6
        0x00001974:    b013        ..      ADD      sp,sp,#0x4c
        0x00001976:    bdf0        ..      POP      {r4-r7,pc}
        0x00001978:    2400        .$      MOVS     r4,#0
        0x0000197a:    9402        ..      STR      r4,[sp,#8]
        0x0000197c:    2101        .!      MOVS     r1,#1
        0x0000197e:    4ab5        .J      LDR      r2,[pc,#724] ; [0x1c54] = 0x12809
        0x00001980:    9400        ..      STR      r4,[sp,#0]
        0x00001982:    e000        ..      B        0x1986 ; _printf_core + 50
        0x00001984:    4304        .C      ORRS     r4,r4,r0
        0x00001986:    1c6d        m.      ADDS     r5,r5,#1
        0x00001988:    782b        +x      LDRB     r3,[r5,#0]
        0x0000198a:    4608        .F      MOV      r0,r1
        0x0000198c:    3b20         ;      SUBS     r3,r3,#0x20
        0x0000198e:    4098        .@      LSLS     r0,r0,r3
        0x00001990:    4210        .B      TST      r0,r2
        0x00001992:    d1f7        ..      BNE      0x1984 ; _printf_core + 48
        0x00001994:    7828        (x      LDRB     r0,[r5,#0]
        0x00001996:    282a        *(      CMP      r0,#0x2a
        0x00001998:    d00e        ..      BEQ      0x19b8 ; _printf_core + 100
        0x0000199a:    2202        ."      MOVS     r2,#2
        0x0000199c:    7828        (x      LDRB     r0,[r5,#0]
        0x0000199e:    4601        .F      MOV      r1,r0
        0x000019a0:    3930        09      SUBS     r1,r1,#0x30
        0x000019a2:    2909        .)      CMP      r1,#9
        0x000019a4:    d816        ..      BHI      0x19d4 ; _printf_core + 128
        0x000019a6:    9902        ..      LDR      r1,[sp,#8]
        0x000019a8:    230a        .#      MOVS     r3,#0xa
        0x000019aa:    4359        YC      MULS     r1,r3,r1
        0x000019ac:    3930        09      SUBS     r1,r1,#0x30
        0x000019ae:    1840        @.      ADDS     r0,r0,r1
        0x000019b0:    4314        .C      ORRS     r4,r4,r2
        0x000019b2:    1c6d        m.      ADDS     r5,r5,#1
        0x000019b4:    9002        ..      STR      r0,[sp,#8]
        0x000019b6:    e7f1        ..      B        0x199c ; _printf_core + 72
        0x000019b8:    9810        ..      LDR      r0,[sp,#0x40]
        0x000019ba:    c802        ..      LDM      r0!,{r1}
        0x000019bc:    9102        ..      STR      r1,[sp,#8]
        0x000019be:    9010        ..      STR      r0,[sp,#0x40]
        0x000019c0:    2900        .)      CMP      r1,#0
        0x000019c2:    da04        ..      BGE      0x19ce ; _printf_core + 122
        0x000019c4:    2001        .       MOVS     r0,#1
        0x000019c6:    0340        @.      LSLS     r0,r0,#13
        0x000019c8:    4304        .C      ORRS     r4,r4,r0
        0x000019ca:    4248        HB      RSBS     r0,r1,#0
        0x000019cc:    9002        ..      STR      r0,[sp,#8]
        0x000019ce:    2002        .       MOVS     r0,#2
        0x000019d0:    4304        .C      ORRS     r4,r4,r0
        0x000019d2:    1c6d        m.      ADDS     r5,r5,#1
        0x000019d4:    7828        (x      LDRB     r0,[r5,#0]
        0x000019d6:    282e        .(      CMP      r0,#0x2e
        0x000019d8:    d117        ..      BNE      0x1a0a ; _printf_core + 182
        0x000019da:    2004        .       MOVS     r0,#4
        0x000019dc:    4304        .C      ORRS     r4,r4,r0
        0x000019de:    7868        hx      LDRB     r0,[r5,#1]
        0x000019e0:    1c6d        m.      ADDS     r5,r5,#1
        0x000019e2:    282a        *(      CMP      r0,#0x2a
        0x000019e4:    d10c        ..      BNE      0x1a00 ; _printf_core + 172
        0x000019e6:    9810        ..      LDR      r0,[sp,#0x40]
        0x000019e8:    1c6d        m.      ADDS     r5,r5,#1
        0x000019ea:    c802        ..      LDM      r0!,{r1}
        0x000019ec:    9100        ..      STR      r1,[sp,#0]
        0x000019ee:    9010        ..      STR      r0,[sp,#0x40]
        0x000019f0:    e00b        ..      B        0x1a0a ; _printf_core + 182
        0x000019f2:    9900        ..      LDR      r1,[sp,#0]
        0x000019f4:    220a        ."      MOVS     r2,#0xa
        0x000019f6:    4351        QC      MULS     r1,r2,r1
        0x000019f8:    3930        09      SUBS     r1,r1,#0x30
        0x000019fa:    1840        @.      ADDS     r0,r0,r1
        0x000019fc:    1c6d        m.      ADDS     r5,r5,#1
        0x000019fe:    9000        ..      STR      r0,[sp,#0]
        0x00001a00:    7828        (x      LDRB     r0,[r5,#0]
        0x00001a02:    4601        .F      MOV      r1,r0
        0x00001a04:    3930        09      SUBS     r1,r1,#0x30
        0x00001a06:    2909        .)      CMP      r1,#9
        0x00001a08:    d9f3        ..      BLS      0x19f2 ; _printf_core + 158
        0x00001a0a:    7828        (x      LDRB     r0,[r5,#0]
        0x00001a0c:    286c        l(      CMP      r0,#0x6c
        0x00001a0e:    d010        ..      BEQ      0x1a32 ; _printf_core + 222
        0x00001a10:    dc06        ..      BGT      0x1a20 ; _printf_core + 204
        0x00001a12:    284c        L(      CMP      r0,#0x4c
        0x00001a14:    d01a        ..      BEQ      0x1a4c ; _printf_core + 248
        0x00001a16:    2868        h(      CMP      r0,#0x68
        0x00001a18:    d00e        ..      BEQ      0x1a38 ; _printf_core + 228
        0x00001a1a:    286a        j(      CMP      r0,#0x6a
        0x00001a1c:    d117        ..      BNE      0x1a4e ; _printf_core + 250
        0x00001a1e:    e004        ..      B        0x1a2a ; _printf_core + 214
        0x00001a20:    2874        t(      CMP      r0,#0x74
        0x00001a22:    d013        ..      BEQ      0x1a4c ; _printf_core + 248
        0x00001a24:    287a        z(      CMP      r0,#0x7a
        0x00001a26:    d112        ..      BNE      0x1a4e ; _printf_core + 250
        0x00001a28:    e010        ..      B        0x1a4c ; _printf_core + 248
        0x00001a2a:    2001        .       MOVS     r0,#1
        0x00001a2c:    0540        @.      LSLS     r0,r0,#21
        0x00001a2e:    4304        .C      ORRS     r4,r4,r0
        0x00001a30:    e00c        ..      B        0x1a4c ; _printf_core + 248
        0x00001a32:    2101        .!      MOVS     r1,#1
        0x00001a34:    0509        ..      LSLS     r1,r1,#20
        0x00001a36:    e001        ..      B        0x1a3c ; _printf_core + 232
        0x00001a38:    2103        .!      MOVS     r1,#3
        0x00001a3a:    0509        ..      LSLS     r1,r1,#20
        0x00001a3c:    430c        .C      ORRS     r4,r4,r1
        0x00001a3e:    7869        ix      LDRB     r1,[r5,#1]
        0x00001a40:    4281        .B      CMP      r1,r0
        0x00001a42:    d103        ..      BNE      0x1a4c ; _printf_core + 248
        0x00001a44:    2001        .       MOVS     r0,#1
        0x00001a46:    0500        ..      LSLS     r0,r0,#20
        0x00001a48:    1824        $.      ADDS     r4,r4,r0
        0x00001a4a:    1c6d        m.      ADDS     r5,r5,#1
        0x00001a4c:    1c6d        m.      ADDS     r5,r5,#1
        0x00001a4e:    7828        (x      LDRB     r0,[r5,#0]
        0x00001a50:    2869        i(      CMP      r0,#0x69
        0x00001a52:    d074        t.      BEQ      0x1b3e ; _printf_core + 490
        0x00001a54:    dc06        ..      BGT      0x1a64 ; _printf_core + 272
        0x00001a56:    2800        .(      CMP      r0,#0
        0x00001a58:    d08b        ..      BEQ      0x1972 ; _printf_core + 30
        0x00001a5a:    2863        c(      CMP      r0,#0x63
        0x00001a5c:    d027        '.      BEQ      0x1aae ; _printf_core + 346
        0x00001a5e:    2864        d(      CMP      r0,#0x64
        0x00001a60:    d106        ..      BNE      0x1a70 ; _printf_core + 284
        0x00001a62:    e06c        l.      B        0x1b3e ; _printf_core + 490
        0x00001a64:    286e        n(      CMP      r0,#0x6e
        0x00001a66:    d008        ..      BEQ      0x1a7a ; _printf_core + 294
        0x00001a68:    2873        s(      CMP      r0,#0x73
        0x00001a6a:    d02c        ,.      BEQ      0x1ac6 ; _printf_core + 370
        0x00001a6c:    2875        u(      CMP      r0,#0x75
        0x00001a6e:    d078        x.      BEQ      0x1b62 ; _printf_core + 526
        0x00001a70:    9a12        ..      LDR      r2,[sp,#0x48]
        0x00001a72:    9911        ..      LDR      r1,[sp,#0x44]
        0x00001a74:    4790        .G      BLX      r2
        0x00001a76:    1c76        v.      ADDS     r6,r6,#1
        0x00001a78:    e05f        _.      B        0x1b3a ; _printf_core + 486
        0x00001a7a:    0260        `.      LSLS     r0,r4,#9
        0x00001a7c:    0f40        @.      LSRS     r0,r0,#29
        0x00001a7e:    2802        .(      CMP      r0,#2
        0x00001a80:    d009        ..      BEQ      0x1a96 ; _printf_core + 322
        0x00001a82:    2803        .(      CMP      r0,#3
        0x00001a84:    d00d        ..      BEQ      0x1aa2 ; _printf_core + 334
        0x00001a86:    2804        .(      CMP      r0,#4
        0x00001a88:    9810        ..      LDR      r0,[sp,#0x40]
        0x00001a8a:    6801        .h      LDR      r1,[r0,#0]
        0x00001a8c:    d00d        ..      BEQ      0x1aaa ; _printf_core + 342
        0x00001a8e:    600e        .`      STR      r6,[r1,#0]
        0x00001a90:    1d00        ..      ADDS     r0,r0,#4
        0x00001a92:    9010        ..      STR      r0,[sp,#0x40]
        0x00001a94:    e051        Q.      B        0x1b3a ; _printf_core + 486
        0x00001a96:    9810        ..      LDR      r0,[sp,#0x40]
        0x00001a98:    17f2        ..      ASRS     r2,r6,#31
        0x00001a9a:    6801        .h      LDR      r1,[r0,#0]
        0x00001a9c:    600e        .`      STR      r6,[r1,#0]
        0x00001a9e:    604a        J`      STR      r2,[r1,#4]
        0x00001aa0:    e7f6        ..      B        0x1a90 ; _printf_core + 316
        0x00001aa2:    9810        ..      LDR      r0,[sp,#0x40]
        0x00001aa4:    6801        .h      LDR      r1,[r0,#0]
        0x00001aa6:    800e        ..      STRH     r6,[r1,#0]
        0x00001aa8:    e7f2        ..      B        0x1a90 ; _printf_core + 316
        0x00001aaa:    700e        .p      STRB     r6,[r1,#0]
        0x00001aac:    e7f0        ..      B        0x1a90 ; _printf_core + 316
        0x00001aae:    9810        ..      LDR      r0,[sp,#0x40]
        0x00001ab0:    466a        jF      MOV      r2,sp
        0x00001ab2:    7801        .x      LDRB     r1,[r0,#0]
        0x00001ab4:    7311        .s      STRB     r1,[r2,#0xc]
        0x00001ab6:    1d00        ..      ADDS     r0,r0,#4
        0x00001ab8:    9010        ..      STR      r0,[sp,#0x40]
        0x00001aba:    2000        .       MOVS     r0,#0
        0x00001abc:    7350        Ps      STRB     r0,[r2,#0xd]
        0x00001abe:    a803        ..      ADD      r0,sp,#0xc
        0x00001ac0:    9001        ..      STR      r0,[sp,#4]
        0x00001ac2:    2001        .       MOVS     r0,#1
        0x00001ac4:    e005        ..      B        0x1ad2 ; _printf_core + 382
        0x00001ac6:    9810        ..      LDR      r0,[sp,#0x40]
        0x00001ac8:    c802        ..      LDM      r0!,{r1}
        0x00001aca:    9101        ..      STR      r1,[sp,#4]
        0x00001acc:    9010        ..      STR      r0,[sp,#0x40]
        0x00001ace:    2000        .       MOVS     r0,#0
        0x00001ad0:    43c0        .C      MVNS     r0,r0
        0x00001ad2:    0761        a.      LSLS     r1,r4,#29
        0x00001ad4:    d50c        ..      BPL      0x1af0 ; _printf_core + 412
        0x00001ad6:    2700        .'      MOVS     r7,#0
        0x00001ad8:    e000        ..      B        0x1adc ; _printf_core + 392
        0x00001ada:    1c7f        ..      ADDS     r7,r7,#1
        0x00001adc:    9900        ..      LDR      r1,[sp,#0]
        0x00001ade:    428f        .B      CMP      r7,r1
        0x00001ae0:    da0f        ..      BGE      0x1b02 ; _printf_core + 430
        0x00001ae2:    4287        .B      CMP      r7,r0
        0x00001ae4:    dbf9        ..      BLT      0x1ada ; _printf_core + 390
        0x00001ae6:    9901        ..      LDR      r1,[sp,#4]
        0x00001ae8:    5dc9        .]      LDRB     r1,[r1,r7]
        0x00001aea:    2900        .)      CMP      r1,#0
        0x00001aec:    d1f5        ..      BNE      0x1ada ; _printf_core + 390
        0x00001aee:    e008        ..      B        0x1b02 ; _printf_core + 430
        0x00001af0:    2700        .'      MOVS     r7,#0
        0x00001af2:    e000        ..      B        0x1af6 ; _printf_core + 418
        0x00001af4:    1c7f        ..      ADDS     r7,r7,#1
        0x00001af6:    4287        .B      CMP      r7,r0
        0x00001af8:    dbfc        ..      BLT      0x1af4 ; _printf_core + 416
        0x00001afa:    9901        ..      LDR      r1,[sp,#4]
        0x00001afc:    5dc9        .]      LDRB     r1,[r1,r7]
        0x00001afe:    2900        .)      CMP      r1,#0
        0x00001b00:    d1f8        ..      BNE      0x1af4 ; _printf_core + 416
        0x00001b02:    9802        ..      LDR      r0,[sp,#8]
        0x00001b04:    4621        !F      MOV      r1,r4
        0x00001b06:    1bc0        ..      SUBS     r0,r0,r7
        0x00001b08:    9002        ..      STR      r0,[sp,#8]
        0x00001b0a:    9b12        ..      LDR      r3,[sp,#0x48]
        0x00001b0c:    9a11        ..      LDR      r2,[sp,#0x44]
        0x00001b0e:    f000f8b3    ....    BL       _printf_pre_padding ; 0x1c78
        0x00001b12:    1980        ..      ADDS     r0,r0,r6
        0x00001b14:    19c6        ..      ADDS     r6,r0,r7
        0x00001b16:    e007        ..      B        0x1b28 ; _printf_core + 468
        0x00001b18:    9801        ..      LDR      r0,[sp,#4]
        0x00001b1a:    9901        ..      LDR      r1,[sp,#4]
        0x00001b1c:    7800        .x      LDRB     r0,[r0,#0]
        0x00001b1e:    1c49        I.      ADDS     r1,r1,#1
        0x00001b20:    9101        ..      STR      r1,[sp,#4]
        0x00001b22:    9a12        ..      LDR      r2,[sp,#0x48]
        0x00001b24:    9911        ..      LDR      r1,[sp,#0x44]
        0x00001b26:    4790        .G      BLX      r2
        0x00001b28:    1e7f        ..      SUBS     r7,r7,#1
        0x00001b2a:    d2f5        ..      BCS      0x1b18 ; _printf_core + 452
        0x00001b2c:    4621        !F      MOV      r1,r4
        0x00001b2e:    9b12        ..      LDR      r3,[sp,#0x48]
        0x00001b30:    9a11        ..      LDR      r2,[sp,#0x44]
        0x00001b32:    9802        ..      LDR      r0,[sp,#8]
        0x00001b34:    f000f890    ....    BL       _printf_post_padding ; 0x1c58
        0x00001b38:    1986        ..      ADDS     r6,r0,r6
        0x00001b3a:    1c6d        m.      ADDS     r5,r5,#1
        0x00001b3c:    e716        ..      B        0x196c ; _printf_core + 24
        0x00001b3e:    200a        .       MOVS     r0,#0xa
        0x00001b40:    9001        ..      STR      r0,[sp,#4]
        0x00001b42:    9910        ..      LDR      r1,[sp,#0x40]
        0x00001b44:    c901        ..      LDM      r1!,{r0}
        0x00001b46:    9110        ..      STR      r1,[sp,#0x40]
        0x00001b48:    0261        a.      LSLS     r1,r4,#9
        0x00001b4a:    0f49        I.      LSRS     r1,r1,#29
        0x00001b4c:    2903        .)      CMP      r1,#3
        0x00001b4e:    d100        ..      BNE      0x1b52 ; _printf_core + 510
        0x00001b50:    b200        ..      SXTH     r0,r0
        0x00001b52:    2904        .)      CMP      r1,#4
        0x00001b54:    d100        ..      BNE      0x1b58 ; _printf_core + 516
        0x00001b56:    b240        @.      SXTB     r0,r0
        0x00001b58:    2800        .(      CMP      r0,#0
        0x00001b5a:    da03        ..      BGE      0x1b64 ; _printf_core + 528
        0x00001b5c:    4240        @B      RSBS     r0,r0,#0
        0x00001b5e:    212d        -!      MOVS     r1,#0x2d
        0x00001b60:    e003        ..      B        0x1b6a ; _printf_core + 534
        0x00001b62:    e00d        ..      B        0x1b80 ; _printf_core + 556
        0x00001b64:    0521        !.      LSLS     r1,r4,#20
        0x00001b66:    d504        ..      BPL      0x1b72 ; _printf_core + 542
        0x00001b68:    212b        +!      MOVS     r1,#0x2b
        0x00001b6a:    466a        jF      MOV      r2,sp
        0x00001b6c:    7311        .s      STRB     r1,[r2,#0xc]
        0x00001b6e:    2101        .!      MOVS     r1,#1
        0x00001b70:    e003        ..      B        0x1b7a ; _printf_core + 550
        0x00001b72:    07e1        ..      LSLS     r1,r4,#31
        0x00001b74:    d011        ..      BEQ      0x1b9a ; _printf_core + 582
        0x00001b76:    2120         !      MOVS     r1,#0x20
        0x00001b78:    e7f7        ..      B        0x1b6a ; _printf_core + 534
        0x00001b7a:    af0c        ..      ADD      r7,sp,#0x30
        0x00001b7c:    910c        ..      STR      r1,[sp,#0x30]
        0x00001b7e:    e014        ..      B        0x1baa ; _printf_core + 598
        0x00001b80:    200a        .       MOVS     r0,#0xa
        0x00001b82:    9001        ..      STR      r0,[sp,#4]
        0x00001b84:    9910        ..      LDR      r1,[sp,#0x40]
        0x00001b86:    c901        ..      LDM      r1!,{r0}
        0x00001b88:    9110        ..      STR      r1,[sp,#0x40]
        0x00001b8a:    0261        a.      LSLS     r1,r4,#9
        0x00001b8c:    0f49        I.      LSRS     r1,r1,#29
        0x00001b8e:    2903        .)      CMP      r1,#3
        0x00001b90:    d100        ..      BNE      0x1b94 ; _printf_core + 576
        0x00001b92:    b280        ..      UXTH     r0,r0
        0x00001b94:    2904        .)      CMP      r1,#4
        0x00001b96:    d100        ..      BNE      0x1b9a ; _printf_core + 582
        0x00001b98:    b2c0        ..      UXTB     r0,r0
        0x00001b9a:    2100        .!      MOVS     r1,#0
        0x00001b9c:    e7ed        ..      B        0x1b7a ; _printf_core + 550
        0x00001b9e:    9901        ..      LDR      r1,[sp,#4]
        0x00001ba0:    f7fefaac    ....    BL       __aeabi_uidiv ; 0xfc
        0x00001ba4:    3130        01      ADDS     r1,r1,#0x30
        0x00001ba6:    1e7f        ..      SUBS     r7,r7,#1
        0x00001ba8:    7039        9p      STRB     r1,[r7,#0]
        0x00001baa:    2800        .(      CMP      r0,#0
        0x00001bac:    d1f7        ..      BNE      0x1b9e ; _printf_core + 586
        0x00001bae:    a804        ..      ADD      r0,sp,#0x10
        0x00001bb0:    1bc0        ..      SUBS     r0,r0,r7
        0x00001bb2:    3020         0      ADDS     r0,r0,#0x20
        0x00001bb4:    9001        ..      STR      r0,[sp,#4]
        0x00001bb6:    0760        `.      LSLS     r0,r4,#29
        0x00001bb8:    d504        ..      BPL      0x1bc4 ; _printf_core + 624
        0x00001bba:    2001        .       MOVS     r0,#1
        0x00001bbc:    0400        ..      LSLS     r0,r0,#16
        0x00001bbe:    4384        .C      BICS     r4,r4,r0
        0x00001bc0:    9800        ..      LDR      r0,[sp,#0]
        0x00001bc2:    e001        ..      B        0x1bc8 ; _printf_core + 628
        0x00001bc4:    2001        .       MOVS     r0,#1
        0x00001bc6:    9000        ..      STR      r0,[sp,#0]
        0x00001bc8:    9901        ..      LDR      r1,[sp,#4]
        0x00001bca:    4288        .B      CMP      r0,r1
        0x00001bcc:    dd01        ..      BLE      0x1bd2 ; _printf_core + 638
        0x00001bce:    1a40        @.      SUBS     r0,r0,r1
        0x00001bd0:    e000        ..      B        0x1bd4 ; _printf_core + 640
        0x00001bd2:    2000        .       MOVS     r0,#0
        0x00001bd4:    1841        A.      ADDS     r1,r0,r1
        0x00001bd6:    9000        ..      STR      r0,[sp,#0]
        0x00001bd8:    980c        ..      LDR      r0,[sp,#0x30]
        0x00001bda:    1809        ..      ADDS     r1,r1,r0
        0x00001bdc:    9802        ..      LDR      r0,[sp,#8]
        0x00001bde:    1a40        @.      SUBS     r0,r0,r1
        0x00001be0:    9002        ..      STR      r0,[sp,#8]
        0x00001be2:    03e0        ..      LSLS     r0,r4,#15
        0x00001be4:    d406        ..      BMI      0x1bf4 ; _printf_core + 672
        0x00001be6:    4621        !F      MOV      r1,r4
        0x00001be8:    9b12        ..      LDR      r3,[sp,#0x48]
        0x00001bea:    9a11        ..      LDR      r2,[sp,#0x44]
        0x00001bec:    9802        ..      LDR      r0,[sp,#8]
        0x00001bee:    f000f843    ..C.    BL       _printf_pre_padding ; 0x1c78
        0x00001bf2:    1986        ..      ADDS     r6,r0,r6
        0x00001bf4:    2000        .       MOVS     r0,#0
        0x00001bf6:    900d        ..      STR      r0,[sp,#0x34]
        0x00001bf8:    e008        ..      B        0x1c0c ; _printf_core + 696
        0x00001bfa:    a903        ..      ADD      r1,sp,#0xc
        0x00001bfc:    5c08        .\      LDRB     r0,[r1,r0]
        0x00001bfe:    9a12        ..      LDR      r2,[sp,#0x48]
        0x00001c00:    9911        ..      LDR      r1,[sp,#0x44]
        0x00001c02:    4790        .G      BLX      r2
        0x00001c04:    980d        ..      LDR      r0,[sp,#0x34]
        0x00001c06:    1c40        @.      ADDS     r0,r0,#1
        0x00001c08:    1c76        v.      ADDS     r6,r6,#1
        0x00001c0a:    900d        ..      STR      r0,[sp,#0x34]
        0x00001c0c:    990c        ..      LDR      r1,[sp,#0x30]
        0x00001c0e:    4288        .B      CMP      r0,r1
        0x00001c10:    dbf3        ..      BLT      0x1bfa ; _printf_core + 678
        0x00001c12:    03e0        ..      LSLS     r0,r4,#15
        0x00001c14:    d50c        ..      BPL      0x1c30 ; _printf_core + 732
        0x00001c16:    4621        !F      MOV      r1,r4
        0x00001c18:    9b12        ..      LDR      r3,[sp,#0x48]
        0x00001c1a:    9a11        ..      LDR      r2,[sp,#0x44]
        0x00001c1c:    9802        ..      LDR      r0,[sp,#8]
        0x00001c1e:    f000f82b    ..+.    BL       _printf_pre_padding ; 0x1c78
        0x00001c22:    1986        ..      ADDS     r6,r0,r6
        0x00001c24:    e004        ..      B        0x1c30 ; _printf_core + 732
        0x00001c26:    9a12        ..      LDR      r2,[sp,#0x48]
        0x00001c28:    2030        0       MOVS     r0,#0x30
        0x00001c2a:    9911        ..      LDR      r1,[sp,#0x44]
        0x00001c2c:    4790        .G      BLX      r2
        0x00001c2e:    1c76        v.      ADDS     r6,r6,#1
        0x00001c30:    9900        ..      LDR      r1,[sp,#0]
        0x00001c32:    1e48        H.      SUBS     r0,r1,#1
        0x00001c34:    9000        ..      STR      r0,[sp,#0]
        0x00001c36:    2900        .)      CMP      r1,#0
        0x00001c38:    dcf5        ..      BGT      0x1c26 ; _printf_core + 722
        0x00001c3a:    e005        ..      B        0x1c48 ; _printf_core + 756
        0x00001c3c:    7838        8x      LDRB     r0,[r7,#0]
        0x00001c3e:    9a12        ..      LDR      r2,[sp,#0x48]
        0x00001c40:    1c7f        ..      ADDS     r7,r7,#1
        0x00001c42:    9911        ..      LDR      r1,[sp,#0x44]
        0x00001c44:    4790        .G      BLX      r2
        0x00001c46:    1c76        v.      ADDS     r6,r6,#1
        0x00001c48:    9901        ..      LDR      r1,[sp,#4]
        0x00001c4a:    1e48        H.      SUBS     r0,r1,#1
        0x00001c4c:    9001        ..      STR      r0,[sp,#4]
        0x00001c4e:    2900        .)      CMP      r1,#0
        0x00001c50:    dcf4        ..      BGT      0x1c3c ; _printf_core + 744
        0x00001c52:    e76b        k.      B        0x1b2c ; _printf_core + 472
    $d
        0x00001c54:    00012809    .(..    DCD    75785
    $t
    i._printf_post_padding
    _printf_post_padding
        0x00001c58:    b5f8        ..      PUSH     {r3-r7,lr}
        0x00001c5a:    4604        .F      MOV      r4,r0
        0x00001c5c:    2500        .%      MOVS     r5,#0
        0x00001c5e:    461e        .F      MOV      r6,r3
        0x00001c60:    4617        .F      MOV      r7,r2
        0x00001c62:    0488        ..      LSLS     r0,r1,#18
        0x00001c64:    d404        ..      BMI      0x1c70 ; _printf_post_padding + 24
        0x00001c66:    e005        ..      B        0x1c74 ; _printf_post_padding + 28
        0x00001c68:    4639        9F      MOV      r1,r7
        0x00001c6a:    2020                MOVS     r0,#0x20
        0x00001c6c:    47b0        .G      BLX      r6
        0x00001c6e:    1c6d        m.      ADDS     r5,r5,#1
        0x00001c70:    1e64        d.      SUBS     r4,r4,#1
        0x00001c72:    d5f9        ..      BPL      0x1c68 ; _printf_post_padding + 16
        0x00001c74:    4628        (F      MOV      r0,r5
        0x00001c76:    bdf8        ..      POP      {r3-r7,pc}
    i._printf_pre_padding
    _printf_pre_padding
        0x00001c78:    b5ff        ..      PUSH     {r0-r7,lr}
        0x00001c7a:    4604        .F      MOV      r4,r0
        0x00001c7c:    2500        .%      MOVS     r5,#0
        0x00001c7e:    b081        ..      SUB      sp,sp,#4
        0x00001c80:    461e        .F      MOV      r6,r3
        0x00001c82:    03c8        ..      LSLS     r0,r1,#15
        0x00001c84:    d501        ..      BPL      0x1c8a ; _printf_pre_padding + 18
        0x00001c86:    2730        0'      MOVS     r7,#0x30
        0x00001c88:    e000        ..      B        0x1c8c ; _printf_pre_padding + 20
        0x00001c8a:    2720         '      MOVS     r7,#0x20
        0x00001c8c:    0488        ..      LSLS     r0,r1,#18
        0x00001c8e:    d504        ..      BPL      0x1c9a ; _printf_pre_padding + 34
        0x00001c90:    e005        ..      B        0x1c9e ; _printf_pre_padding + 38
        0x00001c92:    4638        8F      MOV      r0,r7
        0x00001c94:    9903        ..      LDR      r1,[sp,#0xc]
        0x00001c96:    47b0        .G      BLX      r6
        0x00001c98:    1c6d        m.      ADDS     r5,r5,#1
        0x00001c9a:    1e64        d.      SUBS     r4,r4,#1
        0x00001c9c:    d5f9        ..      BPL      0x1c92 ; _printf_pre_padding + 26
        0x00001c9e:    4628        (F      MOV      r0,r5
        0x00001ca0:    b005        ..      ADD      sp,sp,#0x14
        0x00001ca2:    bdf0        ..      POP      {r4-r7,pc}
    i._snputc
    _snputc
        0x00001ca4:    684a        Jh      LDR      r2,[r1,#4]
        0x00001ca6:    2a00        .*      CMP      r2,#0
        0x00001ca8:    d006        ..      BEQ      0x1cb8 ; _snputc + 20
        0x00001caa:    680a        .h      LDR      r2,[r1,#0]
        0x00001cac:    1c53        S.      ADDS     r3,r2,#1
        0x00001cae:    600b        .`      STR      r3,[r1,#0]
        0x00001cb0:    7010        .p      STRB     r0,[r2,#0]
        0x00001cb2:    6848        Hh      LDR      r0,[r1,#4]
        0x00001cb4:    1e40        @.      SUBS     r0,r0,#1
        0x00001cb6:    6048        H`      STR      r0,[r1,#4]
        0x00001cb8:    4770        pG      BX       lr
    i._sputc
    _sputc
        0x00001cba:    680a        .h      LDR      r2,[r1,#0]
        0x00001cbc:    1c53        S.      ADDS     r3,r2,#1
        0x00001cbe:    600b        .`      STR      r3,[r1,#0]
        0x00001cc0:    7010        .p      STRB     r0,[r2,#0]
        0x00001cc2:    4770        pG      BX       lr
    i.convertCb
    convertCb
    __tagsym$$noinline
        0x00001cc4:    491b        .I      LDR      r1,[pc,#108] ; [0x1d34] = 0x1ffff830
        0x00001cc6:    b470        p.      PUSH     {r4-r6}
        0x00001cc8:    180a        ..      ADDS     r2,r1,r0
        0x00001cca:    491b        .I      LDR      r1,[pc,#108] ; [0x1d38] = 0x1ffff930
        0x00001ccc:    4d1b        .M      LDR      r5,[pc,#108] ; [0x1d3c] = 0x1ffff6b0
        0x00001cce:    180b        ..      ADDS     r3,r1,r0
        0x00001cd0:    2440        @$      MOVS     r4,#0x40
        0x00001cd2:    7828        (x      LDRB     r0,[r5,#0]
        0x00001cd4:    2158        X!      MOVS     r1,#0x58
        0x00001cd6:    4341        AC      MULS     r1,r0,r1
        0x00001cd8:    0a09        ..      LSRS     r1,r1,#8
        0x00001cda:    7816        .x      LDRB     r6,[r2,#0]
        0x00001cdc:    392c        ,9      SUBS     r1,r1,#0x2c
        0x00001cde:    1a71        q.      SUBS     r1,r6,r1
        0x00001ce0:    b28e        ..      UXTH     r6,r1
        0x00001ce2:    1cad        ..      ADDS     r5,r5,#2
        0x00001ce4:    2eff        ..      CMP      r6,#0xff
        0x00001ce6:    d907        ..      BLS      0x1cf8 ; convertCb + 52
        0x00001ce8:    2900        .)      CMP      r1,#0
        0x00001cea:    da01        ..      BGE      0x1cf0 ; convertCb + 44
        0x00001cec:    2100        .!      MOVS     r1,#0
        0x00001cee:    e004        ..      B        0x1cfa ; convertCb + 54
        0x00001cf0:    29ff        .)      CMP      r1,#0xff
        0x00001cf2:    dd01        ..      BLE      0x1cf8 ; convertCb + 52
        0x00001cf4:    21ff        .!      MOVS     r1,#0xff
        0x00001cf6:    e000        ..      B        0x1cfa ; convertCb + 54
        0x00001cf8:    b2c9        ..      UXTB     r1,r1
        0x00001cfa:    7011        .p      STRB     r1,[r2,#0]
        0x00001cfc:    21c6        .!      MOVS     r1,#0xc6
        0x00001cfe:    4341        AC      MULS     r1,r0,r1
        0x00001d00:    0a09        ..      LSRS     r1,r1,#8
        0x00001d02:    1808        ..      ADDS     r0,r1,r0
        0x00001d04:    7819        .x      LDRB     r1,[r3,#0]
        0x00001d06:    38e3        .8      SUBS     r0,r0,#0xe3
        0x00001d08:    1808        ..      ADDS     r0,r1,r0
        0x00001d0a:    b281        ..      UXTH     r1,r0
        0x00001d0c:    1c52        R.      ADDS     r2,r2,#1
        0x00001d0e:    29ff        .)      CMP      r1,#0xff
        0x00001d10:    d907        ..      BLS      0x1d22 ; convertCb + 94
        0x00001d12:    2800        .(      CMP      r0,#0
        0x00001d14:    da01        ..      BGE      0x1d1a ; convertCb + 86
        0x00001d16:    2000        .       MOVS     r0,#0
        0x00001d18:    e004        ..      B        0x1d24 ; convertCb + 96
        0x00001d1a:    28ff        .(      CMP      r0,#0xff
        0x00001d1c:    dd01        ..      BLE      0x1d22 ; convertCb + 94
        0x00001d1e:    20ff        .       MOVS     r0,#0xff
        0x00001d20:    e000        ..      B        0x1d24 ; convertCb + 96
        0x00001d22:    b2c0        ..      UXTB     r0,r0
        0x00001d24:    7018        .p      STRB     r0,[r3,#0]
        0x00001d26:    1c5b        [.      ADDS     r3,r3,#1
        0x00001d28:    1e64        d.      SUBS     r4,r4,#1
        0x00001d2a:    0624        $.      LSLS     r4,r4,#24
        0x00001d2c:    0e24        $.      LSRS     r4,r4,#24
        0x00001d2e:    d1d0        ..      BNE      0x1cd2 ; convertCb + 14
        0x00001d30:    bc70        p.      POP      {r4-r6}
        0x00001d32:    4770        pG      BX       lr
    $d
        0x00001d34:    1ffff830    0...    DCD    536868912
        0x00001d38:    1ffff930    0...    DCD    536869168
        0x00001d3c:    1ffff6b0    ....    DCD    536868528
    $t
    i.convertCr
    convertCr
    __tagsym$$noinline
        0x00001d40:    491b        .I      LDR      r1,[pc,#108] ; [0x1db0] = 0x1ffff730
        0x00001d42:    b470        p.      PUSH     {r4-r6}
        0x00001d44:    180a        ..      ADDS     r2,r1,r0
        0x00001d46:    491b        .I      LDR      r1,[pc,#108] ; [0x1db4] = 0x1ffff830
        0x00001d48:    4d1b        .M      LDR      r5,[pc,#108] ; [0x1db8] = 0x1ffff6b0
        0x00001d4a:    180b        ..      ADDS     r3,r1,r0
        0x00001d4c:    2440        @$      MOVS     r4,#0x40
        0x00001d4e:    7828        (x      LDRB     r0,[r5,#0]
        0x00001d50:    2167        g!      MOVS     r1,#0x67
        0x00001d52:    4341        AC      MULS     r1,r0,r1
        0x00001d54:    0a09        ..      LSRS     r1,r1,#8
        0x00001d56:    1809        ..      ADDS     r1,r1,r0
        0x00001d58:    7816        .x      LDRB     r6,[r2,#0]
        0x00001d5a:    39b3        .9      SUBS     r1,r1,#0xb3
        0x00001d5c:    1871        q.      ADDS     r1,r6,r1
        0x00001d5e:    b28e        ..      UXTH     r6,r1
        0x00001d60:    1cad        ..      ADDS     r5,r5,#2
        0x00001d62:    2eff        ..      CMP      r6,#0xff
        0x00001d64:    d907        ..      BLS      0x1d76 ; convertCr + 54
        0x00001d66:    2900        .)      CMP      r1,#0
        0x00001d68:    da01        ..      BGE      0x1d6e ; convertCr + 46
        0x00001d6a:    2100        .!      MOVS     r1,#0
        0x00001d6c:    e004        ..      B        0x1d78 ; convertCr + 56
        0x00001d6e:    29ff        .)      CMP      r1,#0xff
        0x00001d70:    dd01        ..      BLE      0x1d76 ; convertCr + 54
        0x00001d72:    21ff        .!      MOVS     r1,#0xff
        0x00001d74:    e000        ..      B        0x1d78 ; convertCr + 56
        0x00001d76:    b2c9        ..      UXTB     r1,r1
        0x00001d78:    7011        .p      STRB     r1,[r2,#0]
        0x00001d7a:    21b7        .!      MOVS     r1,#0xb7
        0x00001d7c:    4348        HC      MULS     r0,r1,r0
        0x00001d7e:    0a00        ..      LSRS     r0,r0,#8
        0x00001d80:    7819        .x      LDRB     r1,[r3,#0]
        0x00001d82:    385b        [8      SUBS     r0,r0,#0x5b
        0x00001d84:    1a08        ..      SUBS     r0,r1,r0
        0x00001d86:    b281        ..      UXTH     r1,r0
        0x00001d88:    1c52        R.      ADDS     r2,r2,#1
        0x00001d8a:    29ff        .)      CMP      r1,#0xff
        0x00001d8c:    d907        ..      BLS      0x1d9e ; convertCr + 94
        0x00001d8e:    2800        .(      CMP      r0,#0
        0x00001d90:    da01        ..      BGE      0x1d96 ; convertCr + 86
        0x00001d92:    2000        .       MOVS     r0,#0
        0x00001d94:    e004        ..      B        0x1da0 ; convertCr + 96
        0x00001d96:    28ff        .(      CMP      r0,#0xff
        0x00001d98:    dd01        ..      BLE      0x1d9e ; convertCr + 94
        0x00001d9a:    20ff        .       MOVS     r0,#0xff
        0x00001d9c:    e000        ..      B        0x1da0 ; convertCr + 96
        0x00001d9e:    b2c0        ..      UXTB     r0,r0
        0x00001da0:    7018        .p      STRB     r0,[r3,#0]
        0x00001da2:    1c5b        [.      ADDS     r3,r3,#1
        0x00001da4:    1e64        d.      SUBS     r4,r4,#1
        0x00001da6:    0624        $.      LSLS     r4,r4,#24
        0x00001da8:    0e24        $.      LSRS     r4,r4,#24
        0x00001daa:    d1d0        ..      BNE      0x1d4e ; convertCr + 14
        0x00001dac:    bc70        p.      POP      {r4-r6}
        0x00001dae:    4770        pG      BX       lr
    $d
        0x00001db0:    1ffff730    0...    DCD    536868656
        0x00001db4:    1ffff830    0...    DCD    536868912
        0x00001db8:    1ffff6b0    ....    DCD    536868528
    $t
    i.copyY
    copyY
        0x00001dbc:    490a        .I      LDR      r1,[pc,#40] ; [0x1de8] = 0x1ffff730
        0x00001dbe:    4b0c        .K      LDR      r3,[pc,#48] ; [0x1df0] = 0x1ffff930
        0x00001dc0:    180a        ..      ADDS     r2,r1,r0
        0x00001dc2:    490a        .I      LDR      r1,[pc,#40] ; [0x1dec] = 0x1ffff830
        0x00001dc4:    b430        0.      PUSH     {r4,r5}
        0x00001dc6:    1809        ..      ADDS     r1,r1,r0
        0x00001dc8:    1818        ..      ADDS     r0,r3,r0
        0x00001dca:    4b0a        .K      LDR      r3,[pc,#40] ; [0x1df4] = 0x1ffff6b0
        0x00001dcc:    2540        @%      MOVS     r5,#0x40
        0x00001dce:    781c        .x      LDRB     r4,[r3,#0]
        0x00001dd0:    7014        .p      STRB     r4,[r2,#0]
        0x00001dd2:    700c        .p      STRB     r4,[r1,#0]
        0x00001dd4:    7004        .p      STRB     r4,[r0,#0]
        0x00001dd6:    1c40        @.      ADDS     r0,r0,#1
        0x00001dd8:    1c49        I.      ADDS     r1,r1,#1
        0x00001dda:    1c52        R.      ADDS     r2,r2,#1
        0x00001ddc:    1c9b        ..      ADDS     r3,r3,#2
        0x00001dde:    1e6d        m.      SUBS     r5,r5,#1
        0x00001de0:    d1f5        ..      BNE      0x1dce ; copyY + 18
        0x00001de2:    bc30        0.      POP      {r4,r5}
        0x00001de4:    4770        pG      BX       lr
    $d
        0x00001de6:    0000        ..      DCW    0
        0x00001de8:    1ffff730    0...    DCD    536868656
        0x00001dec:    1ffff830    0...    DCD    536868912
        0x00001df0:    1ffff930    0...    DCD    536869168
        0x00001df4:    1ffff6b0    ....    DCD    536868528
    $t
    i.decodeNextMCU
    decodeNextMCU
    __tagsym$$noinline
        0x00001df8:    b5f0        ..      PUSH     {r4-r7,lr}
        0x00001dfa:    4da1        .M      LDR      r5,[pc,#644] ; [0x2080] = 0x1ffff058
        0x00001dfc:    4fa1        .O      LDR      r7,[pc,#644] ; [0x2084] = 0x1ffff098
        0x00001dfe:    8aa8        ..      LDRH     r0,[r5,#0x14]
        0x00001e00:    b08b        ..      SUB      sp,sp,#0x2c
        0x00001e02:    2800        .(      CMP      r0,#0
        0x00001e04:    d032        2.      BEQ      0x1e6c ; decodeNextMCU + 116
        0x00001e06:    8b28        (.      LDRH     r0,[r5,#0x18]
        0x00001e08:    2800        .(      CMP      r0,#0
        0x00001e0a:    d12c        ,.      BNE      0x1e66 ; decodeNextMCU + 110
        0x00001e0c:    2403        .$      MOVS     r4,#3
        0x00001e0e:    0264        d.      LSLS     r4,r4,#9
        0x00001e10:    261d        .&      MOVS     r6,#0x1d
        0x00001e12:    f000fbb3    ....    BL       getChar ; 0x257c
        0x00001e16:    28ff        .(      CMP      r0,#0xff
        0x00001e18:    d004        ..      BEQ      0x1e24 ; decodeNextMCU + 44
        0x00001e1a:    1e64        d.      SUBS     r4,r4,#1
        0x00001e1c:    0424        $.      LSLS     r4,r4,#16
        0x00001e1e:    0c24        $.      LSRS     r4,r4,#16
        0x00001e20:    d1f7        ..      BNE      0x1e12 ; decodeNextMCU + 26
        0x00001e22:    e001        ..      B        0x1e28 ; decodeNextMCU + 48
        0x00001e24:    2c00        .,      CMP      r4,#0
        0x00001e26:    d102        ..      BNE      0x1e2e ; decodeNextMCU + 54
        0x00001e28:    4630        0F      MOV      r0,r6
        0x00001e2a:    b00b        ..      ADD      sp,sp,#0x2c
        0x00001e2c:    bdf0        ..      POP      {r4-r7,pc}
        0x00001e2e:    f000fba5    ....    BL       getChar ; 0x257c
        0x00001e32:    28ff        .(      CMP      r0,#0xff
        0x00001e34:    d02a        *.      BEQ      0x1e8c ; decodeNextMCU + 148
        0x00001e36:    2c00        .,      CMP      r4,#0
        0x00001e38:    d0f6        ..      BEQ      0x1e28 ; decodeNextMCU + 48
        0x00001e3a:    8ae9        ..      LDRH     r1,[r5,#0x16]
        0x00001e3c:    460a        .F      MOV      r2,r1
        0x00001e3e:    32d0        .2      ADDS     r2,r2,#0xd0
        0x00001e40:    4290        .B      CMP      r0,r2
        0x00001e42:    d1f1        ..      BNE      0x1e28 ; decodeNextMCU + 48
        0x00001e44:    2000        .       MOVS     r0,#0
        0x00001e46:    8038        8.      STRH     r0,[r7,#0]
        0x00001e48:    8078        x.      STRH     r0,[r7,#2]
        0x00001e4a:    80b8        ..      STRH     r0,[r7,#4]
        0x00001e4c:    8aa8        ..      LDRH     r0,[r5,#0x14]
        0x00001e4e:    8328        (.      STRH     r0,[r5,#0x18]
        0x00001e50:    1c49        I.      ADDS     r1,r1,#1
        0x00001e52:    0748        H.      LSLS     r0,r1,#29
        0x00001e54:    0f40        @.      LSRS     r0,r0,#29
        0x00001e56:    82e8        ..      STRH     r0,[r5,#0x16]
        0x00001e58:    2008        .       MOVS     r0,#8
        0x00001e5a:    7168        hq      STRB     r0,[r5,#5]
        0x00001e5c:    f000fb89    ....    BL       getBits2 ; 0x2572
        0x00001e60:    2008        .       MOVS     r0,#8
        0x00001e62:    f000fb86    ....    BL       getBits2 ; 0x2572
        0x00001e66:    8b28        (.      LDRH     r0,[r5,#0x18]
        0x00001e68:    1e40        @.      SUBS     r0,r0,#1
        0x00001e6a:    8328        (.      STRH     r0,[r5,#0x18]
        0x00001e6c:    2000        .       MOVS     r0,#0
        0x00001e6e:    9008        ..      STR      r0,[sp,#0x20]
        0x00001e70:    7a68        hz      LDRB     r0,[r5,#9]
        0x00001e72:    2800        .(      CMP      r0,#0
        0x00001e74:    d97e        ~.      BLS      0x1f74 ; decodeNextMCU + 380
        0x00001e76:    4884        .H      LDR      r0,[pc,#528] ; [0x2088] = 0x1ffff09e
        0x00001e78:    9908        ..      LDR      r1,[sp,#0x20]
        0x00001e7a:    5c44        D\      LDRB     r4,[r0,r1]
        0x00001e7c:    4883        .H      LDR      r0,[pc,#524] ; [0x208c] = 0x1ffff081
        0x00001e7e:    5d01        .]      LDRB     r1,[r0,r4]
        0x00001e80:    4883        .H      LDR      r0,[pc,#524] ; [0x2090] = 0x1ffff087
        0x00001e82:    2900        .)      CMP      r1,#0
        0x00001e84:    5d00        .]      LDRB     r0,[r0,r4]
        0x00001e86:    d006        ..      BEQ      0x1e96 ; decodeNextMCU + 158
        0x00001e88:    4982        .I      LDR      r1,[pc,#520] ; [0x2094] = 0x1ffffab0
        0x00001e8a:    e005        ..      B        0x1e98 ; decodeNextMCU + 160
        0x00001e8c:    1e64        d.      SUBS     r4,r4,#1
        0x00001e8e:    0424        $.      LSLS     r4,r4,#16
        0x00001e90:    0c24        $.      LSRS     r4,r4,#16
        0x00001e92:    d1cc        ..      BNE      0x1e2e ; decodeNextMCU + 54
        0x00001e94:    e7c8        ..      B        0x1e28 ; decodeNextMCU + 48
        0x00001e96:    4980        .I      LDR      r1,[pc,#512] ; [0x2098] = 0x1ffffa30
        0x00001e98:    9109        ..      STR      r1,[sp,#0x24]
        0x00001e9a:    2800        .(      CMP      r0,#0
        0x00001e9c:    d002        ..      BEQ      0x1ea4 ; decodeNextMCU + 172
        0x00001e9e:    497f        .I      LDR      r1,[pc,#508] ; [0x209c] = 0x1ffffbe0
        0x00001ea0:    487f        .H      LDR      r0,[pc,#508] ; [0x20a0] = 0x1ffffb90
        0x00001ea2:    e001        ..      B        0x1ea8 ; decodeNextMCU + 176
        0x00001ea4:    497f        .I      LDR      r1,[pc,#508] ; [0x20a4] = 0x1ffffb80
        0x00001ea6:    4880        .H      LDR      r0,[pc,#512] ; [0x20a8] = 0x1ffffb30
        0x00001ea8:    f000fbb8    ....    BL       huffDecode ; 0x261c
        0x00001eac:    4605        .F      MOV      r5,r0
        0x00001eae:    2200        ."      MOVS     r2,#0
        0x00001eb0:    0700        ..      LSLS     r0,r0,#28
        0x00001eb2:    0f00        ..      LSRS     r0,r0,#28
        0x00001eb4:    d002        ..      BEQ      0x1ebc ; decodeNextMCU + 196
        0x00001eb6:    f000fb5c    ..\.    BL       getBits2 ; 0x2572
        0x00001eba:    4602        .F      MOV      r2,r0
        0x00001ebc:    4629        )F      MOV      r1,r5
        0x00001ebe:    4610        .F      MOV      r0,r2
        0x00001ec0:    f000fc08    ....    BL       huffExtend ; 0x26d4
        0x00001ec4:    496f        oI      LDR      r1,[pc,#444] ; [0x2084] = 0x1ffff098
        0x00001ec6:    0062        b.      LSLS     r2,r4,#1
        0x00001ec8:    5a8b        .Z      LDRH     r3,[r1,r2]
        0x00001eca:    1818        ..      ADDS     r0,r3,r0
        0x00001ecc:    5288        .R      STRH     r0,[r1,r2]
        0x00001ece:    9909        ..      LDR      r1,[sp,#0x24]
        0x00001ed0:    4a76        vJ      LDR      r2,[pc,#472] ; [0x20ac] = 0x1ffff6b0
        0x00001ed2:    8809        ..      LDRH     r1,[r1,#0]
        0x00001ed4:    4341        AC      MULS     r1,r0,r1
        0x00001ed6:    4876        vH      LDR      r0,[pc,#472] ; [0x20b0] = 0x1ffff08a
        0x00001ed8:    8011        ..      STRH     r1,[r2,#0]
        0x00001eda:    5d00        .]      LDRB     r0,[r0,r4]
        0x00001edc:    2800        .(      CMP      r0,#0
        0x00001ede:    d003        ..      BEQ      0x1ee8 ; decodeNextMCU + 240
        0x00001ee0:    4874        tH      LDR      r0,[pc,#464] ; [0x20b4] = 0x1ffffd40
        0x00001ee2:    9005        ..      STR      r0,[sp,#0x14]
        0x00001ee4:    4874        tH      LDR      r0,[pc,#464] ; [0x20b8] = 0x1ffffd90
        0x00001ee6:    e002        ..      B        0x1eee ; decodeNextMCU + 246
        0x00001ee8:    4874        tH      LDR      r0,[pc,#464] ; [0x20bc] = 0x1ffffbf0
        0x00001eea:    9005        ..      STR      r0,[sp,#0x14]
        0x00001eec:    4874        tH      LDR      r0,[pc,#464] ; [0x20c0] = 0x1ffffc40
        0x00001eee:    9006        ..      STR      r0,[sp,#0x18]
        0x00001ef0:    4863        cH      LDR      r0,[pc,#396] ; [0x2080] = 0x1ffff058
        0x00001ef2:    7b40        @{      LDRB     r0,[r0,#0xd]
        0x00001ef4:    2800        .(      CMP      r0,#0
        0x00001ef6:    d025        %.      BEQ      0x1f44 ; decodeNextMCU + 332
        0x00001ef8:    2401        .$      MOVS     r4,#1
        0x00001efa:    9906        ..      LDR      r1,[sp,#0x18]
        0x00001efc:    9805        ..      LDR      r0,[sp,#0x14]
        0x00001efe:    f000fb8d    ....    BL       huffDecode ; 0x261c
        0x00001f02:    4606        .F      MOV      r6,r0
        0x00001f04:    0700        ..      LSLS     r0,r0,#28
        0x00001f06:    0f00        ..      LSRS     r0,r0,#28
        0x00001f08:    4605        .F      MOV      r5,r0
        0x00001f0a:    d001        ..      BEQ      0x1f10 ; decodeNextMCU + 280
        0x00001f0c:    f000fb31    ..1.    BL       getBits2 ; 0x2572
        0x00001f10:    0930        0.      LSRS     r0,r6,#4
        0x00001f12:    2d00        .-      CMP      r5,#0
        0x00001f14:    d006        ..      BEQ      0x1f24 ; decodeNextMCU + 300
        0x00001f16:    2800        .(      CMP      r0,#0
        0x00001f18:    d00c        ..      BEQ      0x1f34 ; decodeNextMCU + 316
        0x00001f1a:    1820         .      ADDS     r0,r4,r0
        0x00001f1c:    283f        ?(      CMP      r0,#0x3f
        0x00001f1e:    d862        b.      BHI      0x1fe6 ; decodeNextMCU + 494
        0x00001f20:    b2c4        ..      UXTB     r4,r0
        0x00001f22:    e007        ..      B        0x1f34 ; decodeNextMCU + 316
        0x00001f24:    280f        .(      CMP      r0,#0xf
        0x00001f26:    d109        ..      BNE      0x1f3c ; decodeNextMCU + 324
        0x00001f28:    4620         F      MOV      r0,r4
        0x00001f2a:    3010        .0      ADDS     r0,r0,#0x10
        0x00001f2c:    2840        @(      CMP      r0,#0x40
        0x00001f2e:    d85a        Z.      BHI      0x1fe6 ; decodeNextMCU + 494
        0x00001f30:    340f        .4      ADDS     r4,r4,#0xf
        0x00001f32:    b2e4        ..      UXTB     r4,r4
        0x00001f34:    1c64        d.      ADDS     r4,r4,#1
        0x00001f36:    b2e4        ..      UXTB     r4,r4
        0x00001f38:    2c40        @,      CMP      r4,#0x40
        0x00001f3a:    d3de        ..      BCC      0x1efa ; decodeNextMCU + 258
        0x00001f3c:    9808        ..      LDR      r0,[sp,#0x20]
        0x00001f3e:    f001ffd3    ....    BL       transformBlockReduce ; 0x3ee8
        0x00001f42:    e090        ..      B        0x2066 ; decodeNextMCU + 622
        0x00001f44:    2401        .$      MOVS     r4,#1
        0x00001f46:    2500        .%      MOVS     r5,#0
        0x00001f48:    9906        ..      LDR      r1,[sp,#0x18]
        0x00001f4a:    9805        ..      LDR      r0,[sp,#0x14]
        0x00001f4c:    f000fb66    ..f.    BL       huffDecode ; 0x261c
        0x00001f50:    4607        .F      MOV      r7,r0
        0x00001f52:    2000        .       MOVS     r0,#0
        0x00001f54:    4686        .F      MOV      lr,r0
        0x00001f56:    0738        8.      LSLS     r0,r7,#28
        0x00001f58:    0f00        ..      LSRS     r0,r0,#28
        0x00001f5a:    4606        .F      MOV      r6,r0
        0x00001f5c:    d002        ..      BEQ      0x1f64 ; decodeNextMCU + 364
        0x00001f5e:    f000fb08    ....    BL       getBits2 ; 0x2572
        0x00001f62:    4686        .F      MOV      lr,r0
        0x00001f64:    0938        8.      LSRS     r0,r7,#4
        0x00001f66:    46b4        .F      MOV      r12,r6
        0x00001f68:    2e00        ..      CMP      r6,#0
        0x00001f6a:    d035        5.      BEQ      0x1fd8 ; decodeNextMCU + 480
        0x00001f6c:    2800        .(      CMP      r0,#0
        0x00001f6e:    d025        %.      BEQ      0x1fbc ; decodeNextMCU + 452
        0x00001f70:    1821        !.      ADDS     r1,r4,r0
        0x00001f72:    e000        ..      B        0x1f76 ; decodeNextMCU + 382
        0x00001f74:    e081        ..      B        0x207a ; decodeNextMCU + 642
        0x00001f76:    293f        ?)      CMP      r1,#0x3f
        0x00001f78:    d835        5.      BHI      0x1fe6 ; decodeNextMCU + 494
        0x00001f7a:    2300        .#      MOVS     r3,#0
        0x00001f7c:    9002        ..      STR      r0,[sp,#8]
        0x00001f7e:    07c0        ..      LSLS     r0,r0,#31
        0x00001f80:    d006        ..      BEQ      0x1f90 ; decodeNextMCU + 408
        0x00001f82:    4850        PH      LDR      r0,[pc,#320] ; [0x20c4] = 0x69c5
        0x00001f84:    b2e1        ..      UXTB     r1,r4
        0x00001f86:    5640        @V      LDRSB    r0,[r0,r1]
        0x00001f88:    4948        HI      LDR      r1,[pc,#288] ; [0x20ac] = 0x1ffff6b0
        0x00001f8a:    0040        @.      LSLS     r0,r0,#1
        0x00001f8c:    520d        .R      STRH     r5,[r1,r0]
        0x00001f8e:    2301        .#      MOVS     r3,#1
        0x00001f90:    9802        ..      LDR      r0,[sp,#8]
        0x00001f92:    0842        B.      LSRS     r2,r0,#1
        0x00001f94:    d00f        ..      BEQ      0x1fb6 ; decodeNextMCU + 446
        0x00001f96:    4e45        EN      LDR      r6,[pc,#276] ; [0x20ac] = 0x1ffff6b0
        0x00001f98:    4f4a        JO      LDR      r7,[pc,#296] ; [0x20c4] = 0x69c5
        0x00001f9a:    18e0        ..      ADDS     r0,r4,r3
        0x00001f9c:    b2c1        ..      UXTB     r1,r0
        0x00001f9e:    5679        yV      LDRSB    r1,[r7,r1]
        0x00001fa0:    1c40        @.      ADDS     r0,r0,#1
        0x00001fa2:    0049        I.      LSLS     r1,r1,#1
        0x00001fa4:    5275        uR      STRH     r5,[r6,r1]
        0x00001fa6:    b2c0        ..      UXTB     r0,r0
        0x00001fa8:    5638        8V      LDRSB    r0,[r7,r0]
        0x00001faa:    1e52        R.      SUBS     r2,r2,#1
        0x00001fac:    0040        @.      LSLS     r0,r0,#1
        0x00001fae:    1c9b        ..      ADDS     r3,r3,#2
        0x00001fb0:    5235        5R      STRH     r5,[r6,r0]
        0x00001fb2:    2a00        .*      CMP      r2,#0
        0x00001fb4:    d1f1        ..      BNE      0x1f9a ; decodeNextMCU + 418
        0x00001fb6:    9802        ..      LDR      r0,[sp,#8]
        0x00001fb8:    1820         .      ADDS     r0,r4,r0
        0x00001fba:    b2c4        ..      UXTB     r4,r0
        0x00001fbc:    4661        aF      MOV      r1,r12
        0x00001fbe:    4670        pF      MOV      r0,lr
        0x00001fc0:    f000fb88    ....    BL       huffExtend ; 0x26d4
        0x00001fc4:    9909        ..      LDR      r1,[sp,#0x24]
        0x00001fc6:    0062        b.      LSLS     r2,r4,#1
        0x00001fc8:    5a89        .Z      LDRH     r1,[r1,r2]
        0x00001fca:    4341        AC      MULS     r1,r0,r1
        0x00001fcc:    483d        =H      LDR      r0,[pc,#244] ; [0x20c4] = 0x69c5
        0x00001fce:    5700        .W      LDRSB    r0,[r0,r4]
        0x00001fd0:    0042        B.      LSLS     r2,r0,#1
        0x00001fd2:    4836        6H      LDR      r0,[pc,#216] ; [0x20ac] = 0x1ffff6b0
        0x00001fd4:    5281        .R      STRH     r1,[r0,r2]
        0x00001fd6:    e01f        ..      B        0x2018 ; decodeNextMCU + 544
        0x00001fd8:    280f        .(      CMP      r0,#0xf
        0x00001fda:    d121        !.      BNE      0x2020 ; decodeNextMCU + 552
        0x00001fdc:    4620         F      MOV      r0,r4
        0x00001fde:    3010        .0      ADDS     r0,r0,#0x10
        0x00001fe0:    4684        .F      MOV      r12,r0
        0x00001fe2:    2840        @(      CMP      r0,#0x40
        0x00001fe4:    d902        ..      BLS      0x1fec ; decodeNextMCU + 500
        0x00001fe6:    201c        .       MOVS     r0,#0x1c
        0x00001fe8:    b00b        ..      ADD      sp,sp,#0x2c
        0x00001fea:    bdf0        ..      POP      {r4-r7,pc}
        0x00001fec:    2100        .!      MOVS     r1,#0
        0x00001fee:    482f        /H      LDR      r0,[pc,#188] ; [0x20ac] = 0x1ffff6b0
        0x00001ff0:    4f34        4O      LDR      r7,[pc,#208] ; [0x20c4] = 0x69c5
        0x00001ff2:    2208        ."      MOVS     r2,#8
        0x00001ff4:    1863        c.      ADDS     r3,r4,r1
        0x00001ff6:    b2de        ..      UXTB     r6,r3
        0x00001ff8:    57be        .W      LDRSB    r6,[r7,r6]
        0x00001ffa:    1c5b        [.      ADDS     r3,r3,#1
        0x00001ffc:    0076        v.      LSLS     r6,r6,#1
        0x00001ffe:    5385        .S      STRH     r5,[r0,r6]
        0x00002000:    b2db        ..      UXTB     r3,r3
        0x00002002:    56fb        .V      LDRSB    r3,[r7,r3]
        0x00002004:    1c89        ..      ADDS     r1,r1,#2
        0x00002006:    005b        [.      LSLS     r3,r3,#1
        0x00002008:    1e52        R.      SUBS     r2,r2,#1
        0x0000200a:    0412        ..      LSLS     r2,r2,#16
        0x0000200c:    52c5        .R      STRH     r5,[r0,r3]
        0x0000200e:    0c12        ..      LSRS     r2,r2,#16
        0x00002010:    d1f0        ..      BNE      0x1ff4 ; decodeNextMCU + 508
        0x00002012:    4660        `F      MOV      r0,r12
        0x00002014:    1e40        @.      SUBS     r0,r0,#1
        0x00002016:    b2c4        ..      UXTB     r4,r0
        0x00002018:    1c64        d.      ADDS     r4,r4,#1
        0x0000201a:    b2e4        ..      UXTB     r4,r4
        0x0000201c:    2c40        @,      CMP      r4,#0x40
        0x0000201e:    d393        ..      BCC      0x1f48 ; decodeNextMCU + 336
        0x00002020:    2c40        @,      CMP      r4,#0x40
        0x00002022:    d21d        ..      BCS      0x2060 ; decodeNextMCU + 616
        0x00002024:    2040        @       MOVS     r0,#0x40
        0x00002026:    1b00        ..      SUBS     r0,r0,r4
        0x00002028:    2800        .(      CMP      r0,#0
        0x0000202a:    dd19        ..      BLE      0x2060 ; decodeNextMCU + 616
        0x0000202c:    07c1        ..      LSLS     r1,r0,#31
        0x0000202e:    d006        ..      BEQ      0x203e ; decodeNextMCU + 582
        0x00002030:    4924        $I      LDR      r1,[pc,#144] ; [0x20c4] = 0x69c5
        0x00002032:    b2e2        ..      UXTB     r2,r4
        0x00002034:    5689        .V      LDRSB    r1,[r1,r2]
        0x00002036:    004a        J.      LSLS     r2,r1,#1
        0x00002038:    491c        .I      LDR      r1,[pc,#112] ; [0x20ac] = 0x1ffff6b0
        0x0000203a:    1c64        d.      ADDS     r4,r4,#1
        0x0000203c:    528d        .R      STRH     r5,[r1,r2]
        0x0000203e:    1040        @.      ASRS     r0,r0,#1
        0x00002040:    d00e        ..      BEQ      0x2060 ; decodeNextMCU + 616
        0x00002042:    4a1a        .J      LDR      r2,[pc,#104] ; [0x20ac] = 0x1ffff6b0
        0x00002044:    491f        .I      LDR      r1,[pc,#124] ; [0x20c4] = 0x69c5
        0x00002046:    b2e3        ..      UXTB     r3,r4
        0x00002048:    56cb        .V      LDRSB    r3,[r1,r3]
        0x0000204a:    1c64        d.      ADDS     r4,r4,#1
        0x0000204c:    005b        [.      LSLS     r3,r3,#1
        0x0000204e:    52d5        .R      STRH     r5,[r2,r3]
        0x00002050:    b2e3        ..      UXTB     r3,r4
        0x00002052:    56cb        .V      LDRSB    r3,[r1,r3]
        0x00002054:    1e40        @.      SUBS     r0,r0,#1
        0x00002056:    005b        [.      LSLS     r3,r3,#1
        0x00002058:    1c64        d.      ADDS     r4,r4,#1
        0x0000205a:    52d5        .R      STRH     r5,[r2,r3]
        0x0000205c:    2800        .(      CMP      r0,#0
        0x0000205e:    d1f2        ..      BNE      0x2046 ; decodeNextMCU + 590
        0x00002060:    9808        ..      LDR      r0,[sp,#0x20]
        0x00002062:    f001feb3    ....    BL       transformBlock ; 0x3dcc
        0x00002066:    9808        ..      LDR      r0,[sp,#0x20]
        0x00002068:    1c40        @.      ADDS     r0,r0,#1
        0x0000206a:    b2c0        ..      UXTB     r0,r0
        0x0000206c:    4601        .F      MOV      r1,r0
        0x0000206e:    9008        ..      STR      r0,[sp,#0x20]
        0x00002070:    4803        .H      LDR      r0,[pc,#12] ; [0x2080] = 0x1ffff058
        0x00002072:    7a40        @z      LDRB     r0,[r0,#9]
        0x00002074:    4281        .B      CMP      r1,r0
        0x00002076:    d200        ..      BCS      0x207a ; decodeNextMCU + 642
        0x00002078:    e6fd        ..      B        0x1e76 ; decodeNextMCU + 126
        0x0000207a:    2000        .       MOVS     r0,#0
        0x0000207c:    b00b        ..      ADD      sp,sp,#0x2c
        0x0000207e:    bdf0        ..      POP      {r4-r7,pc}
    $d
        0x00002080:    1ffff058    X...    DCD    536866904
        0x00002084:    1ffff098    ....    DCD    536866968
        0x00002088:    1ffff09e    ....    DCD    536866974
        0x0000208c:    1ffff081    ....    DCD    536866945
        0x00002090:    1ffff087    ....    DCD    536866951
        0x00002094:    1ffffab0    ....    DCD    536869552
        0x00002098:    1ffffa30    0...    DCD    536869424
        0x0000209c:    1ffffbe0    ....    DCD    536869856
        0x000020a0:    1ffffb90    ....    DCD    536869776
        0x000020a4:    1ffffb80    ....    DCD    536869760
        0x000020a8:    1ffffb30    0...    DCD    536869680
        0x000020ac:    1ffff6b0    ....    DCD    536868528
        0x000020b0:    1ffff08a    ....    DCD    536866954
        0x000020b4:    1ffffd40    @...    DCD    536870208
        0x000020b8:    1ffffd90    ....    DCD    536870288
        0x000020bc:    1ffffbf0    ....    DCD    536869872
        0x000020c0:    1ffffc40    @...    DCD    536869952
        0x000020c4:    000069c5    .i..    DCD    27077
    $t
    i.dir_next
    dir_next
        0x000020c8:    b5f8        ..      PUSH     {r3-r7,lr}
        0x000020ca:    4605        .F      MOV      r5,r0
        0x000020cc:    4f2c        ,O      LDR      r7,[pc,#176] ; [0x2180] = 0x1ffff0b8
        0x000020ce:    8829        ).      LDRH     r1,[r5,#0]
        0x000020d0:    6838        8h      LDR      r0,[r7,#0]
        0x000020d2:    1c49        I.      ADDS     r1,r1,#1
        0x000020d4:    040e        ..      LSLS     r6,r1,#16
        0x000020d6:    4604        .F      MOV      r4,r0
        0x000020d8:    0c36        6.      LSRS     r6,r6,#16
        0x000020da:    d03d        =.      BEQ      0x2158 ; dir_next + 144
        0x000020dc:    6929        )i      LDR      r1,[r5,#0x10]
        0x000020de:    2900        .)      CMP      r1,#0
        0x000020e0:    d03a        :.      BEQ      0x2158 ; dir_next + 144
        0x000020e2:    0732        2.      LSLS     r2,r6,#28
        0x000020e4:    d148        H.      BNE      0x2178 ; dir_next + 176
        0x000020e6:    1c49        I.      ADDS     r1,r1,#1
        0x000020e8:    6129        )a      STR      r1,[r5,#0x10]
        0x000020ea:    68ea        .h      LDR      r2,[r5,#0xc]
        0x000020ec:    2a00        .*      CMP      r2,#0
        0x000020ee:    d00d        ..      BEQ      0x210c ; dir_next + 68
        0x000020f0:    78a3        .x      LDRB     r3,[r4,#2]
        0x000020f2:    0931        1.      LSRS     r1,r6,#4
        0x000020f4:    1e5b        [.      SUBS     r3,r3,#1
        0x000020f6:    4219        .B      TST      r1,r3
        0x000020f8:    d13e        >.      BNE      0x2178 ; dir_next + 176
        0x000020fa:    2a02        .*      CMP      r2,#2
        0x000020fc:    d327        '.      BCC      0x214e ; dir_next + 134
        0x000020fe:    6881        .h      LDR      r1,[r0,#8]
        0x00002100:    4291        .B      CMP      r1,r2
        0x00002102:    d924        $.      BLS      0x214e ; dir_next + 134
        0x00002104:    7801        .x      LDRB     r1,[r0,#0]
        0x00002106:    2903        .)      CMP      r1,#3
        0x00002108:    d121        !.      BNE      0x214e ; dir_next + 134
        0x0000210a:    e003        ..      B        0x2114 ; dir_next + 76
        0x0000210c:    88a0        ..      LDRH     r0,[r4,#4]
        0x0000210e:    42b0        .B      CMP      r0,r6
        0x00002110:    d922        ".      BLS      0x2158 ; dir_next + 144
        0x00002112:    e031        1.      B        0x2178 ; dir_next + 176
        0x00002114:    68c0        .h      LDR      r0,[r0,#0xc]
        0x00002116:    09d1        ..      LSRS     r1,r2,#7
        0x00002118:    1841        A.      ADDS     r1,r0,r1
        0x0000211a:    0650        P.      LSLS     r0,r2,#25
        0x0000211c:    0dc2        ..      LSRS     r2,r0,#23
        0x0000211e:    2304        .#      MOVS     r3,#4
        0x00002120:    4668        hF      MOV      r0,sp
        0x00002122:    f000f839    ..9.    BL       disk_readp ; 0x2198
        0x00002126:    2800        .(      CMP      r0,#0
        0x00002128:    d111        ..      BNE      0x214e ; dir_next + 134
        0x0000212a:    4668        hF      MOV      r0,sp
        0x0000212c:    78c0        .x      LDRB     r0,[r0,#3]
        0x0000212e:    0201        ..      LSLS     r1,r0,#8
        0x00002130:    4668        hF      MOV      r0,sp
        0x00002132:    7880        .x      LDRB     r0,[r0,#2]
        0x00002134:    4301        .C      ORRS     r1,r1,r0
        0x00002136:    4668        hF      MOV      r0,sp
        0x00002138:    7840        @x      LDRB     r0,[r0,#1]
        0x0000213a:    0209        ..      LSLS     r1,r1,#8
        0x0000213c:    4301        .C      ORRS     r1,r1,r0
        0x0000213e:    4668        hF      MOV      r0,sp
        0x00002140:    7800        .x      LDRB     r0,[r0,#0]
        0x00002142:    0209        ..      LSLS     r1,r1,#8
        0x00002144:    4301        .C      ORRS     r1,r1,r0
        0x00002146:    0108        ..      LSLS     r0,r1,#4
        0x00002148:    0900        ..      LSRS     r0,r0,#4
        0x0000214a:    2801        .(      CMP      r0,#1
        0x0000214c:    d801        ..      BHI      0x2152 ; dir_next + 138
        0x0000214e:    2001        .       MOVS     r0,#1
        0x00002150:    bdf8        ..      POP      {r3-r7,pc}
        0x00002152:    68a1        .h      LDR      r1,[r4,#8]
        0x00002154:    4281        .B      CMP      r1,r0
        0x00002156:    d801        ..      BHI      0x215c ; dir_next + 148
        0x00002158:    2003        .       MOVS     r0,#3
        0x0000215a:    bdf8        ..      POP      {r3-r7,pc}
        0x0000215c:    60e8        .`      STR      r0,[r5,#0xc]
        0x0000215e:    6839        9h      LDR      r1,[r7,#0]
        0x00002160:    1e80        ..      SUBS     r0,r0,#2
        0x00002162:    688a        .h      LDR      r2,[r1,#8]
        0x00002164:    1e92        ..      SUBS     r2,r2,#2
        0x00002166:    4282        .B      CMP      r2,r0
        0x00002168:    d801        ..      BHI      0x216e ; dir_next + 166
        0x0000216a:    2000        .       MOVS     r0,#0
        0x0000216c:    e003        ..      B        0x2176 ; dir_next + 174
        0x0000216e:    788a        .x      LDRB     r2,[r1,#2]
        0x00002170:    4342        BC      MULS     r2,r0,r2
        0x00002172:    6948        Hi      LDR      r0,[r1,#0x14]
        0x00002174:    1810        ..      ADDS     r0,r2,r0
        0x00002176:    6128        (a      STR      r0,[r5,#0x10]
        0x00002178:    802e        ..      STRH     r6,[r5,#0]
        0x0000217a:    2000        .       MOVS     r0,#0
        0x0000217c:    bdf8        ..      POP      {r3-r7,pc}
    $d
        0x0000217e:    0000        ..      DCW    0
        0x00002180:    1ffff0b8    ....    DCD    536867000
    $t
    i.disk_initialize
    disk_initialize
        0x00002184:    b510        ..      PUSH     {r4,lr}
        0x00002186:    4803        .H      LDR      r0,[pc,#12] ; [0x2194] = 0x20000190
        0x00002188:    f7feffe8    ....    BL       SD_Init ; 0x115c
        0x0000218c:    2800        .(      CMP      r0,#0
        0x0000218e:    d000        ..      BEQ      0x2192 ; disk_initialize + 14
        0x00002190:    2001        .       MOVS     r0,#1
        0x00002192:    bd10        ..      POP      {r4,pc}
    $d
        0x00002194:    20000190    ...     DCD    536871312
    $t
    i.disk_readp
    disk_readp
        0x00002198:    b5ff        ..      PUSH     {r0-r7,lr}
        0x0000219a:    4d27        'M      LDR      r5,[pc,#156] ; [0x2238] = 0x1ffff0b0
        0x0000219c:    2001        .       MOVS     r0,#1
        0x0000219e:    6829        )h      LDR      r1,[r5,#0]
        0x000021a0:    0240        @.      LSLS     r0,r0,#9
        0x000021a2:    b081        ..      SUB      sp,sp,#4
        0x000021a4:    461c        .F      MOV      r4,r3
        0x000021a6:    2901        .)      CMP      r1,#1
        0x000021a8:    d00e        ..      BEQ      0x21c8 ; disk_readp + 48
        0x000021aa:    686a        jh      LDR      r2,[r5,#4]
        0x000021ac:    9902        ..      LDR      r1,[sp,#8]
        0x000021ae:    428a        .B      CMP      r2,r1
        0x000021b0:    d017        ..      BEQ      0x21e2 ; disk_readp + 74
        0x000021b2:    460a        .F      MOV      r2,r1
        0x000021b4:    9000        ..      STR      r0,[sp,#0]
        0x000021b6:    2300        .#      MOVS     r3,#0
        0x000021b8:    4920         I      LDR      r1,[pc,#128] ; [0x223c] = 0x1fffff90
        0x000021ba:    4821        !H      LDR      r0,[pc,#132] ; [0x2240] = 0x20000190
        0x000021bc:    f7fff8c8    ....    BL       SD_Read ; 0x1350
        0x000021c0:    2800        .(      CMP      r0,#0
        0x000021c2:    d00f        ..      BEQ      0x21e4 ; disk_readp + 76
        0x000021c4:    2001        .       MOVS     r0,#1
        0x000021c6:    e00d        ..      B        0x21e4 ; disk_readp + 76
        0x000021c8:    9000        ..      STR      r0,[sp,#0]
        0x000021ca:    2300        .#      MOVS     r3,#0
        0x000021cc:    491b        .I      LDR      r1,[pc,#108] ; [0x223c] = 0x1fffff90
        0x000021ce:    481c        .H      LDR      r0,[pc,#112] ; [0x2240] = 0x20000190
        0x000021d0:    9a02        ..      LDR      r2,[sp,#8]
        0x000021d2:    f7fff8bd    ....    BL       SD_Read ; 0x1350
        0x000021d6:    2800        .(      CMP      r0,#0
        0x000021d8:    d000        ..      BEQ      0x21dc ; disk_readp + 68
        0x000021da:    2001        .       MOVS     r0,#1
        0x000021dc:    2100        .!      MOVS     r1,#0
        0x000021de:    6029        )`      STR      r1,[r5,#0]
        0x000021e0:    e000        ..      B        0x21e4 ; disk_readp + 76
        0x000021e2:    2000        .       MOVS     r0,#0
        0x000021e4:    1e63        c.      SUBS     r3,r4,#1
        0x000021e6:    2b00        .+      CMP      r3,#0
        0x000021e8:    dd19        ..      BLE      0x221e ; disk_readp + 134
        0x000021ea:    4914        .I      LDR      r1,[pc,#80] ; [0x223c] = 0x1fffff90
        0x000021ec:    9a03        ..      LDR      r2,[sp,#0xc]
        0x000021ee:    2701        .'      MOVS     r7,#1
        0x000021f0:    1889        ..      ADDS     r1,r1,r2
        0x000021f2:    9a01        ..      LDR      r2,[sp,#4]
        0x000021f4:    07e6        ..      LSLS     r6,r4,#31
        0x000021f6:    07ff        ..      LSLS     r7,r7,#31
        0x000021f8:    1e49        I.      SUBS     r1,r1,#1
        0x000021fa:    1e52        R.      SUBS     r2,r2,#1
        0x000021fc:    42fe        .B      CMN      r6,r7
        0x000021fe:    d003        ..      BEQ      0x2208 ; disk_readp + 112
        0x00002200:    784e        Nx      LDRB     r6,[r1,#1]
        0x00002202:    7056        Vp      STRB     r6,[r2,#1]
        0x00002204:    1c49        I.      ADDS     r1,r1,#1
        0x00002206:    1c52        R.      ADDS     r2,r2,#1
        0x00002208:    784e        Nx      LDRB     r6,[r1,#1]
        0x0000220a:    105b        [.      ASRS     r3,r3,#1
        0x0000220c:    d007        ..      BEQ      0x221e ; disk_readp + 134
        0x0000220e:    788f        .x      LDRB     r7,[r1,#2]
        0x00002210:    7056        Vp      STRB     r6,[r2,#1]
        0x00002212:    78ce        .x      LDRB     r6,[r1,#3]
        0x00002214:    7097        .p      STRB     r7,[r2,#2]
        0x00002216:    1c89        ..      ADDS     r1,r1,#2
        0x00002218:    1c92        ..      ADDS     r2,r2,#2
        0x0000221a:    1e5b        [.      SUBS     r3,r3,#1
        0x0000221c:    d1f7        ..      BNE      0x220e ; disk_readp + 118
        0x0000221e:    1e64        d.      SUBS     r4,r4,#1
        0x00002220:    d405        ..      BMI      0x222e ; disk_readp + 150
        0x00002222:    9903        ..      LDR      r1,[sp,#0xc]
        0x00002224:    190a        ..      ADDS     r2,r1,r4
        0x00002226:    4905        .I      LDR      r1,[pc,#20] ; [0x223c] = 0x1fffff90
        0x00002228:    5c8a        .\      LDRB     r2,[r1,r2]
        0x0000222a:    9901        ..      LDR      r1,[sp,#4]
        0x0000222c:    550a        .U      STRB     r2,[r1,r4]
        0x0000222e:    9902        ..      LDR      r1,[sp,#8]
        0x00002230:    6069        i`      STR      r1,[r5,#4]
        0x00002232:    b005        ..      ADD      sp,sp,#0x14
        0x00002234:    bdf0        ..      POP      {r4-r7,pc}
    $d
        0x00002236:    0000        ..      DCW    0
        0x00002238:    1ffff0b0    ....    DCD    536866992
        0x0000223c:    1fffff90    ....    DCD    536870800
        0x00002240:    20000190    ...     DCD    536871312
    $t
    i.follow_path
    follow_path
        0x00002244:    b5f7        ..      PUSH     {r0-r2,r4-r7,lr}
        0x00002246:    7810        .x      LDRB     r0,[r2,#0]
        0x00002248:    b082        ..      SUB      sp,sp,#8
        0x0000224a:    4616        .F      MOV      r6,r2
        0x0000224c:    2820         (      CMP      r0,#0x20
        0x0000224e:    d103        ..      BNE      0x2258 ; follow_path + 20
        0x00002250:    7870        px      LDRB     r0,[r6,#1]
        0x00002252:    1c76        v.      ADDS     r6,r6,#1
        0x00002254:    2820         (      CMP      r0,#0x20
        0x00002256:    d0fb        ..      BEQ      0x2250 ; follow_path + 12
        0x00002258:    b2c0        ..      UXTB     r0,r0
        0x0000225a:    282f        /(      CMP      r0,#0x2f
        0x0000225c:    d100        ..      BNE      0x2260 ; follow_path + 28
        0x0000225e:    1c76        v.      ADDS     r6,r6,#1
        0x00002260:    9802        ..      LDR      r0,[sp,#8]
        0x00002262:    2200        ."      MOVS     r2,#0
        0x00002264:    6082        .`      STR      r2,[r0,#8]
        0x00002266:    7833        3x      LDRB     r3,[r6,#0]
        0x00002268:    2001        .       MOVS     r0,#1
        0x0000226a:    4989        .I      LDR      r1,[pc,#548] ; [0x2490] = 0x1ffff0b8
        0x0000226c:    2b20         +      CMP      r3,#0x20
        0x0000226e:    d21a        ..      BCS      0x22a6 ; follow_path + 98
        0x00002270:    9b02        ..      LDR      r3,[sp,#8]
        0x00002272:    6809        .h      LDR      r1,[r1,#0]
        0x00002274:    801a        ..      STRH     r2,[r3,#0]
        0x00002276:    688b        .h      LDR      r3,[r1,#8]
        0x00002278:    2b00        .+      CMP      r3,#0
        0x0000227a:    d910        ..      BLS      0x229e ; follow_path + 90
        0x0000227c:    9b02        ..      LDR      r3,[sp,#8]
        0x0000227e:    6908        .i      LDR      r0,[r1,#0x10]
        0x00002280:    60d8        .`      STR      r0,[r3,#0xc]
        0x00002282:    688b        .h      LDR      r3,[r1,#8]
        0x00002284:    1e80        ..      SUBS     r0,r0,#2
        0x00002286:    1e9b        ..      SUBS     r3,r3,#2
        0x00002288:    4283        .B      CMP      r3,r0
        0x0000228a:    d801        ..      BHI      0x2290 ; follow_path + 76
        0x0000228c:    4610        .F      MOV      r0,r2
        0x0000228e:    e003        ..      B        0x2298 ; follow_path + 84
        0x00002290:    788b        .x      LDRB     r3,[r1,#2]
        0x00002292:    4343        CC      MULS     r3,r0,r3
        0x00002294:    6948        Hi      LDR      r0,[r1,#0x14]
        0x00002296:    1818        ..      ADDS     r0,r3,r0
        0x00002298:    9902        ..      LDR      r1,[sp,#8]
        0x0000229a:    6108        .a      STR      r0,[r1,#0x10]
        0x0000229c:    4610        .F      MOV      r0,r2
        0x0000229e:    9903        ..      LDR      r1,[sp,#0xc]
        0x000022a0:    700a        .p      STRB     r2,[r1,#0]
        0x000022a2:    b005        ..      ADD      sp,sp,#0x14
        0x000022a4:    bdf0        ..      POP      {r4-r7,pc}
        0x000022a6:    9802        ..      LDR      r0,[sp,#8]
        0x000022a8:    2120         !      MOVS     r1,#0x20
        0x000022aa:    6844        Dh      LDR      r4,[r0,#4]
        0x000022ac:    2200        ."      MOVS     r2,#0
        0x000022ae:    4623        #F      MOV      r3,r4
        0x000022b0:    7021        !p      STRB     r1,[r4,#0]
        0x000022b2:    2005        .       MOVS     r0,#5
        0x000022b4:    7059        Yp      STRB     r1,[r3,#1]
        0x000022b6:    7099        .p      STRB     r1,[r3,#2]
        0x000022b8:    1e40        @.      SUBS     r0,r0,#1
        0x000022ba:    1c9b        ..      ADDS     r3,r3,#2
        0x000022bc:    2800        .(      CMP      r0,#0
        0x000022be:    d1f9        ..      BNE      0x22b4 ; follow_path + 112
        0x000022c0:    4603        .F      MOV      r3,r0
        0x000022c2:    2508        .%      MOVS     r5,#8
        0x000022c4:    5c31        1\      LDRB     r1,[r6,r0]
        0x000022c6:    1c40        @.      ADDS     r0,r0,#1
        0x000022c8:    b2c0        ..      UXTB     r0,r0
        0x000022ca:    2920         )      CMP      r1,#0x20
        0x000022cc:    d909        ..      BLS      0x22e2 ; follow_path + 158
        0x000022ce:    292f        /)      CMP      r1,#0x2f
        0x000022d0:    d01f        ..      BEQ      0x2312 ; follow_path + 206
        0x000022d2:    292e        .)      CMP      r1,#0x2e
        0x000022d4:    d001        ..      BEQ      0x22da ; follow_path + 150
        0x000022d6:    42ab        .B      CMP      r3,r5
        0x000022d8:    d30b        ..      BCC      0x22f2 ; follow_path + 174
        0x000022da:    2d08        .-      CMP      r5,#8
        0x000022dc:    d101        ..      BNE      0x22e2 ; follow_path + 158
        0x000022de:    292e        .)      CMP      r1,#0x2e
        0x000022e0:    d004        ..      BEQ      0x22ec ; follow_path + 168
        0x000022e2:    1836        6.      ADDS     r6,r6,r0
        0x000022e4:    2920         )      CMP      r1,#0x20
        0x000022e6:    d815        ..      BHI      0x2314 ; follow_path + 208
        0x000022e8:    2001        .       MOVS     r0,#1
        0x000022ea:    e014        ..      B        0x2316 ; follow_path + 210
        0x000022ec:    2308        .#      MOVS     r3,#8
        0x000022ee:    250b        .%      MOVS     r5,#0xb
        0x000022f0:    e7e8        ..      B        0x22c4 ; follow_path + 128
        0x000022f2:    2980        .)      CMP      r1,#0x80
        0x000022f4:    d303        ..      BCC      0x22fe ; follow_path + 186
        0x000022f6:    4f67        gO      LDR      r7,[pc,#412] ; [0x2494] = 0x6a45
        0x000022f8:    1879        y.      ADDS     r1,r7,r1
        0x000022fa:    3980        .9      SUBS     r1,r1,#0x80
        0x000022fc:    7809        .x      LDRB     r1,[r1,#0]
        0x000022fe:    460f        .F      MOV      r7,r1
        0x00002300:    3f61        a?      SUBS     r7,r7,#0x61
        0x00002302:    2f19        ./      CMP      r7,#0x19
        0x00002304:    d801        ..      BHI      0x230a ; follow_path + 198
        0x00002306:    3920         9      SUBS     r1,r1,#0x20
        0x00002308:    b2c9        ..      UXTB     r1,r1
        0x0000230a:    54e1        .T      STRB     r1,[r4,r3]
        0x0000230c:    1c5b        [.      ADDS     r3,r3,#1
        0x0000230e:    b2db        ..      UXTB     r3,r3
        0x00002310:    e7d8        ..      B        0x22c4 ; follow_path + 128
        0x00002312:    1836        6.      ADDS     r6,r6,r0
        0x00002314:    2000        .       MOVS     r0,#0
        0x00002316:    72e0        .r      STRB     r0,[r4,#0xb]
        0x00002318:    4b5d        ]K      LDR      r3,[pc,#372] ; [0x2490] = 0x1ffff0b8
        0x0000231a:    9d02        ..      LDR      r5,[sp,#8]
        0x0000231c:    9f03        ..      LDR      r7,[sp,#0xc]
        0x0000231e:    6819        .h      LDR      r1,[r3,#0]
        0x00002320:    802a        *.      STRH     r2,[r5,#0]
        0x00002322:    68a8        .h      LDR      r0,[r5,#8]
        0x00002324:    2801        .(      CMP      r0,#1
        0x00002326:    d002        ..      BEQ      0x232e ; follow_path + 234
        0x00002328:    688c        .h      LDR      r4,[r1,#8]
        0x0000232a:    4284        .B      CMP      r4,r0
        0x0000232c:    d802        ..      BHI      0x2334 ; follow_path + 240
        0x0000232e:    2001        .       MOVS     r0,#1
        0x00002330:    b005        ..      ADD      sp,sp,#0x14
        0x00002332:    bdf0        ..      POP      {r4-r7,pc}
        0x00002334:    2800        .(      CMP      r0,#0
        0x00002336:    d100        ..      BNE      0x233a ; follow_path + 246
        0x00002338:    6908        .i      LDR      r0,[r1,#0x10]
        0x0000233a:    60e8        .`      STR      r0,[r5,#0xc]
        0x0000233c:    688c        .h      LDR      r4,[r1,#8]
        0x0000233e:    1e80        ..      SUBS     r0,r0,#2
        0x00002340:    1ea4        ..      SUBS     r4,r4,#2
        0x00002342:    4284        .B      CMP      r4,r0
        0x00002344:    d801        ..      BHI      0x234a ; follow_path + 262
        0x00002346:    4610        .F      MOV      r0,r2
        0x00002348:    e003        ..      B        0x2352 ; follow_path + 270
        0x0000234a:    788c        .x      LDRB     r4,[r1,#2]
        0x0000234c:    4344        DC      MULS     r4,r0,r4
        0x0000234e:    6948        Hi      LDR      r0,[r1,#0x14]
        0x00002350:    1820         .      ADDS     r0,r4,r0
        0x00002352:    6128        (a      STR      r0,[r5,#0x10]
        0x00002354:    7828        (x      LDRB     r0,[r5,#0]
        0x00002356:    2320         #      MOVS     r3,#0x20
        0x00002358:    0700        ..      LSLS     r0,r0,#28
        0x0000235a:    0dc2        ..      LSRS     r2,r0,#23
        0x0000235c:    4638        8F      MOV      r0,r7
        0x0000235e:    6929        )i      LDR      r1,[r5,#0x10]
        0x00002360:    f7ffff1a    ....    BL       disk_readp ; 0x2198
        0x00002364:    2800        .(      CMP      r0,#0
        0x00002366:    d15b        [.      BNE      0x2420 ; follow_path + 476
        0x00002368:    4684        .F      MOV      r12,r0
        0x0000236a:    7838        8x      LDRB     r0,[r7,#0]
        0x0000236c:    2800        .(      CMP      r0,#0
        0x0000236e:    d07b        {.      BEQ      0x2468 ; follow_path + 548
        0x00002370:    7af8        .z      LDRB     r0,[r7,#0xb]
        0x00002372:    0700        ..      LSLS     r0,r0,#28
        0x00002374:    d40e        ..      BMI      0x2394 ; follow_path + 336
        0x00002376:    463c        <F      MOV      r4,r7
        0x00002378:    210a        .!      MOVS     r1,#0xa
        0x0000237a:    6868        hh      LDR      r0,[r5,#4]
        0x0000237c:    e001        ..      B        0x2382 ; follow_path + 318
        0x0000237e:    1e49        I.      SUBS     r1,r1,#1
        0x00002380:    d306        ..      BCC      0x2390 ; follow_path + 332
        0x00002382:    7822        "x      LDRB     r2,[r4,#0]
        0x00002384:    7803        .x      LDRB     r3,[r0,#0]
        0x00002386:    1c40        @.      ADDS     r0,r0,#1
        0x00002388:    1c64        d.      ADDS     r4,r4,#1
        0x0000238a:    1ad3        ..      SUBS     r3,r2,r3
        0x0000238c:    d0f7        ..      BEQ      0x237e ; follow_path + 314
        0x0000238e:    e001        ..      B        0x2394 ; follow_path + 336
        0x00002390:    2b00        .+      CMP      r3,#0
        0x00002392:    d05f        _.      BEQ      0x2454 ; follow_path + 528
        0x00002394:    483e        >H      LDR      r0,[pc,#248] ; [0x2490] = 0x1ffff0b8
        0x00002396:    6803        .h      LDR      r3,[r0,#0]
        0x00002398:    9301        ..      STR      r3,[sp,#4]
        0x0000239a:    8829        ).      LDRH     r1,[r5,#0]
        0x0000239c:    1c49        I.      ADDS     r1,r1,#1
        0x0000239e:    040c        ..      LSLS     r4,r1,#16
        0x000023a0:    0c24        $.      LSRS     r4,r4,#16
        0x000023a2:    d01e        ..      BEQ      0x23e2 ; follow_path + 414
        0x000023a4:    692a        *i      LDR      r2,[r5,#0x10]
        0x000023a6:    2a00        .*      CMP      r2,#0
        0x000023a8:    d01b        ..      BEQ      0x23e2 ; follow_path + 414
        0x000023aa:    0721        !.      LSLS     r1,r4,#28
        0x000023ac:    d14f        O.      BNE      0x244e ; follow_path + 522
        0x000023ae:    1c52        R.      ADDS     r2,r2,#1
        0x000023b0:    612a        *a      STR      r2,[r5,#0x10]
        0x000023b2:    68e9        .h      LDR      r1,[r5,#0xc]
        0x000023b4:    468c        .F      MOV      r12,r1
        0x000023b6:    2900        .)      CMP      r1,#0
        0x000023b8:    d00f        ..      BEQ      0x23da ; follow_path + 406
        0x000023ba:    9a01        ..      LDR      r2,[sp,#4]
        0x000023bc:    0921        !.      LSRS     r1,r4,#4
        0x000023be:    7892        .x      LDRB     r2,[r2,#2]
        0x000023c0:    1e52        R.      SUBS     r2,r2,#1
        0x000023c2:    4211        .B      TST      r1,r2
        0x000023c4:    d143        C.      BNE      0x244e ; follow_path + 522
        0x000023c6:    4662        bF      MOV      r2,r12
        0x000023c8:    2a02        .*      CMP      r2,#2
        0x000023ca:    d329        ).      BCC      0x2420 ; follow_path + 476
        0x000023cc:    6898        .h      LDR      r0,[r3,#8]
        0x000023ce:    4290        .B      CMP      r0,r2
        0x000023d0:    d926        &.      BLS      0x2420 ; follow_path + 476
        0x000023d2:    7818        .x      LDRB     r0,[r3,#0]
        0x000023d4:    2803        .(      CMP      r0,#3
        0x000023d6:    d123        #.      BNE      0x2420 ; follow_path + 476
        0x000023d8:    e005        ..      B        0x23e6 ; follow_path + 418
        0x000023da:    9801        ..      LDR      r0,[sp,#4]
        0x000023dc:    8880        ..      LDRH     r0,[r0,#4]
        0x000023de:    42a0        .B      CMP      r0,r4
        0x000023e0:    d835        5.      BHI      0x244e ; follow_path + 522
        0x000023e2:    2003        .       MOVS     r0,#3
        0x000023e4:    e01d        ..      B        0x2422 ; follow_path + 478
        0x000023e6:    68d8        .h      LDR      r0,[r3,#0xc]
        0x000023e8:    09d1        ..      LSRS     r1,r2,#7
        0x000023ea:    1841        A.      ADDS     r1,r0,r1
        0x000023ec:    0650        P.      LSLS     r0,r2,#25
        0x000023ee:    0dc2        ..      LSRS     r2,r0,#23
        0x000023f0:    2304        .#      MOVS     r3,#4
        0x000023f2:    4668        hF      MOV      r0,sp
        0x000023f4:    f7fffed0    ....    BL       disk_readp ; 0x2198
        0x000023f8:    2800        .(      CMP      r0,#0
        0x000023fa:    d111        ..      BNE      0x2420 ; follow_path + 476
        0x000023fc:    4668        hF      MOV      r0,sp
        0x000023fe:    78c0        .x      LDRB     r0,[r0,#3]
        0x00002400:    0201        ..      LSLS     r1,r0,#8
        0x00002402:    4668        hF      MOV      r0,sp
        0x00002404:    7880        .x      LDRB     r0,[r0,#2]
        0x00002406:    4301        .C      ORRS     r1,r1,r0
        0x00002408:    4668        hF      MOV      r0,sp
        0x0000240a:    7840        @x      LDRB     r0,[r0,#1]
        0x0000240c:    0209        ..      LSLS     r1,r1,#8
        0x0000240e:    4301        .C      ORRS     r1,r1,r0
        0x00002410:    4668        hF      MOV      r0,sp
        0x00002412:    7800        .x      LDRB     r0,[r0,#0]
        0x00002414:    0209        ..      LSLS     r1,r1,#8
        0x00002416:    4301        .C      ORRS     r1,r1,r0
        0x00002418:    0108        ..      LSLS     r0,r1,#4
        0x0000241a:    0900        ..      LSRS     r0,r0,#4
        0x0000241c:    2801        .(      CMP      r0,#1
        0x0000241e:    d803        ..      BHI      0x2428 ; follow_path + 484
        0x00002420:    2001        .       MOVS     r0,#1
        0x00002422:    2800        .(      CMP      r0,#0
        0x00002424:    d184        ..      BNE      0x2330 ; follow_path + 236
        0x00002426:    e016        ..      B        0x2456 ; follow_path + 530
        0x00002428:    9901        ..      LDR      r1,[sp,#4]
        0x0000242a:    6889        .h      LDR      r1,[r1,#8]
        0x0000242c:    4281        .B      CMP      r1,r0
        0x0000242e:    d91b        ..      BLS      0x2468 ; follow_path + 548
        0x00002430:    4917        .I      LDR      r1,[pc,#92] ; [0x2490] = 0x1ffff0b8
        0x00002432:    60e8        .`      STR      r0,[r5,#0xc]
        0x00002434:    6809        .h      LDR      r1,[r1,#0]
        0x00002436:    1e80        ..      SUBS     r0,r0,#2
        0x00002438:    688a        .h      LDR      r2,[r1,#8]
        0x0000243a:    1e92        ..      SUBS     r2,r2,#2
        0x0000243c:    4282        .B      CMP      r2,r0
        0x0000243e:    d801        ..      BHI      0x2444 ; follow_path + 512
        0x00002440:    2000        .       MOVS     r0,#0
        0x00002442:    e003        ..      B        0x244c ; follow_path + 520
        0x00002444:    788a        .x      LDRB     r2,[r1,#2]
        0x00002446:    4342        BC      MULS     r2,r0,r2
        0x00002448:    6948        Hi      LDR      r0,[r1,#0x14]
        0x0000244a:    1810        ..      ADDS     r0,r2,r0
        0x0000244c:    6128        (a      STR      r0,[r5,#0x10]
        0x0000244e:    802c        ,.      STRH     r4,[r5,#0]
        0x00002450:    e780        ..      B        0x2354 ; follow_path + 272
        0x00002452:    e009        ..      B        0x2468 ; follow_path + 548
        0x00002454:    4660        `F      MOV      r0,r12
        0x00002456:    9902        ..      LDR      r1,[sp,#8]
        0x00002458:    6849        Ih      LDR      r1,[r1,#4]
        0x0000245a:    7ac9        .z      LDRB     r1,[r1,#0xb]
        0x0000245c:    2900        .)      CMP      r1,#0
        0x0000245e:    d1e1        ..      BNE      0x2424 ; follow_path + 480
        0x00002460:    9803        ..      LDR      r0,[sp,#0xc]
        0x00002462:    7ac0        .z      LDRB     r0,[r0,#0xb]
        0x00002464:    06c0        ..      LSLS     r0,r0,#27
        0x00002466:    d402        ..      BMI      0x246e ; follow_path + 554
        0x00002468:    2003        .       MOVS     r0,#3
        0x0000246a:    b005        ..      ADD      sp,sp,#0x14
        0x0000246c:    bdf0        ..      POP      {r4-r7,pc}
        0x0000246e:    9803        ..      LDR      r0,[sp,#0xc]
        0x00002470:    9903        ..      LDR      r1,[sp,#0xc]
        0x00002472:    7d40        @}      LDRB     r0,[r0,#0x15]
        0x00002474:    7d09        .}      LDRB     r1,[r1,#0x14]
        0x00002476:    0200        ..      LSLS     r0,r0,#8
        0x00002478:    4308        .C      ORRS     r0,r0,r1
        0x0000247a:    0401        ..      LSLS     r1,r0,#16
        0x0000247c:    9803        ..      LDR      r0,[sp,#0xc]
        0x0000247e:    9a03        ..      LDR      r2,[sp,#0xc]
        0x00002480:    7ec0        .~      LDRB     r0,[r0,#0x1b]
        0x00002482:    7e92        .~      LDRB     r2,[r2,#0x1a]
        0x00002484:    0200        ..      LSLS     r0,r0,#8
        0x00002486:    4310        .C      ORRS     r0,r0,r2
        0x00002488:    4308        .C      ORRS     r0,r0,r1
        0x0000248a:    9902        ..      LDR      r1,[sp,#8]
        0x0000248c:    6088        .`      STR      r0,[r1,#8]
        0x0000248e:    e70a        ..      B        0x22a6 ; follow_path + 98
    $d
        0x00002490:    1ffff0b8    ....    DCD    536867000
        0x00002494:    00006a45    Ej..    DCD    27205
    $t
    i.free
    free
        0x00002498:    b510        ..      PUSH     {r4,lr}
        0x0000249a:    2800        .(      CMP      r0,#0
        0x0000249c:    d023        #.      BEQ      0x24e6 ; free + 78
        0x0000249e:    4b12        .K      LDR      r3,[pc,#72] ; [0x24e8] = 0x1ffff0c0
        0x000024a0:    2200        ."      MOVS     r2,#0
        0x000024a2:    1f00        ..      SUBS     r0,r0,#4
        0x000024a4:    6819        .h      LDR      r1,[r3,#0]
        0x000024a6:    e003        ..      B        0x24b0 ; free + 24
        0x000024a8:    4281        .B      CMP      r1,r0
        0x000024aa:    d803        ..      BHI      0x24b4 ; free + 28
        0x000024ac:    460a        .F      MOV      r2,r1
        0x000024ae:    6849        Ih      LDR      r1,[r1,#4]
        0x000024b0:    2900        .)      CMP      r1,#0
        0x000024b2:    d1f9        ..      BNE      0x24a8 ; free + 16
        0x000024b4:    2a00        .*      CMP      r2,#0
        0x000024b6:    d00a        ..      BEQ      0x24ce ; free + 54
        0x000024b8:    6813        .h      LDR      r3,[r2,#0]
        0x000024ba:    1a84        ..      SUBS     r4,r0,r2
        0x000024bc:    429c        .B      CMP      r4,r3
        0x000024be:    d104        ..      BNE      0x24ca ; free + 50
        0x000024c0:    6800        .h      LDR      r0,[r0,#0]
        0x000024c2:    1818        ..      ADDS     r0,r3,r0
        0x000024c4:    6010        .`      STR      r0,[r2,#0]
        0x000024c6:    4610        .F      MOV      r0,r2
        0x000024c8:    e002        ..      B        0x24d0 ; free + 56
        0x000024ca:    6050        P`      STR      r0,[r2,#4]
        0x000024cc:    e000        ..      B        0x24d0 ; free + 56
        0x000024ce:    6018        .`      STR      r0,[r3,#0]
        0x000024d0:    2900        .)      CMP      r1,#0
        0x000024d2:    d007        ..      BEQ      0x24e4 ; free + 76
        0x000024d4:    6802        .h      LDR      r2,[r0,#0]
        0x000024d6:    1a0b        ..      SUBS     r3,r1,r0
        0x000024d8:    4293        .B      CMP      r3,r2
        0x000024da:    d103        ..      BNE      0x24e4 ; free + 76
        0x000024dc:    680b        .h      LDR      r3,[r1,#0]
        0x000024de:    18d2        ..      ADDS     r2,r2,r3
        0x000024e0:    6002        .`      STR      r2,[r0,#0]
        0x000024e2:    6849        Ih      LDR      r1,[r1,#4]
        0x000024e4:    6041        A`      STR      r1,[r0,#4]
        0x000024e6:    bd10        ..      POP      {r4,pc}
    $d
        0x000024e8:    1ffff0c0    ....    DCD    536867008
    $t
    i.getBits
    getBits
    __tagsym$$noinline
        0x000024ec:    b5f3        ..      PUSH     {r0,r1,r4-r7,lr}
        0x000024ee:    4c1d        .L      LDR      r4,[pc,#116] ; [0x2564] = 0x1ffff058
        0x000024f0:    b081        ..      SUB      sp,sp,#4
        0x000024f2:    89e6        ..      LDRH     r6,[r4,#0xe]
        0x000024f4:    4605        .F      MOV      r5,r0
        0x000024f6:    4607        .F      MOV      r7,r0
        0x000024f8:    2808        .(      CMP      r0,#8
        0x000024fa:    d915        ..      BLS      0x2528 ; getBits + 60
        0x000024fc:    463d        =F      MOV      r5,r7
        0x000024fe:    3d08        .=      SUBS     r5,r5,#8
        0x00002500:    7961        ay      LDRB     r1,[r4,#5]
        0x00002502:    4630        0F      MOV      r0,r6
        0x00002504:    4088        .@      LSLS     r0,r0,r1
        0x00002506:    81e0        ..      STRH     r0,[r4,#0xe]
        0x00002508:    b2ed        ..      UXTB     r5,r5
        0x0000250a:    9802        ..      LDR      r0,[sp,#8]
        0x0000250c:    f000f864    ..d.    BL       getOctet ; 0x25d8
        0x00002510:    89e1        ..      LDRH     r1,[r4,#0xe]
        0x00002512:    7962        by      LDRB     r2,[r4,#5]
        0x00002514:    4308        .C      ORRS     r0,r0,r1
        0x00002516:    2108        .!      MOVS     r1,#8
        0x00002518:    1a89        ..      SUBS     r1,r1,r2
        0x0000251a:    4088        .@      LSLS     r0,r0,r1
        0x0000251c:    b280        ..      UXTH     r0,r0
        0x0000251e:    0a36        6.      LSRS     r6,r6,#8
        0x00002520:    81e0        ..      STRH     r0,[r4,#0xe]
        0x00002522:    0236        6.      LSLS     r6,r6,#8
        0x00002524:    0a00        ..      LSRS     r0,r0,#8
        0x00002526:    4306        .C      ORRS     r6,r6,r0
        0x00002528:    7960        `y      LDRB     r0,[r4,#5]
        0x0000252a:    42a8        .B      CMP      r0,r5
        0x0000252c:    d20f        ..      BCS      0x254e ; getBits + 98
        0x0000252e:    89e1        ..      LDRH     r1,[r4,#0xe]
        0x00002530:    4081        .@      LSLS     r1,r1,r0
        0x00002532:    81e1        ..      STRH     r1,[r4,#0xe]
        0x00002534:    9802        ..      LDR      r0,[sp,#8]
        0x00002536:    f000f84f    ..O.    BL       getOctet ; 0x25d8
        0x0000253a:    89e1        ..      LDRH     r1,[r4,#0xe]
        0x0000253c:    4308        .C      ORRS     r0,r0,r1
        0x0000253e:    7961        ay      LDRB     r1,[r4,#5]
        0x00002540:    1a69        i.      SUBS     r1,r5,r1
        0x00002542:    4088        .@      LSLS     r0,r0,r1
        0x00002544:    81e0        ..      STRH     r0,[r4,#0xe]
        0x00002546:    2008        .       MOVS     r0,#8
        0x00002548:    1a40        @.      SUBS     r0,r0,r1
        0x0000254a:    7160        `q      STRB     r0,[r4,#5]
        0x0000254c:    e004        ..      B        0x2558 ; getBits + 108
        0x0000254e:    1b40        @.      SUBS     r0,r0,r5
        0x00002550:    7160        `q      STRB     r0,[r4,#5]
        0x00002552:    89e0        ..      LDRH     r0,[r4,#0xe]
        0x00002554:    40a8        .@      LSLS     r0,r0,r5
        0x00002556:    81e0        ..      STRH     r0,[r4,#0xe]
        0x00002558:    2010        .       MOVS     r0,#0x10
        0x0000255a:    1bc1        ..      SUBS     r1,r0,r7
        0x0000255c:    4630        0F      MOV      r0,r6
        0x0000255e:    40c8        .@      LSRS     r0,r0,r1
        0x00002560:    b003        ..      ADD      sp,sp,#0xc
        0x00002562:    bdf0        ..      POP      {r4-r7,pc}
    $d
        0x00002564:    1ffff058    X...    DCD    536866904
    $t
    i.getBits1
    getBits1
    __tagsym$$noinline
        0x00002568:    b510        ..      PUSH     {r4,lr}
        0x0000256a:    2100        .!      MOVS     r1,#0
        0x0000256c:    f7ffffbe    ....    BL       getBits ; 0x24ec
        0x00002570:    bd10        ..      POP      {r4,pc}
    i.getBits2
    getBits2
    __tagsym$$noinline
        0x00002572:    b510        ..      PUSH     {r4,lr}
        0x00002574:    2101        .!      MOVS     r1,#1
        0x00002576:    f7ffffb9    ....    BL       getBits ; 0x24ec
        0x0000257a:    bd10        ..      POP      {r4,pc}
    i.getChar
    getChar
        0x0000257c:    b570        p.      PUSH     {r4-r6,lr}
        0x0000257e:    4c13        .L      LDR      r4,[pc,#76] ; [0x25cc] = 0x1ffff058
        0x00002580:    4d13        .M      LDR      r5,[pc,#76] ; [0x25d0] = 0x1ffffe90
        0x00002582:    7920         y      LDRB     r0,[r4,#4]
        0x00002584:    2800        .(      CMP      r0,#0
        0x00002586:    d10f        ..      BNE      0x25a8 ; getChar + 44
        0x00002588:    2004        .       MOVS     r0,#4
        0x0000258a:    70e0        .p      STRB     r0,[r4,#3]
        0x0000258c:    2000        .       MOVS     r0,#0
        0x0000258e:    7120         q      STRB     r0,[r4,#4]
        0x00002590:    21fc        .!      MOVS     r1,#0xfc
        0x00002592:    6ba6        .k      LDR      r6,[r4,#0x38]
        0x00002594:    1d28        (.      ADDS     r0,r5,#4
        0x00002596:    4a0f        .J      LDR      r2,[pc,#60] ; [0x25d4] = 0x1ffff05c
        0x00002598:    6be3        .k      LDR      r3,[r4,#0x3c]
        0x0000259a:    47b0        .G      BLX      r6
        0x0000259c:    2800        .(      CMP      r0,#0
        0x0000259e:    d000        ..      BEQ      0x25a2 ; getChar + 38
        0x000025a0:    7320         s      STRB     r0,[r4,#0xc]
        0x000025a2:    7920         y      LDRB     r0,[r4,#4]
        0x000025a4:    2800        .(      CMP      r0,#0
        0x000025a6:    d007        ..      BEQ      0x25b8 ; getChar + 60
        0x000025a8:    b2c0        ..      UXTB     r0,r0
        0x000025aa:    1e40        @.      SUBS     r0,r0,#1
        0x000025ac:    7120         q      STRB     r0,[r4,#4]
        0x000025ae:    78e1        .x      LDRB     r1,[r4,#3]
        0x000025b0:    5c68        h\      LDRB     r0,[r5,r1]
        0x000025b2:    1c49        I.      ADDS     r1,r1,#1
        0x000025b4:    70e1        .p      STRB     r1,[r4,#3]
        0x000025b6:    bd70        p.      POP      {r4-r6,pc}
        0x000025b8:    78a0        .x      LDRB     r0,[r4,#2]
        0x000025ba:    43c0        .C      MVNS     r0,r0
        0x000025bc:    0600        ..      LSLS     r0,r0,#24
        0x000025be:    0e00        ..      LSRS     r0,r0,#24
        0x000025c0:    70a0        .p      STRB     r0,[r4,#2]
        0x000025c2:    d001        ..      BEQ      0x25c8 ; getChar + 76
        0x000025c4:    20ff        .       MOVS     r0,#0xff
        0x000025c6:    bd70        p.      POP      {r4-r6,pc}
        0x000025c8:    20d9        .       MOVS     r0,#0xd9
        0x000025ca:    bd70        p.      POP      {r4-r6,pc}
    $d
        0x000025cc:    1ffff058    X...    DCD    536866904
        0x000025d0:    1ffffe90    ....    DCD    536870544
        0x000025d4:    1ffff05c    \...    DCD    536866908
    $t
    i.getOctet
    getOctet
        0x000025d8:    b570        p.      PUSH     {r4-r6,lr}
        0x000025da:    4605        .F      MOV      r5,r0
        0x000025dc:    f7ffffce    ....    BL       getChar ; 0x257c
        0x000025e0:    4604        .F      MOV      r4,r0
        0x000025e2:    2d00        .-      CMP      r5,#0
        0x000025e4:    d013        ..      BEQ      0x260e ; getOctet + 54
        0x000025e6:    2cff        .,      CMP      r4,#0xff
        0x000025e8:    d111        ..      BNE      0x260e ; getOctet + 54
        0x000025ea:    f7ffffc7    ....    BL       getChar ; 0x257c
        0x000025ee:    2800        .(      CMP      r0,#0
        0x000025f0:    d00d        ..      BEQ      0x260e ; getOctet + 54
        0x000025f2:    4908        .I      LDR      r1,[pc,#32] ; [0x2614] = 0x1ffff058
        0x000025f4:    4b08        .K      LDR      r3,[pc,#32] ; [0x2618] = 0x1ffffe90
        0x000025f6:    78ca        .x      LDRB     r2,[r1,#3]
        0x000025f8:    25ff        .%      MOVS     r5,#0xff
        0x000025fa:    1e52        R.      SUBS     r2,r2,#1
        0x000025fc:    b2d2        ..      UXTB     r2,r2
        0x000025fe:    5498        .T      STRB     r0,[r3,r2]
        0x00002600:    1e52        R.      SUBS     r2,r2,#1
        0x00002602:    7908        .y      LDRB     r0,[r1,#4]
        0x00002604:    b2d2        ..      UXTB     r2,r2
        0x00002606:    70ca        .p      STRB     r2,[r1,#3]
        0x00002608:    549d        .T      STRB     r5,[r3,r2]
        0x0000260a:    1c80        ..      ADDS     r0,r0,#2
        0x0000260c:    7108        .q      STRB     r0,[r1,#4]
        0x0000260e:    4620         F      MOV      r0,r4
        0x00002610:    bd70        p.      POP      {r4-r6,pc}
    $d
        0x00002612:    0000        ..      DCW    0
        0x00002614:    1ffff058    X...    DCD    536866904
        0x00002618:    1ffffe90    ....    DCD    536870544
    $t
    i.huffDecode
    huffDecode
    __tagsym$$noinline
        0x0000261c:    b5f3        ..      PUSH     {r0,r1,r4-r7,lr}
        0x0000261e:    4f2b        +O      LDR      r7,[pc,#172] ; [0x26cc] = 0x1ffff058
        0x00002620:    2500        .%      MOVS     r5,#0
        0x00002622:    89f9        ..      LDRH     r1,[r7,#0xe]
        0x00002624:    4606        .F      MOV      r6,r0
        0x00002626:    b081        ..      SUB      sp,sp,#4
        0x00002628:    462c        ,F      MOV      r4,r5
        0x0000262a:    0408        ..      LSLS     r0,r1,#16
        0x0000262c:    d500        ..      BPL      0x2630 ; huffDecode + 20
        0x0000262e:    2401        .$      MOVS     r4,#1
        0x00002630:    7978        xy      LDRB     r0,[r7,#5]
        0x00002632:    2800        .(      CMP      r0,#0
        0x00002634:    d004        ..      BEQ      0x2640 ; huffDecode + 36
        0x00002636:    1e40        @.      SUBS     r0,r0,#1
        0x00002638:    7178        xq      STRB     r0,[r7,#5]
        0x0000263a:    0048        H.      LSLS     r0,r1,#1
        0x0000263c:    81f8        ..      STRH     r0,[r7,#0xe]
        0x0000263e:    e00d        ..      B        0x265c ; huffDecode + 64
        0x00002640:    2001        .       MOVS     r0,#1
        0x00002642:    f7ffffc9    ....    BL       getOctet ; 0x25d8
        0x00002646:    89f9        ..      LDRH     r1,[r7,#0xe]
        0x00002648:    4301        .C      ORRS     r1,r1,r0
        0x0000264a:    7978        xy      LDRB     r0,[r7,#5]
        0x0000264c:    1dc0        ..      ADDS     r0,r0,#7
        0x0000264e:    7178        xq      STRB     r0,[r7,#5]
        0x00002650:    0048        H.      LSLS     r0,r1,#1
        0x00002652:    81f8        ..      STRH     r0,[r7,#0xe]
        0x00002654:    e002        ..      B        0x265c ; huffDecode + 64
        0x00002656:    2000        .       MOVS     r0,#0
        0x00002658:    b003        ..      ADD      sp,sp,#0xc
        0x0000265a:    bdf0        ..      POP      {r4-r7,pc}
        0x0000265c:    0068        h.      LSLS     r0,r5,#1
        0x0000265e:    1980        ..      ADDS     r0,r0,r6
        0x00002660:    8c00        ..      LDRH     r0,[r0,#0x20]
        0x00002662:    4284        .B      CMP      r4,r0
        0x00002664:    d802        ..      BHI      0x266c ; huffDecode + 80
        0x00002666:    491a        .I      LDR      r1,[pc,#104] ; [0x26d0] = 0xffff
        0x00002668:    4288        .B      CMP      r0,r1
        0x0000266a:    d122        ".      BNE      0x26b2 ; huffDecode + 150
        0x0000266c:    0460        `.      LSLS     r0,r4,#17
        0x0000266e:    0c07        ..      LSRS     r7,r0,#16
        0x00002670:    4816        .H      LDR      r0,[pc,#88] ; [0x26cc] = 0x1ffff058
        0x00002672:    1c6d        m.      ADDS     r5,r5,#1
        0x00002674:    89c1        ..      LDRH     r1,[r0,#0xe]
        0x00002676:    2400        .$      MOVS     r4,#0
        0x00002678:    b2ed        ..      UXTB     r5,r5
        0x0000267a:    040a        ..      LSLS     r2,r1,#16
        0x0000267c:    d500        ..      BPL      0x2680 ; huffDecode + 100
        0x0000267e:    2401        .$      MOVS     r4,#1
        0x00002680:    4812        .H      LDR      r0,[pc,#72] ; [0x26cc] = 0x1ffff058
        0x00002682:    7940        @y      LDRB     r0,[r0,#5]
        0x00002684:    2800        .(      CMP      r0,#0
        0x00002686:    d008        ..      BEQ      0x269a ; huffDecode + 126
        0x00002688:    4a10        .J      LDR      r2,[pc,#64] ; [0x26cc] = 0x1ffff058
        0x0000268a:    1e40        @.      SUBS     r0,r0,#1
        0x0000268c:    7150        Pq      STRB     r0,[r2,#5]
        0x0000268e:    0048        H.      LSLS     r0,r1,#1
        0x00002690:    81d0        ..      STRH     r0,[r2,#0xe]
        0x00002692:    433c        <C      ORRS     r4,r4,r7
        0x00002694:    2d10        .-      CMP      r5,#0x10
        0x00002696:    d1e1        ..      BNE      0x265c ; huffDecode + 64
        0x00002698:    e7dd        ..      B        0x2656 ; huffDecode + 58
        0x0000269a:    2001        .       MOVS     r0,#1
        0x0000269c:    f7ffff9c    ....    BL       getOctet ; 0x25d8
        0x000026a0:    490a        .I      LDR      r1,[pc,#40] ; [0x26cc] = 0x1ffff058
        0x000026a2:    89ca        ..      LDRH     r2,[r1,#0xe]
        0x000026a4:    4302        .C      ORRS     r2,r2,r0
        0x000026a6:    7948        Hy      LDRB     r0,[r1,#5]
        0x000026a8:    1dc0        ..      ADDS     r0,r0,#7
        0x000026aa:    7148        Hq      STRB     r0,[r1,#5]
        0x000026ac:    0050        P.      LSLS     r0,r2,#1
        0x000026ae:    81c8        ..      STRH     r0,[r1,#0xe]
        0x000026b0:    e7ef        ..      B        0x2692 ; huffDecode + 118
        0x000026b2:    1970        p.      ADDS     r0,r6,r5
        0x000026b4:    0069        i.      LSLS     r1,r5,#1
        0x000026b6:    3040        @0      ADDS     r0,r0,#0x40
        0x000026b8:    5c71        q\      LDRB     r1,[r6,r1]
        0x000026ba:    7800        .x      LDRB     r0,[r0,#0]
        0x000026bc:    1a61        a.      SUBS     r1,r4,r1
        0x000026be:    1808        ..      ADDS     r0,r1,r0
        0x000026c0:    9902        ..      LDR      r1,[sp,#8]
        0x000026c2:    b2c0        ..      UXTB     r0,r0
        0x000026c4:    5c08        .\      LDRB     r0,[r1,r0]
        0x000026c6:    b003        ..      ADD      sp,sp,#0xc
        0x000026c8:    bdf0        ..      POP      {r4-r7,pc}
    $d
        0x000026ca:    0000        ..      DCW    0
        0x000026cc:    1ffff058    X...    DCD    536866904
        0x000026d0:    0000ffff    ....    DCD    65535
    $t
    i.huffExtend
    huffExtend
    __tagsym$$noinline
        0x000026d4:    b202        ..      SXTH     r2,r0
        0x000026d6:    2910        .)      CMP      r1,#0x10
        0x000026d8:    d25e        ^.      BCS      0x2798 ; huffExtend + 196
        0x000026da:    000b        ..      MOVS     r3,r1
        0x000026dc:    447b        {D      ADD      r3,r3,pc
        0x000026de:    791b        .y      LDRB     r3,[r3,#4]
        0x000026e0:    18db        ..      ADDS     r3,r3,r3
        0x000026e2:    449f        .D      ADD      pc,pc,r3
    $d
        0x000026e4:    110c0759    Y...    DCD    286000985
        0x000026e8:    25201b16    .. %    DCD    622861078
        0x000026ec:    3b352f2a    */5;    DCD    993341226
        0x000026f0:    534d4741    AGMS    DCD    1397573441
    $t
        0x000026f4:    2801        .(      CMP      r0,#1
        0x000026f6:    d24f        O.      BCS      0x2798 ; huffExtend + 196
        0x000026f8:    2000        .       MOVS     r0,#0
        0x000026fa:    43c0        .C      MVNS     r0,r0
        0x000026fc:    e04b        K.      B        0x2796 ; huffExtend + 194
        0x000026fe:    2802        .(      CMP      r0,#2
        0x00002700:    d24a        J.      BCS      0x2798 ; huffExtend + 196
        0x00002702:    2002        .       MOVS     r0,#2
        0x00002704:    43c0        .C      MVNS     r0,r0
        0x00002706:    e046        F.      B        0x2796 ; huffExtend + 194
        0x00002708:    2804        .(      CMP      r0,#4
        0x0000270a:    d245        E.      BCS      0x2798 ; huffExtend + 196
        0x0000270c:    2006        .       MOVS     r0,#6
        0x0000270e:    43c0        .C      MVNS     r0,r0
        0x00002710:    e041        A.      B        0x2796 ; huffExtend + 194
        0x00002712:    2808        .(      CMP      r0,#8
        0x00002714:    d240        @.      BCS      0x2798 ; huffExtend + 196
        0x00002716:    200e        .       MOVS     r0,#0xe
        0x00002718:    43c0        .C      MVNS     r0,r0
        0x0000271a:    e03c        <.      B        0x2796 ; huffExtend + 194
        0x0000271c:    2810        .(      CMP      r0,#0x10
        0x0000271e:    d23b        ;.      BCS      0x2798 ; huffExtend + 196
        0x00002720:    201e        .       MOVS     r0,#0x1e
        0x00002722:    43c0        .C      MVNS     r0,r0
        0x00002724:    e037        7.      B        0x2796 ; huffExtend + 194
        0x00002726:    2820         (      CMP      r0,#0x20
        0x00002728:    d236        6.      BCS      0x2798 ; huffExtend + 196
        0x0000272a:    203e        >       MOVS     r0,#0x3e
        0x0000272c:    43c0        .C      MVNS     r0,r0
        0x0000272e:    e032        2.      B        0x2796 ; huffExtend + 194
        0x00002730:    2840        @(      CMP      r0,#0x40
        0x00002732:    d231        1.      BCS      0x2798 ; huffExtend + 196
        0x00002734:    207e        ~       MOVS     r0,#0x7e
        0x00002736:    43c0        .C      MVNS     r0,r0
        0x00002738:    e02d        -.      B        0x2796 ; huffExtend + 194
        0x0000273a:    2880        .(      CMP      r0,#0x80
        0x0000273c:    d22c        ,.      BCS      0x2798 ; huffExtend + 196
        0x0000273e:    20fe        .       MOVS     r0,#0xfe
        0x00002740:    43c0        .C      MVNS     r0,r0
        0x00002742:    e028        (.      B        0x2796 ; huffExtend + 194
        0x00002744:    21ff        .!      MOVS     r1,#0xff
        0x00002746:    3101        .1      ADDS     r1,#1
        0x00002748:    4288        .B      CMP      r0,r1
        0x0000274a:    d225        %.      BCS      0x2798 ; huffExtend + 196
        0x0000274c:    4813        .H      LDR      r0,[pc,#76] ; [0x279c] = 0xfffffe01
        0x0000274e:    e022        ".      B        0x2796 ; huffExtend + 194
        0x00002750:    2101        .!      MOVS     r1,#1
        0x00002752:    0249        I.      LSLS     r1,r1,#9
        0x00002754:    4288        .B      CMP      r0,r1
        0x00002756:    d21f        ..      BCS      0x2798 ; huffExtend + 196
        0x00002758:    4811        .H      LDR      r0,[pc,#68] ; [0x27a0] = 0xfffffc01
        0x0000275a:    e01c        ..      B        0x2796 ; huffExtend + 194
        0x0000275c:    2101        .!      MOVS     r1,#1
        0x0000275e:    0289        ..      LSLS     r1,r1,#10
        0x00002760:    4288        .B      CMP      r0,r1
        0x00002762:    d219        ..      BCS      0x2798 ; huffExtend + 196
        0x00002764:    480f        .H      LDR      r0,[pc,#60] ; [0x27a4] = 0xfffff801
        0x00002766:    e016        ..      B        0x2796 ; huffExtend + 194
        0x00002768:    2101        .!      MOVS     r1,#1
        0x0000276a:    02c9        ..      LSLS     r1,r1,#11
        0x0000276c:    4288        .B      CMP      r0,r1
        0x0000276e:    d213        ..      BCS      0x2798 ; huffExtend + 196
        0x00002770:    480d        .H      LDR      r0,[pc,#52] ; [0x27a8] = 0xfffff001
        0x00002772:    e010        ..      B        0x2796 ; huffExtend + 194
        0x00002774:    2101        .!      MOVS     r1,#1
        0x00002776:    0309        ..      LSLS     r1,r1,#12
        0x00002778:    4288        .B      CMP      r0,r1
        0x0000277a:    d20d        ..      BCS      0x2798 ; huffExtend + 196
        0x0000277c:    480b        .H      LDR      r0,[pc,#44] ; [0x27ac] = 0xffffe001
        0x0000277e:    e00a        ..      B        0x2796 ; huffExtend + 194
        0x00002780:    2101        .!      MOVS     r1,#1
        0x00002782:    0349        I.      LSLS     r1,r1,#13
        0x00002784:    4288        .B      CMP      r0,r1
        0x00002786:    d207        ..      BCS      0x2798 ; huffExtend + 196
        0x00002788:    4809        .H      LDR      r0,[pc,#36] ; [0x27b0] = 0xffffc001
        0x0000278a:    e004        ..      B        0x2796 ; huffExtend + 194
        0x0000278c:    2101        .!      MOVS     r1,#1
        0x0000278e:    0389        ..      LSLS     r1,r1,#14
        0x00002790:    4288        .B      CMP      r0,r1
        0x00002792:    d201        ..      BCS      0x2798 ; huffExtend + 196
        0x00002794:    4807        .H      LDR      r0,[pc,#28] ; [0x27b4] = 0xffff8001
        0x00002796:    1882        ..      ADDS     r2,r0,r2
        0x00002798:    b210        ..      SXTH     r0,r2
        0x0000279a:    4770        pG      BX       lr
    $d
        0x0000279c:    fffffe01    ....    DCD    4294966785
        0x000027a0:    fffffc01    ....    DCD    4294966273
        0x000027a4:    fffff801    ....    DCD    4294965249
        0x000027a8:    fffff001    ....    DCD    4294963201
        0x000027ac:    ffffe001    ....    DCD    4294959105
        0x000027b0:    ffffc001    ....    DCD    4294950913
        0x000027b4:    ffff8001    ....    DCD    4294934529
    $t
    i.idctCols
    idctCols
    __tagsym$$noinline
        0x000027b8:    b5f0        ..      PUSH     {r4-r7,lr}
        0x000027ba:    4894        .H      LDR      r0,[pc,#592] ; [0x2a0c] = 0x1ffff6b0
        0x000027bc:    2100        .!      MOVS     r1,#0
        0x000027be:    b084        ..      SUB      sp,sp,#0x10
        0x000027c0:    468c        .F      MOV      r12,r1
        0x000027c2:    2210        ."      MOVS     r2,#0x10
        0x000027c4:    5e82        .^      LDRSH    r2,[r0,r2]
        0x000027c6:    2a00        .*      CMP      r2,#0
        0x000027c8:    d113        ..      BNE      0x27f2 ; idctCols + 58
        0x000027ca:    8c01        ..      LDRH     r1,[r0,#0x20]
        0x000027cc:    2900        .)      CMP      r1,#0
        0x000027ce:    d110        ..      BNE      0x27f2 ; idctCols + 58
        0x000027d0:    8e01        ..      LDRH     r1,[r0,#0x30]
        0x000027d2:    2900        .)      CMP      r1,#0
        0x000027d4:    d10d        ..      BNE      0x27f2 ; idctCols + 58
        0x000027d6:    4601        .F      MOV      r1,r0
        0x000027d8:    3140        @1      ADDS     r1,r1,#0x40
        0x000027da:    880b        ..      LDRH     r3,[r1,#0]
        0x000027dc:    2b00        .+      CMP      r3,#0
        0x000027de:    d108        ..      BNE      0x27f2 ; idctCols + 58
        0x000027e0:    8a0b        ..      LDRH     r3,[r1,#0x10]
        0x000027e2:    2b00        .+      CMP      r3,#0
        0x000027e4:    d105        ..      BNE      0x27f2 ; idctCols + 58
        0x000027e6:    8c0b        ..      LDRH     r3,[r1,#0x20]
        0x000027e8:    2b00        .+      CMP      r3,#0
        0x000027ea:    d102        ..      BNE      0x27f2 ; idctCols + 58
        0x000027ec:    8e0b        ..      LDRH     r3,[r1,#0x30]
        0x000027ee:    2b00        .+      CMP      r3,#0
        0x000027f0:    d05b        [.      BEQ      0x28aa ; idctCols + 242
        0x000027f2:    4601        .F      MOV      r1,r0
        0x000027f4:    3140        @1      ADDS     r1,r1,#0x40
        0x000027f6:    8a0d        ..      LDRH     r5,[r1,#0x10]
        0x000027f8:    8e04        ..      LDRH     r4,[r0,#0x30]
        0x000027fa:    1b2b        +.      SUBS     r3,r5,r4
        0x000027fc:    192f        /.      ADDS     r7,r5,r4
        0x000027fe:    8e0c        ..      LDRH     r4,[r1,#0x30]
        0x00002800:    b21b        ..      SXTH     r3,r3
        0x00002802:    1916        ..      ADDS     r6,r2,r4
        0x00002804:    1b12        ..      SUBS     r2,r2,r4
        0x00002806:    b212        ..      SXTH     r2,r2
        0x00002808:    1a9c        ..      SUBS     r4,r3,r2
        0x0000280a:    b224        $.      SXTH     r4,r4
        0x0000280c:    25c4        .%      MOVS     r5,#0xc4
        0x0000280e:    436c        lC      MULS     r4,r5,r4
        0x00002810:    25ff        .%      MOVS     r5,#0xff
        0x00002812:    3516        .5      ADDS     r5,r5,#0x16
        0x00002814:    436a        jC      MULS     r2,r5,r2
        0x00002816:    4d7e        ~M      LDR      r5,[pc,#504] ; [0x2a10] = 0x29d
        0x00002818:    3480        .4      ADDS     r4,r4,#0x80
        0x0000281a:    436b        kC      MULS     r3,r5,r3
        0x0000281c:    1224        $.      ASRS     r4,r4,#8
        0x0000281e:    3380        .3      ADDS     r3,r3,#0x80
        0x00002820:    121b        ..      ASRS     r3,r3,#8
        0x00002822:    1ae5        ..      SUBS     r5,r4,r3
        0x00002824:    3280        .2      ADDS     r2,r2,#0x80
        0x00002826:    46ae        .F      MOV      lr,r5
        0x00002828:    1bf3        ..      SUBS     r3,r6,r7
        0x0000282a:    1212        ..      ASRS     r2,r2,#8
        0x0000282c:    b21d        ..      SXTH     r5,r3
        0x0000282e:    1b12        ..      SUBS     r2,r2,r4
        0x00002830:    19f3        ..      ADDS     r3,r6,r7
        0x00002832:    b21c        ..      SXTH     r4,r3
        0x00002834:    1b12        ..      SUBS     r2,r2,r4
        0x00002836:    b213        ..      SXTH     r3,r2
        0x00002838:    22ff        ."      MOVS     r2,#0xff
        0x0000283a:    326b        k2      ADDS     r2,r2,#0x6b
        0x0000283c:    4355        UC      MULS     r5,r2,r5
        0x0000283e:    3580        .5      ADDS     r5,r5,#0x80
        0x00002840:    122a        *.      ASRS     r2,r5,#8
        0x00002842:    1ad2        ..      SUBS     r2,r2,r3
        0x00002844:    b212        ..      SXTH     r2,r2
        0x00002846:    4675        uF      MOV      r5,lr
        0x00002848:    1955        U.      ADDS     r5,r2,r5
        0x0000284a:    b22d        -.      SXTH     r5,r5
        0x0000284c:    9502        ..      STR      r5,[sp,#8]
        0x0000284e:    8805        ..      LDRH     r5,[r0,#0]
        0x00002850:    880e        ..      LDRH     r6,[r1,#0]
        0x00002852:    19af        ..      ADDS     r7,r5,r6
        0x00002854:    1bad        ..      SUBS     r5,r5,r6
        0x00002856:    9703        ..      STR      r7,[sp,#0xc]
        0x00002858:    9501        ..      STR      r5,[sp,#4]
        0x0000285a:    8c07        ..      LDRH     r7,[r0,#0x20]
        0x0000285c:    8c0e        ..      LDRH     r6,[r1,#0x20]
        0x0000285e:    1bbd        ..      SUBS     r5,r7,r6
        0x00002860:    19be        ..      ADDS     r6,r7,r6
        0x00002862:    27ff        .'      MOVS     r7,#0xff
        0x00002864:    b22d        -.      SXTH     r5,r5
        0x00002866:    376b        k7      ADDS     r7,r7,#0x6b
        0x00002868:    437d        }C      MULS     r5,r7,r5
        0x0000286a:    3580        .5      ADDS     r5,r5,#0x80
        0x0000286c:    122d        -.      ASRS     r5,r5,#8
        0x0000286e:    1baf        ..      SUBS     r7,r5,r6
        0x00002870:    46be        .F      MOV      lr,r7
        0x00002872:    9f03        ..      LDR      r7,[sp,#0xc]
        0x00002874:    19bd        ..      ADDS     r5,r7,r6
        0x00002876:    b22d        -.      SXTH     r5,r5
        0x00002878:    9500        ..      STR      r5,[sp,#0]
        0x0000287a:    1bbd        ..      SUBS     r5,r7,r6
        0x0000287c:    b22e        ..      SXTH     r6,r5
        0x0000287e:    9d01        ..      LDR      r5,[sp,#4]
        0x00002880:    4677        wF      MOV      r7,lr
        0x00002882:    4475        uD      ADD      r5,r5,lr
        0x00002884:    b22d        -.      SXTH     r5,r5
        0x00002886:    9503        ..      STR      r5,[sp,#0xc]
        0x00002888:    9d01        ..      LDR      r5,[sp,#4]
        0x0000288a:    1bed        ..      SUBS     r5,r5,r7
        0x0000288c:    b22d        -.      SXTH     r5,r5
        0x0000288e:    46ae        .F      MOV      lr,r5
        0x00002890:    9d00        ..      LDR      r5,[sp,#0]
        0x00002892:    192d        -.      ADDS     r5,r5,r4
        0x00002894:    3540        @5      ADDS     r5,r5,#0x40
        0x00002896:    09ed        ..      LSRS     r5,r5,#7
        0x00002898:    3580        .5      ADDS     r5,r5,#0x80
        0x0000289a:    b22d        -.      SXTH     r5,r5
        0x0000289c:    b2af        ..      UXTH     r7,r5
        0x0000289e:    2fff        ./      CMP      r7,#0xff
        0x000028a0:    d922        ".      BLS      0x28e8 ; idctCols + 304
        0x000028a2:    2d00        .-      CMP      r5,#0
        0x000028a4:    da1c        ..      BGE      0x28e0 ; idctCols + 296
        0x000028a6:    2500        .%      MOVS     r5,#0
        0x000028a8:    e01f        ..      B        0x28ea ; idctCols + 306
        0x000028aa:    2200        ."      MOVS     r2,#0
        0x000028ac:    5e82        .^      LDRSH    r2,[r0,r2]
        0x000028ae:    3240        @2      ADDS     r2,r2,#0x40
        0x000028b0:    09d2        ..      LSRS     r2,r2,#7
        0x000028b2:    3280        .2      ADDS     r2,r2,#0x80
        0x000028b4:    b212        ..      SXTH     r2,r2
        0x000028b6:    b293        ..      UXTH     r3,r2
        0x000028b8:    2bff        .+      CMP      r3,#0xff
        0x000028ba:    d907        ..      BLS      0x28cc ; idctCols + 276
        0x000028bc:    2a00        .*      CMP      r2,#0
        0x000028be:    da01        ..      BGE      0x28c4 ; idctCols + 268
        0x000028c0:    2200        ."      MOVS     r2,#0
        0x000028c2:    e004        ..      B        0x28ce ; idctCols + 278
        0x000028c4:    2aff        .*      CMP      r2,#0xff
        0x000028c6:    dd01        ..      BLE      0x28cc ; idctCols + 276
        0x000028c8:    22ff        ."      MOVS     r2,#0xff
        0x000028ca:    e000        ..      B        0x28ce ; idctCols + 278
        0x000028cc:    b2d2        ..      UXTB     r2,r2
        0x000028ce:    8002        ..      STRH     r2,[r0,#0]
        0x000028d0:    8202        ..      STRH     r2,[r0,#0x10]
        0x000028d2:    8402        ..      STRH     r2,[r0,#0x20]
        0x000028d4:    8602        ..      STRH     r2,[r0,#0x30]
        0x000028d6:    800a        ..      STRH     r2,[r1,#0]
        0x000028d8:    820a        ..      STRH     r2,[r1,#0x10]
        0x000028da:    840a        ..      STRH     r2,[r1,#0x20]
        0x000028dc:    860a        ..      STRH     r2,[r1,#0x30]
        0x000028de:    e08a        ..      B        0x29f6 ; idctCols + 574
        0x000028e0:    2dff        .-      CMP      r5,#0xff
        0x000028e2:    dd01        ..      BLE      0x28e8 ; idctCols + 304
        0x000028e4:    25ff        .%      MOVS     r5,#0xff
        0x000028e6:    e000        ..      B        0x28ea ; idctCols + 306
        0x000028e8:    b2ed        ..      UXTB     r5,r5
        0x000028ea:    8005        ..      STRH     r5,[r0,#0]
        0x000028ec:    9d03        ..      LDR      r5,[sp,#0xc]
        0x000028ee:    18ed        ..      ADDS     r5,r5,r3
        0x000028f0:    3540        @5      ADDS     r5,r5,#0x40
        0x000028f2:    09ed        ..      LSRS     r5,r5,#7
        0x000028f4:    3580        .5      ADDS     r5,r5,#0x80
        0x000028f6:    b22d        -.      SXTH     r5,r5
        0x000028f8:    b2af        ..      UXTH     r7,r5
        0x000028fa:    2fff        ./      CMP      r7,#0xff
        0x000028fc:    d907        ..      BLS      0x290e ; idctCols + 342
        0x000028fe:    2d00        .-      CMP      r5,#0
        0x00002900:    da01        ..      BGE      0x2906 ; idctCols + 334
        0x00002902:    2500        .%      MOVS     r5,#0
        0x00002904:    e004        ..      B        0x2910 ; idctCols + 344
        0x00002906:    2dff        .-      CMP      r5,#0xff
        0x00002908:    dd01        ..      BLE      0x290e ; idctCols + 342
        0x0000290a:    25ff        .%      MOVS     r5,#0xff
        0x0000290c:    e000        ..      B        0x2910 ; idctCols + 344
        0x0000290e:    b2ed        ..      UXTB     r5,r5
        0x00002910:    8205        ..      STRH     r5,[r0,#0x10]
        0x00002912:    4675        uF      MOV      r5,lr
        0x00002914:    18ad        ..      ADDS     r5,r5,r2
        0x00002916:    3540        @5      ADDS     r5,r5,#0x40
        0x00002918:    09ed        ..      LSRS     r5,r5,#7
        0x0000291a:    3580        .5      ADDS     r5,r5,#0x80
        0x0000291c:    b22d        -.      SXTH     r5,r5
        0x0000291e:    b2af        ..      UXTH     r7,r5
        0x00002920:    2fff        ./      CMP      r7,#0xff
        0x00002922:    d907        ..      BLS      0x2934 ; idctCols + 380
        0x00002924:    2d00        .-      CMP      r5,#0
        0x00002926:    da01        ..      BGE      0x292c ; idctCols + 372
        0x00002928:    2500        .%      MOVS     r5,#0
        0x0000292a:    e004        ..      B        0x2936 ; idctCols + 382
        0x0000292c:    2dff        .-      CMP      r5,#0xff
        0x0000292e:    dd01        ..      BLE      0x2934 ; idctCols + 380
        0x00002930:    25ff        .%      MOVS     r5,#0xff
        0x00002932:    e000        ..      B        0x2936 ; idctCols + 382
        0x00002934:    b2ed        ..      UXTB     r5,r5
        0x00002936:    8405        ..      STRH     r5,[r0,#0x20]
        0x00002938:    9d02        ..      LDR      r5,[sp,#8]
        0x0000293a:    1b75        u.      SUBS     r5,r6,r5
        0x0000293c:    3540        @5      ADDS     r5,r5,#0x40
        0x0000293e:    09ed        ..      LSRS     r5,r5,#7
        0x00002940:    3580        .5      ADDS     r5,r5,#0x80
        0x00002942:    b22d        -.      SXTH     r5,r5
        0x00002944:    b2af        ..      UXTH     r7,r5
        0x00002946:    2fff        ./      CMP      r7,#0xff
        0x00002948:    d907        ..      BLS      0x295a ; idctCols + 418
        0x0000294a:    2d00        .-      CMP      r5,#0
        0x0000294c:    da01        ..      BGE      0x2952 ; idctCols + 410
        0x0000294e:    2500        .%      MOVS     r5,#0
        0x00002950:    e004        ..      B        0x295c ; idctCols + 420
        0x00002952:    2dff        .-      CMP      r5,#0xff
        0x00002954:    dd01        ..      BLE      0x295a ; idctCols + 418
        0x00002956:    25ff        .%      MOVS     r5,#0xff
        0x00002958:    e000        ..      B        0x295c ; idctCols + 420
        0x0000295a:    b2ed        ..      UXTB     r5,r5
        0x0000295c:    8605        ..      STRH     r5,[r0,#0x30]
        0x0000295e:    9d02        ..      LDR      r5,[sp,#8]
        0x00002960:    1975        u.      ADDS     r5,r6,r5
        0x00002962:    3540        @5      ADDS     r5,r5,#0x40
        0x00002964:    09ed        ..      LSRS     r5,r5,#7
        0x00002966:    3580        .5      ADDS     r5,r5,#0x80
        0x00002968:    b22d        -.      SXTH     r5,r5
        0x0000296a:    b2ae        ..      UXTH     r6,r5
        0x0000296c:    2eff        ..      CMP      r6,#0xff
        0x0000296e:    d907        ..      BLS      0x2980 ; idctCols + 456
        0x00002970:    2d00        .-      CMP      r5,#0
        0x00002972:    da01        ..      BGE      0x2978 ; idctCols + 448
        0x00002974:    2500        .%      MOVS     r5,#0
        0x00002976:    e004        ..      B        0x2982 ; idctCols + 458
        0x00002978:    2dff        .-      CMP      r5,#0xff
        0x0000297a:    dd01        ..      BLE      0x2980 ; idctCols + 456
        0x0000297c:    25ff        .%      MOVS     r5,#0xff
        0x0000297e:    e000        ..      B        0x2982 ; idctCols + 458
        0x00002980:    b2ed        ..      UXTB     r5,r5
        0x00002982:    800d        ..      STRH     r5,[r1,#0]
        0x00002984:    4675        uF      MOV      r5,lr
        0x00002986:    1aaa        ..      SUBS     r2,r5,r2
        0x00002988:    3240        @2      ADDS     r2,r2,#0x40
        0x0000298a:    09d2        ..      LSRS     r2,r2,#7
        0x0000298c:    3280        .2      ADDS     r2,r2,#0x80
        0x0000298e:    b212        ..      SXTH     r2,r2
        0x00002990:    b295        ..      UXTH     r5,r2
        0x00002992:    2dff        .-      CMP      r5,#0xff
        0x00002994:    d907        ..      BLS      0x29a6 ; idctCols + 494
        0x00002996:    2a00        .*      CMP      r2,#0
        0x00002998:    da01        ..      BGE      0x299e ; idctCols + 486
        0x0000299a:    2200        ."      MOVS     r2,#0
        0x0000299c:    e004        ..      B        0x29a8 ; idctCols + 496
        0x0000299e:    2aff        .*      CMP      r2,#0xff
        0x000029a0:    dd01        ..      BLE      0x29a6 ; idctCols + 494
        0x000029a2:    22ff        ."      MOVS     r2,#0xff
        0x000029a4:    e000        ..      B        0x29a8 ; idctCols + 496
        0x000029a6:    b2d2        ..      UXTB     r2,r2
        0x000029a8:    820a        ..      STRH     r2,[r1,#0x10]
        0x000029aa:    9a03        ..      LDR      r2,[sp,#0xc]
        0x000029ac:    1ad2        ..      SUBS     r2,r2,r3
        0x000029ae:    3240        @2      ADDS     r2,r2,#0x40
        0x000029b0:    09d2        ..      LSRS     r2,r2,#7
        0x000029b2:    3280        .2      ADDS     r2,r2,#0x80
        0x000029b4:    b212        ..      SXTH     r2,r2
        0x000029b6:    b293        ..      UXTH     r3,r2
        0x000029b8:    2bff        .+      CMP      r3,#0xff
        0x000029ba:    d907        ..      BLS      0x29cc ; idctCols + 532
        0x000029bc:    2a00        .*      CMP      r2,#0
        0x000029be:    da01        ..      BGE      0x29c4 ; idctCols + 524
        0x000029c0:    2200        ."      MOVS     r2,#0
        0x000029c2:    e004        ..      B        0x29ce ; idctCols + 534
        0x000029c4:    2aff        .*      CMP      r2,#0xff
        0x000029c6:    dd01        ..      BLE      0x29cc ; idctCols + 532
        0x000029c8:    22ff        ."      MOVS     r2,#0xff
        0x000029ca:    e000        ..      B        0x29ce ; idctCols + 534
        0x000029cc:    b2d2        ..      UXTB     r2,r2
        0x000029ce:    840a        ..      STRH     r2,[r1,#0x20]
        0x000029d0:    9a00        ..      LDR      r2,[sp,#0]
        0x000029d2:    1b12        ..      SUBS     r2,r2,r4
        0x000029d4:    3240        @2      ADDS     r2,r2,#0x40
        0x000029d6:    09d2        ..      LSRS     r2,r2,#7
        0x000029d8:    3280        .2      ADDS     r2,r2,#0x80
        0x000029da:    b212        ..      SXTH     r2,r2
        0x000029dc:    b293        ..      UXTH     r3,r2
        0x000029de:    2bff        .+      CMP      r3,#0xff
        0x000029e0:    d907        ..      BLS      0x29f2 ; idctCols + 570
        0x000029e2:    2a00        .*      CMP      r2,#0
        0x000029e4:    da01        ..      BGE      0x29ea ; idctCols + 562
        0x000029e6:    2200        ."      MOVS     r2,#0
        0x000029e8:    e004        ..      B        0x29f4 ; idctCols + 572
        0x000029ea:    2aff        .*      CMP      r2,#0xff
        0x000029ec:    dd01        ..      BLE      0x29f2 ; idctCols + 570
        0x000029ee:    22ff        ."      MOVS     r2,#0xff
        0x000029f0:    e000        ..      B        0x29f4 ; idctCols + 572
        0x000029f2:    b2d2        ..      UXTB     r2,r2
        0x000029f4:    860a        ..      STRH     r2,[r1,#0x30]
        0x000029f6:    4661        aF      MOV      r1,r12
        0x000029f8:    1c49        I.      ADDS     r1,r1,#1
        0x000029fa:    b2c9        ..      UXTB     r1,r1
        0x000029fc:    1c80        ..      ADDS     r0,r0,#2
        0x000029fe:    468c        .F      MOV      r12,r1
        0x00002a00:    2908        .)      CMP      r1,#8
        0x00002a02:    d200        ..      BCS      0x2a06 ; idctCols + 590
        0x00002a04:    e6dd        ..      B        0x27c2 ; idctCols + 10
        0x00002a06:    b004        ..      ADD      sp,sp,#0x10
        0x00002a08:    bdf0        ..      POP      {r4-r7,pc}
    $d
        0x00002a0a:    0000        ..      DCW    0
        0x00002a0c:    1ffff6b0    ....    DCD    536868528
        0x00002a10:    0000029d    ....    DCD    669
    $t
    i.idctRows
    idctRows
    __tagsym$$noinline
        0x00002a14:    b5f0        ..      PUSH     {r4-r7,lr}
        0x00002a16:    4841        AH      LDR      r0,[pc,#260] ; [0x2b1c] = 0x1ffff6b0
        0x00002a18:    b083        ..      SUB      sp,sp,#0xc
        0x00002a1a:    2400        .$      MOVS     r4,#0
        0x00002a1c:    2102        .!      MOVS     r1,#2
        0x00002a1e:    2304        .#      MOVS     r3,#4
        0x00002a20:    5e41        A^      LDRSH    r1,[r0,r1]
        0x00002a22:    5ec3        .^      LDRSH    r3,[r0,r3]
        0x00002a24:    460a        .F      MOV      r2,r1
        0x00002a26:    469e        .F      MOV      lr,r3
        0x00002a28:    4319        .C      ORRS     r1,r1,r3
        0x00002a2a:    2306        .#      MOVS     r3,#6
        0x00002a2c:    5ec3        .^      LDRSH    r3,[r0,r3]
        0x00002a2e:    2608        .&      MOVS     r6,#8
        0x00002a30:    5f86        ._      LDRSH    r6,[r0,r6]
        0x00002a32:    461d        .F      MOV      r5,r3
        0x00002a34:    4335        5C      ORRS     r5,r5,r6
        0x00002a36:    4329        )C      ORRS     r1,r1,r5
        0x00002a38:    270a        .'      MOVS     r7,#0xa
        0x00002a3a:    250c        .%      MOVS     r5,#0xc
        0x00002a3c:    5fc7        ._      LDRSH    r7,[r0,r7]
        0x00002a3e:    5f45        E_      LDRSH    r5,[r0,r5]
        0x00002a40:    4339        9C      ORRS     r1,r1,r7
        0x00002a42:    46ac        .F      MOV      r12,r5
        0x00002a44:    4329        )C      ORRS     r1,r1,r5
        0x00002a46:    250e        .%      MOVS     r5,#0xe
        0x00002a48:    5f45        E_      LDRSH    r5,[r0,r5]
        0x00002a4a:    4329        )C      ORRS     r1,r1,r5
        0x00002a4c:    d05d        ].      BEQ      0x2b0a ; idctRows + 246
        0x00002a4e:    1af9        ..      SUBS     r1,r7,r3
        0x00002a50:    18fb        ..      ADDS     r3,r7,r3
        0x00002a52:    1957        W.      ADDS     r7,r2,r5
        0x00002a54:    1b52        R.      SUBS     r2,r2,r5
        0x00002a56:    b209        ..      SXTH     r1,r1
        0x00002a58:    b212        ..      SXTH     r2,r2
        0x00002a5a:    9300        ..      STR      r3,[sp,#0]
        0x00002a5c:    1a8b        ..      SUBS     r3,r1,r2
        0x00002a5e:    b21b        ..      SXTH     r3,r3
        0x00002a60:    25c4        .%      MOVS     r5,#0xc4
        0x00002a62:    436b        kC      MULS     r3,r5,r3
        0x00002a64:    25ff        .%      MOVS     r5,#0xff
        0x00002a66:    3516        .5      ADDS     r5,r5,#0x16
        0x00002a68:    436a        jC      MULS     r2,r5,r2
        0x00002a6a:    4d2d        -M      LDR      r5,[pc,#180] ; [0x2b20] = 0x29d
        0x00002a6c:    3380        .3      ADDS     r3,r3,#0x80
        0x00002a6e:    4369        iC      MULS     r1,r5,r1
        0x00002a70:    121b        ..      ASRS     r3,r3,#8
        0x00002a72:    3280        .2      ADDS     r2,r2,#0x80
        0x00002a74:    3180        .1      ADDS     r1,r1,#0x80
        0x00002a76:    1212        ..      ASRS     r2,r2,#8
        0x00002a78:    1209        ..      ASRS     r1,r1,#8
        0x00002a7a:    1ad2        ..      SUBS     r2,r2,r3
        0x00002a7c:    1a59        Y.      SUBS     r1,r3,r1
        0x00002a7e:    9b00        ..      LDR      r3,[sp,#0]
        0x00002a80:    9101        ..      STR      r1,[sp,#4]
        0x00002a82:    1af9        ..      SUBS     r1,r7,r3
        0x00002a84:    18fd        ..      ADDS     r5,r7,r3
        0x00002a86:    27ff        .'      MOVS     r7,#0xff
        0x00002a88:    b209        ..      SXTH     r1,r1
        0x00002a8a:    376b        k7      ADDS     r7,r7,#0x6b
        0x00002a8c:    4379        yC      MULS     r1,r7,r1
        0x00002a8e:    1b53        S.      SUBS     r3,r2,r5
        0x00002a90:    3180        .1      ADDS     r1,r1,#0x80
        0x00002a92:    1209        ..      ASRS     r1,r1,#8
        0x00002a94:    9a01        ..      LDR      r2,[sp,#4]
        0x00002a96:    1ac9        ..      SUBS     r1,r1,r3
        0x00002a98:    188a        ..      ADDS     r2,r1,r2
        0x00002a9a:    9202        ..      STR      r2,[sp,#8]
        0x00002a9c:    8802        ..      LDRH     r2,[r0,#0]
        0x00002a9e:    1997        ..      ADDS     r7,r2,r6
        0x00002aa0:    9701        ..      STR      r7,[sp,#4]
        0x00002aa2:    1b97        ..      SUBS     r7,r2,r6
        0x00002aa4:    9700        ..      STR      r7,[sp,#0]
        0x00002aa6:    4672        rF      MOV      r2,lr
        0x00002aa8:    4667        gF      MOV      r7,r12
        0x00002aaa:    1bd6        ..      SUBS     r6,r2,r7
        0x00002aac:    27ff        .'      MOVS     r7,#0xff
        0x00002aae:    b236        6.      SXTH     r6,r6
        0x00002ab0:    376b        k7      ADDS     r7,r7,#0x6b
        0x00002ab2:    437e        ~C      MULS     r6,r7,r6
        0x00002ab4:    9f01        ..      LDR      r7,[sp,#4]
        0x00002ab6:    4462        bD      ADD      r2,r2,r12
        0x00002ab8:    18bf        ..      ADDS     r7,r7,r2
        0x00002aba:    3680        .6      ADDS     r6,r6,#0x80
        0x00002abc:    46be        .F      MOV      lr,r7
        0x00002abe:    1236        6.      ASRS     r6,r6,#8
        0x00002ac0:    9f01        ..      LDR      r7,[sp,#4]
        0x00002ac2:    1ab6        ..      SUBS     r6,r6,r2
        0x00002ac4:    1aba        ..      SUBS     r2,r7,r2
        0x00002ac6:    9f00        ..      LDR      r7,[sp,#0]
        0x00002ac8:    19bf        ..      ADDS     r7,r7,r6
        0x00002aca:    46bc        .F      MOV      r12,r7
        0x00002acc:    9f00        ..      LDR      r7,[sp,#0]
        0x00002ace:    1bbf        ..      SUBS     r7,r7,r6
        0x00002ad0:    4676        vF      MOV      r6,lr
        0x00002ad2:    1976        v.      ADDS     r6,r6,r5
        0x00002ad4:    8006        ..      STRH     r6,[r0,#0]
        0x00002ad6:    4666        fF      MOV      r6,r12
        0x00002ad8:    18f6        ..      ADDS     r6,r6,r3
        0x00002ada:    8046        F.      STRH     r6,[r0,#2]
        0x00002adc:    187e        ~.      ADDS     r6,r7,r1
        0x00002ade:    8086        ..      STRH     r6,[r0,#4]
        0x00002ae0:    9e02        ..      LDR      r6,[sp,#8]
        0x00002ae2:    1b96        ..      SUBS     r6,r2,r6
        0x00002ae4:    80c6        ..      STRH     r6,[r0,#6]
        0x00002ae6:    9e02        ..      LDR      r6,[sp,#8]
        0x00002ae8:    1a79        y.      SUBS     r1,r7,r1
        0x00002aea:    1992        ..      ADDS     r2,r2,r6
        0x00002aec:    8102        ..      STRH     r2,[r0,#8]
        0x00002aee:    8141        A.      STRH     r1,[r0,#0xa]
        0x00002af0:    4667        gF      MOV      r7,r12
        0x00002af2:    1af9        ..      SUBS     r1,r7,r3
        0x00002af4:    8181        ..      STRH     r1,[r0,#0xc]
        0x00002af6:    4677        wF      MOV      r7,lr
        0x00002af8:    1b79        y.      SUBS     r1,r7,r5
        0x00002afa:    81c1        ..      STRH     r1,[r0,#0xe]
        0x00002afc:    1c64        d.      ADDS     r4,r4,#1
        0x00002afe:    b2e4        ..      UXTB     r4,r4
        0x00002b00:    3010        .0      ADDS     r0,r0,#0x10
        0x00002b02:    2c08        .,      CMP      r4,#8
        0x00002b04:    d38a        ..      BCC      0x2a1c ; idctRows + 8
        0x00002b06:    b003        ..      ADD      sp,sp,#0xc
        0x00002b08:    bdf0        ..      POP      {r4-r7,pc}
        0x00002b0a:    8801        ..      LDRH     r1,[r0,#0]
        0x00002b0c:    8041        A.      STRH     r1,[r0,#2]
        0x00002b0e:    8081        ..      STRH     r1,[r0,#4]
        0x00002b10:    80c1        ..      STRH     r1,[r0,#6]
        0x00002b12:    8101        ..      STRH     r1,[r0,#8]
        0x00002b14:    8141        A.      STRH     r1,[r0,#0xa]
        0x00002b16:    8181        ..      STRH     r1,[r0,#0xc]
        0x00002b18:    e7ef        ..      B        0x2afa ; idctRows + 230
    $d
        0x00002b1a:    0000        ..      DCW    0
        0x00002b1c:    1ffff6b0    ....    DCD    536868528
        0x00002b20:    0000029d    ....    DCD    669
    $t
    i.main
    main
        0x00002b24:    b092        ..      SUB      sp,sp,#0x48
        0x00002b26:    f7fdfc73    ..s.    BL       Init_RGB_LEDs ; 0x410
        0x00002b2a:    f7fdfbcf    ....    BL       Init_Debug_Signals ; 0x2cc
        0x00002b2e:    f7fdfde1    ....    BL       LCD_Init ; 0x6f4
        0x00002b32:    2001        .       MOVS     r0,#1
        0x00002b34:    f7fef852    ..R.    BL       LCD_Text_Init ; 0xbdc
        0x00002b38:    f7fdfc3a    ..:.    BL       LCD_Erase ; 0x3b0
        0x00002b3c:    2100        .!      MOVS     r1,#0
        0x00002b3e:    a225        %.      ADR      r2,{pc}+0x96 ; 0x2bd4
        0x00002b40:    4608        .F      MOV      r0,r1
        0x00002b42:    f7fef963    ..c.    BL       LCD_Text_PrintStr_RC ; 0xe0c
        0x00002b46:    a227        '.      ADR      r2,{pc}+0x9e ; 0x2be4
        0x00002b48:    2100        .!      MOVS     r1,#0
        0x00002b4a:    2001        .       MOVS     r0,#1
        0x00002b4c:    f7fef95e    ..^.    BL       LCD_Text_PrintStr_RC ; 0xe0c
        0x00002b50:    4668        hF      MOV      r0,sp
        0x00002b52:    f000f8a5    ....    BL       pf_mount ; 0x2ca0
        0x00002b56:    2800        .(      CMP      r0,#0
        0x00002b58:    d00a        ..      BEQ      0x2b70 ; main + 76
        0x00002b5a:    a228        (.      ADR      r2,{pc}+0xa2 ; 0x2bfc
        0x00002b5c:    2100        .!      MOVS     r1,#0
        0x00002b5e:    2002        .       MOVS     r0,#2
        0x00002b60:    f7fef954    ..T.    BL       LCD_Text_PrintStr_RC ; 0xe0c
        0x00002b64:    2200        ."      MOVS     r2,#0
        0x00002b66:    4611        .F      MOV      r1,r2
        0x00002b68:    2001        .       MOVS     r0,#1
        0x00002b6a:    f7fdfaef    ....    BL       Control_RGB_LEDs ; 0x14c
        0x00002b6e:    e7fe        ..      B        0x2b6e ; main + 74
        0x00002b70:    a226        &.      ADR      r2,{pc}+0x9c ; 0x2c0c
        0x00002b72:    2100        .!      MOVS     r1,#0
        0x00002b74:    2002        .       MOVS     r0,#2
        0x00002b76:    f7fef949    ..I.    BL       LCD_Text_PrintStr_RC ; 0xe0c
        0x00002b7a:    2501        .%      MOVS     r5,#1
        0x00002b7c:    f7fdfbe8    ....    BL       Init_Profiling ; 0x350
        0x00002b80:    f7fdfc16    ....    BL       LCD_Erase ; 0x3b0
        0x00002b84:    2201        ."      MOVS     r2,#1
        0x00002b86:    2100        .!      MOVS     r1,#0
        0x00002b88:    4610        .F      MOV      r0,r2
        0x00002b8a:    f7fdfadf    ....    BL       Control_RGB_LEDs ; 0x14c
        0x00002b8e:    f7fdfb97    ....    BL       Enable_Profiling ; 0x2c0
        0x00002b92:    f7fdfde3    ....    BL       LCD_JPEG ; 0x75c
        0x00002b96:    4604        .F      MOV      r4,r0
        0x00002b98:    f7fdfb02    ....    BL       Disable_Profiling ; 0x1a0
        0x00002b9c:    1b29        ).      SUBS     r1,r5,r4
        0x00002b9e:    2200        ."      MOVS     r2,#0
        0x00002ba0:    4620         F      MOV      r0,r4
        0x00002ba2:    f7fdfad3    ....    BL       Control_RGB_LEDs ; 0x14c
        0x00002ba6:    2c00        .,      CMP      r4,#0
        0x00002ba8:    d00a        ..      BEQ      0x2bc0 ; main + 156
        0x00002baa:    4622        "F      MOV      r2,r4
        0x00002bac:    a11c        ..      ADR      r1,{pc}+0x74 ; 0x2c20
        0x00002bae:    a80c        ..      ADD      r0,sp,#0x30
        0x00002bb0:    f7fefdf4    ....    BL       __0sprintf$6 ; 0x179c
        0x00002bb4:    2100        .!      MOVS     r1,#0
        0x00002bb6:    aa0c        ..      ADD      r2,sp,#0x30
        0x00002bb8:    4608        .F      MOV      r0,r1
        0x00002bba:    f7fef927    ..'.    BL       LCD_Text_PrintStr_RC ; 0xe0c
        0x00002bbe:    e7fe        ..      B        0x2bbe ; main + 154
        0x00002bc0:    f7fefcd0    ....    BL       Sort_Profile_Regions ; 0x1564
        0x00002bc4:    a810        ..      ADD      r0,sp,#0x40
        0x00002bc6:    f7fdfbfb    ....    BL       LCD_TS_Blocking_Read ; 0x3c0
        0x00002bca:    f7fdfbf1    ....    BL       LCD_Erase ; 0x3b0
        0x00002bce:    f7fdfaed    ....    BL       Display_Profile ; 0x1ac
        0x00002bd2:    e7d3        ..      B        0x2b7c ; main + 88
    $d
        0x00002bd4:    74696e49    Init    DCD    1953066569
        0x00002bd8:    696c6169    iali    DCD    1768710505
        0x00002bdc:    676e697a    zing    DCD    1735289210
        0x00002be0:    00000000    ....    DCD    0
        0x00002be4:    6b6f6f4c    Look    DCD    1802465100
        0x00002be8:    20676e69    ing     DCD    543649385
        0x00002bec:    20726f66    for     DCD    544370534
        0x00002bf0:    20445375    uSD     DCD    541348725
        0x00002bf4:    64726163    card    DCD    1685217635
        0x00002bf8:    00000000    ....    DCD    0
        0x00002bfc:    6d5f6670    pf_m    DCD    1834968688
        0x00002c00:    746e756f    ount    DCD    1953396079
        0x00002c04:    69616620     fai    DCD    1767990816
        0x00002c08:    0064656c    led.    DCD    6579564
        0x00002c0c:    6e756f4d    Moun    DCD    1853189965
        0x00002c10:    20646574    ted     DCD    543450484
        0x00002c14:    20445375    uSD     DCD    541348725
        0x00002c18:    64726163    card    DCD    1685217635
        0x00002c1c:    00000000    ....    DCD    0
        0x00002c20:    5f44434c    LCD_    DCD    1598309196
        0x00002c24:    4745504a    JPEG    DCD    1195724874
        0x00002c28:    69616620     fai    DCD    1767990816
        0x00002c2c:    6572756c    lure    DCD    1701999980
        0x00002c30:    00642520     %d.    DCD    6563104
    $t
    i.malloc
    malloc
        0x00002c34:    b5f0        ..      PUSH     {r4-r7,lr}
        0x00002c36:    300b        .0      ADDS     r0,r0,#0xb
        0x00002c38:    08c1        ..      LSRS     r1,r0,#3
        0x00002c3a:    00c9        ..      LSLS     r1,r1,#3
        0x00002c3c:    4f14        .O      LDR      r7,[pc,#80] ; [0x2c90] = 0x1ffff0c4
        0x00002c3e:    2600        .&      MOVS     r6,#0
        0x00002c40:    4a14        .J      LDR      r2,[pc,#80] ; [0x2c94] = 0x1ffff0c0
        0x00002c42:    e00f        ..      B        0x2c64 ; malloc + 48
        0x00002c44:    6803        .h      LDR      r3,[r0,#0]
        0x00002c46:    428b        .B      CMP      r3,r1
        0x00002c48:    d30b        ..      BCC      0x2c62 ; malloc + 46
        0x00002c4a:    428b        .B      CMP      r3,r1
        0x00002c4c:    d905        ..      BLS      0x2c5a ; malloc + 38
        0x00002c4e:    1a5c        \.      SUBS     r4,r3,r1
        0x00002c50:    1843        C.      ADDS     r3,r0,r1
        0x00002c52:    6845        Eh      LDR      r5,[r0,#4]
        0x00002c54:    c330        0.      STM      r3!,{r4,r5}
        0x00002c56:    3b08        .;      SUBS     r3,r3,#8
        0x00002c58:    e000        ..      B        0x2c5c ; malloc + 40
        0x00002c5a:    6843        Ch      LDR      r3,[r0,#4]
        0x00002c5c:    6013        .`      STR      r3,[r2,#0]
        0x00002c5e:    c002        ..      STM      r0!,{r1}
        0x00002c60:    e004        ..      B        0x2c6c ; malloc + 56
        0x00002c62:    1d02        ..      ADDS     r2,r0,#4
        0x00002c64:    6810        .h      LDR      r0,[r2,#0]
        0x00002c66:    2800        .(      CMP      r0,#0
        0x00002c68:    d1ec        ..      BNE      0x2c44 ; malloc + 16
        0x00002c6a:    4630        0F      MOV      r0,r6
        0x00002c6c:    2800        .(      CMP      r0,#0
        0x00002c6e:    d103        ..      BNE      0x2c78 ; malloc + 68
        0x00002c70:    6838        8h      LDR      r0,[r7,#0]
        0x00002c72:    2800        .(      CMP      r0,#0
        0x00002c74:    d001        ..      BEQ      0x2c7a ; malloc + 70
        0x00002c76:    2000        .       MOVS     r0,#0
        0x00002c78:    bdf0        ..      POP      {r4-r7,pc}
        0x00002c7a:    4a06        .J      LDR      r2,[pc,#24] ; [0x2c94] = 0x1ffff0c0
        0x00002c7c:    4806        .H      LDR      r0,[pc,#24] ; [0x2c98] = 0x200001a4
        0x00002c7e:    6010        .`      STR      r0,[r2,#0]
        0x00002c80:    4a06        .J      LDR      r2,[pc,#24] ; [0x2c9c] = 0x200009a0
        0x00002c82:    1a12        ..      SUBS     r2,r2,r0
        0x00002c84:    08d2        ..      LSRS     r2,r2,#3
        0x00002c86:    00d2        ..      LSLS     r2,r2,#3
        0x00002c88:    c044        D.      STM      r0!,{r2,r6}
        0x00002c8a:    2001        .       MOVS     r0,#1
        0x00002c8c:    6038        8`      STR      r0,[r7,#0]
        0x00002c8e:    e7d7        ..      B        0x2c40 ; malloc + 12
    $d
        0x00002c90:    1ffff0c4    ....    DCD    536867012
        0x00002c94:    1ffff0c0    ....    DCD    536867008
        0x00002c98:    200001a4    ...     DCD    536871332
        0x00002c9c:    200009a0    ...     DCD    536873376
    $t
    i.pf_mount
    pf_mount
        0x00002ca0:    b5f0        ..      PUSH     {r4-r7,lr}
        0x00002ca2:    4605        .F      MOV      r5,r0
        0x00002ca4:    496b        kI      LDR      r1,[pc,#428] ; [0x2e54] = 0x1ffff0b8
        0x00002ca6:    b08b        ..      SUB      sp,sp,#0x2c
        0x00002ca8:    2000        .       MOVS     r0,#0
        0x00002caa:    6008        .`      STR      r0,[r1,#0]
        0x00002cac:    f7fffa6a    ..j.    BL       disk_initialize ; 0x2184
        0x00002cb0:    07c0        ..      LSLS     r0,r0,#31
        0x00002cb2:    d002        ..      BEQ      0x2cba ; pf_mount + 26
        0x00002cb4:    2002        .       MOVS     r0,#2
        0x00002cb6:    b00b        ..      ADD      sp,sp,#0x2c
        0x00002cb8:    bdf0        ..      POP      {r4-r7,pc}
        0x00002cba:    2400        .$      MOVS     r4,#0
        0x00002cbc:    466f        oF      MOV      r7,sp
        0x00002cbe:    22ff        ."      MOVS     r2,#0xff
        0x00002cc0:    2302        .#      MOVS     r3,#2
        0x00002cc2:    32ff        .2      ADDS     r2,r2,#0xff
        0x00002cc4:    4621        !F      MOV      r1,r4
        0x00002cc6:    4638        8F      MOV      r0,r7
        0x00002cc8:    f7fffa66    ..f.    BL       disk_readp ; 0x2198
        0x00002ccc:    2800        .(      CMP      r0,#0
        0x00002cce:    d159        Y.      BNE      0x2d84 ; pf_mount + 228
        0x00002cd0:    4669        iF      MOV      r1,sp
        0x00002cd2:    7848        Hx      LDRB     r0,[r1,#1]
        0x00002cd4:    7809        .x      LDRB     r1,[r1,#0]
        0x00002cd6:    0200        ..      LSLS     r0,r0,#8
        0x00002cd8:    4e5f        _N      LDR      r6,[pc,#380] ; [0x2e58] = 0xaa55
        0x00002cda:    4308        .C      ORRS     r0,r0,r1
        0x00002cdc:    42b0        .B      CMP      r0,r6
        0x00002cde:    d17d        }.      BNE      0x2ddc ; pf_mount + 316
        0x00002ce0:    2302        .#      MOVS     r3,#2
        0x00002ce2:    2252        R"      MOVS     r2,#0x52
        0x00002ce4:    4621        !F      MOV      r1,r4
        0x00002ce6:    4638        8F      MOV      r0,r7
        0x00002ce8:    f7fffa56    ..V.    BL       disk_readp ; 0x2198
        0x00002cec:    4f5b        [O      LDR      r7,[pc,#364] ; [0x2e5c] = 0x4146
        0x00002cee:    2800        .(      CMP      r0,#0
        0x00002cf0:    d106        ..      BNE      0x2d00 ; pf_mount + 96
        0x00002cf2:    4669        iF      MOV      r1,sp
        0x00002cf4:    7848        Hx      LDRB     r0,[r1,#1]
        0x00002cf6:    7809        .x      LDRB     r1,[r1,#0]
        0x00002cf8:    0200        ..      LSLS     r0,r0,#8
        0x00002cfa:    4308        .C      ORRS     r0,r0,r1
        0x00002cfc:    42b8        .B      CMP      r0,r7
        0x00002cfe:    d039        9.      BEQ      0x2d74 ; pf_mount + 212
        0x00002d00:    22ff        ."      MOVS     r2,#0xff
        0x00002d02:    2310        .#      MOVS     r3,#0x10
        0x00002d04:    32bf        .2      ADDS     r2,r2,#0xbf
        0x00002d06:    4621        !F      MOV      r1,r4
        0x00002d08:    4668        hF      MOV      r0,sp
        0x00002d0a:    f7fffa45    ..E.    BL       disk_readp ; 0x2198
        0x00002d0e:    2800        .(      CMP      r0,#0
        0x00002d10:    d138        8.      BNE      0x2d84 ; pf_mount + 228
        0x00002d12:    4668        hF      MOV      r0,sp
        0x00002d14:    7900        .y      LDRB     r0,[r0,#4]
        0x00002d16:    2800        .(      CMP      r0,#0
        0x00002d18:    d060        `.      BEQ      0x2ddc ; pf_mount + 316
        0x00002d1a:    4669        iF      MOV      r1,sp
        0x00002d1c:    7ac8        .z      LDRB     r0,[r1,#0xb]
        0x00002d1e:    7a89        .z      LDRB     r1,[r1,#0xa]
        0x00002d20:    0200        ..      LSLS     r0,r0,#8
        0x00002d22:    4308        .C      ORRS     r0,r0,r1
        0x00002d24:    4669        iF      MOV      r1,sp
        0x00002d26:    7a49        Iz      LDRB     r1,[r1,#9]
        0x00002d28:    0200        ..      LSLS     r0,r0,#8
        0x00002d2a:    4308        .C      ORRS     r0,r0,r1
        0x00002d2c:    0204        ..      LSLS     r4,r0,#8
        0x00002d2e:    4669        iF      MOV      r1,sp
        0x00002d30:    7a08        .z      LDRB     r0,[r1,#8]
        0x00002d32:    22ff        ."      MOVS     r2,#0xff
        0x00002d34:    4304        .C      ORRS     r4,r4,r0
        0x00002d36:    4608        .F      MOV      r0,r1
        0x00002d38:    9109        ..      STR      r1,[sp,#0x24]
        0x00002d3a:    2302        .#      MOVS     r3,#2
        0x00002d3c:    32ff        .2      ADDS     r2,r2,#0xff
        0x00002d3e:    4621        !F      MOV      r1,r4
        0x00002d40:    f7fffa2a    ..*.    BL       disk_readp ; 0x2198
        0x00002d44:    2800        .(      CMP      r0,#0
        0x00002d46:    d11d        ..      BNE      0x2d84 ; pf_mount + 228
        0x00002d48:    4669        iF      MOV      r1,sp
        0x00002d4a:    7848        Hx      LDRB     r0,[r1,#1]
        0x00002d4c:    7809        .x      LDRB     r1,[r1,#0]
        0x00002d4e:    0200        ..      LSLS     r0,r0,#8
        0x00002d50:    4308        .C      ORRS     r0,r0,r1
        0x00002d52:    42b0        .B      CMP      r0,r6
        0x00002d54:    d17b        {.      BNE      0x2e4e ; pf_mount + 430
        0x00002d56:    2302        .#      MOVS     r3,#2
        0x00002d58:    2252        R"      MOVS     r2,#0x52
        0x00002d5a:    4621        !F      MOV      r1,r4
        0x00002d5c:    9809        ..      LDR      r0,[sp,#0x24]
        0x00002d5e:    f7fffa1b    ....    BL       disk_readp ; 0x2198
        0x00002d62:    2800        .(      CMP      r0,#0
        0x00002d64:    d173        s.      BNE      0x2e4e ; pf_mount + 430
        0x00002d66:    4669        iF      MOV      r1,sp
        0x00002d68:    7848        Hx      LDRB     r0,[r1,#1]
        0x00002d6a:    7809        .x      LDRB     r1,[r1,#0]
        0x00002d6c:    0200        ..      LSLS     r0,r0,#8
        0x00002d6e:    4308        .C      ORRS     r0,r0,r1
        0x00002d70:    42b8        .B      CMP      r0,r7
        0x00002d72:    d16c        l.      BNE      0x2e4e ; pf_mount + 430
        0x00002d74:    2324        $#      MOVS     r3,#0x24
        0x00002d76:    220d        ."      MOVS     r2,#0xd
        0x00002d78:    4621        !F      MOV      r1,r4
        0x00002d7a:    4668        hF      MOV      r0,sp
        0x00002d7c:    f7fffa0c    ....    BL       disk_readp ; 0x2198
        0x00002d80:    2800        .(      CMP      r0,#0
        0x00002d82:    d002        ..      BEQ      0x2d8a ; pf_mount + 234
        0x00002d84:    2001        .       MOVS     r0,#1
        0x00002d86:    b00b        ..      ADD      sp,sp,#0x2c
        0x00002d88:    bdf0        ..      POP      {r4-r7,pc}
        0x00002d8a:    4669        iF      MOV      r1,sp
        0x00002d8c:    7a88        .z      LDRB     r0,[r1,#0xa]
        0x00002d8e:    7a49        Iz      LDRB     r1,[r1,#9]
        0x00002d90:    0200        ..      LSLS     r0,r0,#8
        0x00002d92:    4308        .C      ORRS     r0,r0,r1
        0x00002d94:    d10c        ..      BNE      0x2db0 ; pf_mount + 272
        0x00002d96:    4669        iF      MOV      r1,sp
        0x00002d98:    7e88        .~      LDRB     r0,[r1,#0x1a]
        0x00002d9a:    7e49        I~      LDRB     r1,[r1,#0x19]
        0x00002d9c:    0200        ..      LSLS     r0,r0,#8
        0x00002d9e:    4308        .C      ORRS     r0,r0,r1
        0x00002da0:    4669        iF      MOV      r1,sp
        0x00002da2:    7e09        .~      LDRB     r1,[r1,#0x18]
        0x00002da4:    0200        ..      LSLS     r0,r0,#8
        0x00002da6:    4308        .C      ORRS     r0,r0,r1
        0x00002da8:    4669        iF      MOV      r1,sp
        0x00002daa:    7dc9        .}      LDRB     r1,[r1,#0x17]
        0x00002dac:    0200        ..      LSLS     r0,r0,#8
        0x00002dae:    4308        .C      ORRS     r0,r0,r1
        0x00002db0:    466b        kF      MOV      r3,sp
        0x00002db2:    78de        .x      LDRB     r6,[r3,#3]
        0x00002db4:    7859        Yx      LDRB     r1,[r3,#1]
        0x00002db6:    4346        FC      MULS     r6,r0,r6
        0x00002db8:    7898        .x      LDRB     r0,[r3,#2]
        0x00002dba:    0200        ..      LSLS     r0,r0,#8
        0x00002dbc:    4308        .C      ORRS     r0,r0,r1
        0x00002dbe:    1904        ..      ADDS     r4,r0,r4
        0x00002dc0:    60ec        .`      STR      r4,[r5,#0xc]
        0x00002dc2:    7819        .x      LDRB     r1,[r3,#0]
        0x00002dc4:    70a9        .p      STRB     r1,[r5,#2]
        0x00002dc6:    7958        Xy      LDRB     r0,[r3,#5]
        0x00002dc8:    791a        .y      LDRB     r2,[r3,#4]
        0x00002dca:    0200        ..      LSLS     r0,r0,#8
        0x00002dcc:    4310        .C      ORRS     r0,r0,r2
        0x00002dce:    80a8        ..      STRH     r0,[r5,#4]
        0x00002dd0:    79da        .y      LDRB     r2,[r3,#7]
        0x00002dd2:    799b        .y      LDRB     r3,[r3,#6]
        0x00002dd4:    0212        ..      LSLS     r2,r2,#8
        0x00002dd6:    431a        .C      ORRS     r2,r2,r3
        0x00002dd8:    d10e        ..      BNE      0x2df8 ; pf_mount + 344
        0x00002dda:    e000        ..      B        0x2dde ; pf_mount + 318
        0x00002ddc:    e037        7.      B        0x2e4e ; pf_mount + 430
        0x00002dde:    466b        kF      MOV      r3,sp
        0x00002de0:    7d9a        .}      LDRB     r2,[r3,#0x16]
        0x00002de2:    7d5b        [}      LDRB     r3,[r3,#0x15]
        0x00002de4:    0212        ..      LSLS     r2,r2,#8
        0x00002de6:    431a        .C      ORRS     r2,r2,r3
        0x00002de8:    466b        kF      MOV      r3,sp
        0x00002dea:    7d1b        .}      LDRB     r3,[r3,#0x14]
        0x00002dec:    0212        ..      LSLS     r2,r2,#8
        0x00002dee:    431a        .C      ORRS     r2,r2,r3
        0x00002df0:    466b        kF      MOV      r3,sp
        0x00002df2:    7cdb        .|      LDRB     r3,[r3,#0x13]
        0x00002df4:    0212        ..      LSLS     r2,r2,#8
        0x00002df6:    431a        .C      ORRS     r2,r2,r3
        0x00002df8:    466f        oF      MOV      r7,sp
        0x00002dfa:    78bb        .x      LDRB     r3,[r7,#2]
        0x00002dfc:    787f        .x      LDRB     r7,[r7,#1]
        0x00002dfe:    021b        ..      LSLS     r3,r3,#8
        0x00002e00:    433b        ;C      ORRS     r3,r3,r7
        0x00002e02:    1ad2        ..      SUBS     r2,r2,r3
        0x00002e04:    1b92        ..      SUBS     r2,r2,r6
        0x00002e06:    0907        ..      LSRS     r7,r0,#4
        0x00002e08:    1bd0        ..      SUBS     r0,r2,r7
        0x00002e0a:    f7fdf977    ..w.    BL       __aeabi_uidiv ; 0xfc
        0x00002e0e:    1c80        ..      ADDS     r0,r0,#2
        0x00002e10:    4913        .I      LDR      r1,[pc,#76] ; [0x2e60] = 0xfff7
        0x00002e12:    60a8        .`      STR      r0,[r5,#8]
        0x00002e14:    4288        .B      CMP      r0,r1
        0x00002e16:    d31a        ..      BCC      0x2e4e ; pf_mount + 430
        0x00002e18:    2003        .       MOVS     r0,#3
        0x00002e1a:    7028        (p      STRB     r0,[r5,#0]
        0x00002e1c:    a808        ..      ADD      r0,sp,#0x20
        0x00002e1e:    7880        .x      LDRB     r0,[r0,#2]
        0x00002e20:    0201        ..      LSLS     r1,r0,#8
        0x00002e22:    a808        ..      ADD      r0,sp,#0x20
        0x00002e24:    7840        @x      LDRB     r0,[r0,#1]
        0x00002e26:    4301        .C      ORRS     r1,r1,r0
        0x00002e28:    a808        ..      ADD      r0,sp,#0x20
        0x00002e2a:    7800        .x      LDRB     r0,[r0,#0]
        0x00002e2c:    0209        ..      LSLS     r1,r1,#8
        0x00002e2e:    4301        .C      ORRS     r1,r1,r0
        0x00002e30:    4668        hF      MOV      r0,sp
        0x00002e32:    7fc0        ..      LDRB     r0,[r0,#0x1f]
        0x00002e34:    0209        ..      LSLS     r1,r1,#8
        0x00002e36:    4301        .C      ORRS     r1,r1,r0
        0x00002e38:    19b8        ..      ADDS     r0,r7,r6
        0x00002e3a:    1820         .      ADDS     r0,r4,r0
        0x00002e3c:    6129        )a      STR      r1,[r5,#0x10]
        0x00002e3e:    6168        ha      STR      r0,[r5,#0x14]
        0x00002e40:    2000        .       MOVS     r0,#0
        0x00002e42:    7068        hp      STRB     r0,[r5,#1]
        0x00002e44:    4803        .H      LDR      r0,[pc,#12] ; [0x2e54] = 0x1ffff0b8
        0x00002e46:    6005        .`      STR      r5,[r0,#0]
        0x00002e48:    2000        .       MOVS     r0,#0
        0x00002e4a:    b00b        ..      ADD      sp,sp,#0x2c
        0x00002e4c:    bdf0        ..      POP      {r4-r7,pc}
        0x00002e4e:    2006        .       MOVS     r0,#6
        0x00002e50:    b00b        ..      ADD      sp,sp,#0x2c
        0x00002e52:    bdf0        ..      POP      {r4-r7,pc}
    $d
        0x00002e54:    1ffff0b8    ....    DCD    536867000
        0x00002e58:    0000aa55    U...    DCD    43605
        0x00002e5c:    00004146    FA..    DCD    16710
        0x00002e60:    0000fff7    ....    DCD    65527
    $t
    i.pf_open
    pf_open
        0x00002e64:    b530        0.      PUSH     {r4,r5,lr}
        0x00002e66:    4921        !I      LDR      r1,[pc,#132] ; [0x2eec] = 0x1ffff0b8
        0x00002e68:    b091        ..      SUB      sp,sp,#0x44
        0x00002e6a:    680c        .h      LDR      r4,[r1,#0]
        0x00002e6c:    2c00        .,      CMP      r4,#0
        0x00002e6e:    d015        ..      BEQ      0x2e9c ; pf_open + 56
        0x00002e70:    2500        .%      MOVS     r5,#0
        0x00002e72:    7065        ep      STRB     r5,[r4,#1]
        0x00002e74:    a90d        ..      ADD      r1,sp,#0x34
        0x00002e76:    4602        .F      MOV      r2,r0
        0x00002e78:    9109        ..      STR      r1,[sp,#0x24]
        0x00002e7a:    4669        iF      MOV      r1,sp
        0x00002e7c:    a808        ..      ADD      r0,sp,#0x20
        0x00002e7e:    f7fff9e1    ....    BL       follow_path ; 0x2244
        0x00002e82:    2800        .(      CMP      r0,#0
        0x00002e84:    d108        ..      BNE      0x2e98 ; pf_open + 52
        0x00002e86:    4668        hF      MOV      r0,sp
        0x00002e88:    7800        .x      LDRB     r0,[r0,#0]
        0x00002e8a:    2800        .(      CMP      r0,#0
        0x00002e8c:    d003        ..      BEQ      0x2e96 ; pf_open + 50
        0x00002e8e:    4668        hF      MOV      r0,sp
        0x00002e90:    7ac0        .z      LDRB     r0,[r0,#0xb]
        0x00002e92:    06c0        ..      LSLS     r0,r0,#27
        0x00002e94:    d505        ..      BPL      0x2ea2 ; pf_open + 62
        0x00002e96:    2003        .       MOVS     r0,#3
        0x00002e98:    b011        ..      ADD      sp,sp,#0x44
        0x00002e9a:    bd30        0.      POP      {r4,r5,pc}
        0x00002e9c:    2005        .       MOVS     r0,#5
        0x00002e9e:    b011        ..      ADD      sp,sp,#0x44
        0x00002ea0:    bd30        0.      POP      {r4,r5,pc}
        0x00002ea2:    4668        hF      MOV      r0,sp
        0x00002ea4:    7d40        @}      LDRB     r0,[r0,#0x15]
        0x00002ea6:    0201        ..      LSLS     r1,r0,#8
        0x00002ea8:    4668        hF      MOV      r0,sp
        0x00002eaa:    7d00        .}      LDRB     r0,[r0,#0x14]
        0x00002eac:    4301        .C      ORRS     r1,r1,r0
        0x00002eae:    4668        hF      MOV      r0,sp
        0x00002eb0:    7ec0        .~      LDRB     r0,[r0,#0x1b]
        0x00002eb2:    040a        ..      LSLS     r2,r1,#16
        0x00002eb4:    0201        ..      LSLS     r1,r0,#8
        0x00002eb6:    4668        hF      MOV      r0,sp
        0x00002eb8:    7e80        .~      LDRB     r0,[r0,#0x1a]
        0x00002eba:    4301        .C      ORRS     r1,r1,r0
        0x00002ebc:    4311        .C      ORRS     r1,r1,r2
        0x00002ebe:    4668        hF      MOV      r0,sp
        0x00002ec0:    6221        !b      STR      r1,[r4,#0x20]
        0x00002ec2:    7fc0        ..      LDRB     r0,[r0,#0x1f]
        0x00002ec4:    0201        ..      LSLS     r1,r0,#8
        0x00002ec6:    4668        hF      MOV      r0,sp
        0x00002ec8:    7f80        ..      LDRB     r0,[r0,#0x1e]
        0x00002eca:    4301        .C      ORRS     r1,r1,r0
        0x00002ecc:    4668        hF      MOV      r0,sp
        0x00002ece:    7f40        @.      LDRB     r0,[r0,#0x1d]
        0x00002ed0:    0209        ..      LSLS     r1,r1,#8
        0x00002ed2:    4301        .C      ORRS     r1,r1,r0
        0x00002ed4:    4668        hF      MOV      r0,sp
        0x00002ed6:    7f00        ..      LDRB     r0,[r0,#0x1c]
        0x00002ed8:    0209        ..      LSLS     r1,r1,#8
        0x00002eda:    4301        .C      ORRS     r1,r1,r0
        0x00002edc:    61a5        .a      STR      r5,[r4,#0x18]
        0x00002ede:    2001        .       MOVS     r0,#1
        0x00002ee0:    61e1        .a      STR      r1,[r4,#0x1c]
        0x00002ee2:    7060        `p      STRB     r0,[r4,#1]
        0x00002ee4:    2000        .       MOVS     r0,#0
        0x00002ee6:    b011        ..      ADD      sp,sp,#0x44
        0x00002ee8:    bd30        0.      POP      {r4,r5,pc}
    $d
        0x00002eea:    0000        ..      DCW    0
        0x00002eec:    1ffff0b8    ....    DCD    536867000
    $t
    i.pf_opendir
    pf_opendir
        0x00002ef0:    b530        0.      PUSH     {r4,r5,lr}
        0x00002ef2:    4d24        $M      LDR      r5,[pc,#144] ; [0x2f84] = 0x1ffff0b8
        0x00002ef4:    4604        .F      MOV      r4,r0
        0x00002ef6:    6828        (h      LDR      r0,[r5,#0]
        0x00002ef8:    b08b        ..      SUB      sp,sp,#0x2c
        0x00002efa:    2800        .(      CMP      r0,#0
        0x00002efc:    d029        ).      BEQ      0x2f52 ; pf_opendir + 98
        0x00002efe:    a808        ..      ADD      r0,sp,#0x20
        0x00002f00:    460a        .F      MOV      r2,r1
        0x00002f02:    6060        ``      STR      r0,[r4,#4]
        0x00002f04:    4669        iF      MOV      r1,sp
        0x00002f06:    4620         F      MOV      r0,r4
        0x00002f08:    f7fff99c    ....    BL       follow_path ; 0x2244
        0x00002f0c:    2800        .(      CMP      r0,#0
        0x00002f0e:    d11e        ..      BNE      0x2f4e ; pf_opendir + 94
        0x00002f10:    4668        hF      MOV      r0,sp
        0x00002f12:    7800        .x      LDRB     r0,[r0,#0]
        0x00002f14:    2800        .(      CMP      r0,#0
        0x00002f16:    d010        ..      BEQ      0x2f3a ; pf_opendir + 74
        0x00002f18:    4668        hF      MOV      r0,sp
        0x00002f1a:    7ac0        .z      LDRB     r0,[r0,#0xb]
        0x00002f1c:    06c0        ..      LSLS     r0,r0,#27
        0x00002f1e:    d51b        ..      BPL      0x2f58 ; pf_opendir + 104
        0x00002f20:    4669        iF      MOV      r1,sp
        0x00002f22:    7d48        H}      LDRB     r0,[r1,#0x15]
        0x00002f24:    7d09        .}      LDRB     r1,[r1,#0x14]
        0x00002f26:    0200        ..      LSLS     r0,r0,#8
        0x00002f28:    4308        .C      ORRS     r0,r0,r1
        0x00002f2a:    0402        ..      LSLS     r2,r0,#16
        0x00002f2c:    4669        iF      MOV      r1,sp
        0x00002f2e:    7ec8        .~      LDRB     r0,[r1,#0x1b]
        0x00002f30:    7e89        .~      LDRB     r1,[r1,#0x1a]
        0x00002f32:    0200        ..      LSLS     r0,r0,#8
        0x00002f34:    4308        .C      ORRS     r0,r0,r1
        0x00002f36:    4310        .C      ORRS     r0,r0,r2
        0x00002f38:    60a0        .`      STR      r0,[r4,#8]
        0x00002f3a:    2000        .       MOVS     r0,#0
        0x00002f3c:    682a        *h      LDR      r2,[r5,#0]
        0x00002f3e:    8020         .      STRH     r0,[r4,#0]
        0x00002f40:    68a1        .h      LDR      r1,[r4,#8]
        0x00002f42:    2901        .)      CMP      r1,#1
        0x00002f44:    d002        ..      BEQ      0x2f4c ; pf_opendir + 92
        0x00002f46:    6893        .h      LDR      r3,[r2,#8]
        0x00002f48:    428b        .B      CMP      r3,r1
        0x00002f4a:    d808        ..      BHI      0x2f5e ; pf_opendir + 110
        0x00002f4c:    2001        .       MOVS     r0,#1
        0x00002f4e:    b00b        ..      ADD      sp,sp,#0x2c
        0x00002f50:    bd30        0.      POP      {r4,r5,pc}
        0x00002f52:    2005        .       MOVS     r0,#5
        0x00002f54:    b00b        ..      ADD      sp,sp,#0x2c
        0x00002f56:    bd30        0.      POP      {r4,r5,pc}
        0x00002f58:    2003        .       MOVS     r0,#3
        0x00002f5a:    b00b        ..      ADD      sp,sp,#0x2c
        0x00002f5c:    bd30        0.      POP      {r4,r5,pc}
        0x00002f5e:    2900        .)      CMP      r1,#0
        0x00002f60:    d100        ..      BNE      0x2f64 ; pf_opendir + 116
        0x00002f62:    6911        .i      LDR      r1,[r2,#0x10]
        0x00002f64:    60e1        .`      STR      r1,[r4,#0xc]
        0x00002f66:    6893        .h      LDR      r3,[r2,#8]
        0x00002f68:    1e89        ..      SUBS     r1,r1,#2
        0x00002f6a:    1e9b        ..      SUBS     r3,r3,#2
        0x00002f6c:    428b        .B      CMP      r3,r1
        0x00002f6e:    d801        ..      BHI      0x2f74 ; pf_opendir + 132
        0x00002f70:    4601        .F      MOV      r1,r0
        0x00002f72:    e003        ..      B        0x2f7c ; pf_opendir + 140
        0x00002f74:    7893        .x      LDRB     r3,[r2,#2]
        0x00002f76:    434b        KC      MULS     r3,r1,r3
        0x00002f78:    6951        Qi      LDR      r1,[r2,#0x14]
        0x00002f7a:    1859        Y.      ADDS     r1,r3,r1
        0x00002f7c:    6121        !a      STR      r1,[r4,#0x10]
        0x00002f7e:    b00b        ..      ADD      sp,sp,#0x2c
        0x00002f80:    bd30        0.      POP      {r4,r5,pc}
    $d
        0x00002f82:    0000        ..      DCW    0
        0x00002f84:    1ffff0b8    ....    DCD    536867000
    $t
    i.pf_read
    pf_read
        0x00002f88:    b5f0        ..      PUSH     {r4-r7,lr}
        0x00002f8a:    b083        ..      SUB      sp,sp,#0xc
        0x00002f8c:    460d        .F      MOV      r5,r1
        0x00002f8e:    9001        ..      STR      r0,[sp,#4]
        0x00002f90:    4617        .F      MOV      r7,r2
        0x00002f92:    4946        FI      LDR      r1,[pc,#280] ; [0x30ac] = 0x1ffff0b8
        0x00002f94:    20ff        .       MOVS     r0,#0xff
        0x00002f96:    4a46        FJ      LDR      r2,[pc,#280] ; [0x30b0] = 0x400ff040
        0x00002f98:    3001        .0      ADDS     r0,#1
        0x00002f9a:    680c        .h      LDR      r4,[r1,#0]
        0x00002f9c:    6050        P`      STR      r0,[r2,#4]
        0x00002f9e:    2000        .       MOVS     r0,#0
        0x00002fa0:    8038        8.      STRH     r0,[r7,#0]
        0x00002fa2:    2c00        .,      CMP      r4,#0
        0x00002fa4:    d00e        ..      BEQ      0x2fc4 ; pf_read + 60
        0x00002fa6:    7860        `x      LDRB     r0,[r4,#1]
        0x00002fa8:    07c0        ..      LSLS     r0,r0,#31
        0x00002faa:    d00e        ..      BEQ      0x2fca ; pf_read + 66
        0x00002fac:    69a2        .i      LDR      r2,[r4,#0x18]
        0x00002fae:    69e0        .i      LDR      r0,[r4,#0x1c]
        0x00002fb0:    1a80        ..      SUBS     r0,r0,r2
        0x00002fb2:    4285        .B      CMP      r5,r0
        0x00002fb4:    d900        ..      BLS      0x2fb8 ; pf_read + 48
        0x00002fb6:    b285        ..      UXTH     r5,r0
        0x00002fb8:    2d00        .-      CMP      r5,#0
        0x00002fba:    d070        p.      BEQ      0x309e ; pf_read + 278
        0x00002fbc:    69a0        .i      LDR      r0,[r4,#0x18]
        0x00002fbe:    05c1        ..      LSLS     r1,r0,#23
        0x00002fc0:    d006        ..      BEQ      0x2fd0 ; pf_read + 72
        0x00002fc2:    e048        H.      B        0x3056 ; pf_read + 206
        0x00002fc4:    2005        .       MOVS     r0,#5
        0x00002fc6:    b003        ..      ADD      sp,sp,#0xc
        0x00002fc8:    bdf0        ..      POP      {r4-r7,pc}
        0x00002fca:    2004        .       MOVS     r0,#4
        0x00002fcc:    b003        ..      ADD      sp,sp,#0xc
        0x00002fce:    bdf0        ..      POP      {r4-r7,pc}
        0x00002fd0:    78a1        .x      LDRB     r1,[r4,#2]
        0x00002fd2:    0a42        B.      LSRS     r2,r0,#9
        0x00002fd4:    1e49        I.      SUBS     r1,r1,#1
        0x00002fd6:    400a        .@      ANDS     r2,r2,r1
        0x00002fd8:    0616        ..      LSLS     r6,r2,#24
        0x00002fda:    0e36        6.      LSRS     r6,r6,#24
        0x00002fdc:    d12c        ,.      BNE      0x3038 ; pf_read + 176
        0x00002fde:    2800        .(      CMP      r0,#0
        0x00002fe0:    d00b        ..      BEQ      0x2ffa ; pf_read + 114
        0x00002fe2:    4932        2I      LDR      r1,[pc,#200] ; [0x30ac] = 0x1ffff0b8
        0x00002fe4:    6a60        `j      LDR      r0,[r4,#0x24]
        0x00002fe6:    6809        .h      LDR      r1,[r1,#0]
        0x00002fe8:    2802        .(      CMP      r0,#2
        0x00002fea:    d344        D.      BCC      0x3076 ; pf_read + 238
        0x00002fec:    688a        .h      LDR      r2,[r1,#8]
        0x00002fee:    4282        .B      CMP      r2,r0
        0x00002ff0:    d941        A.      BLS      0x3076 ; pf_read + 238
        0x00002ff2:    780a        .x      LDRB     r2,[r1,#0]
        0x00002ff4:    2a03        .*      CMP      r2,#3
        0x00002ff6:    d13e        >.      BNE      0x3076 ; pf_read + 238
        0x00002ff8:    e001        ..      B        0x2ffe ; pf_read + 118
        0x00002ffa:    6a20         j      LDR      r0,[r4,#0x20]
        0x00002ffc:    e019        ..      B        0x3032 ; pf_read + 170
        0x00002ffe:    68c9        .h      LDR      r1,[r1,#0xc]
        0x00003000:    09c2        ..      LSRS     r2,r0,#7
        0x00003002:    1889        ..      ADDS     r1,r1,r2
        0x00003004:    0640        @.      LSLS     r0,r0,#25
        0x00003006:    0dc2        ..      LSRS     r2,r0,#23
        0x00003008:    2304        .#      MOVS     r3,#4
        0x0000300a:    4668        hF      MOV      r0,sp
        0x0000300c:    f7fff8c4    ....    BL       disk_readp ; 0x2198
        0x00003010:    2800        .(      CMP      r0,#0
        0x00003012:    d130        0.      BNE      0x3076 ; pf_read + 238
        0x00003014:    4669        iF      MOV      r1,sp
        0x00003016:    78c8        .x      LDRB     r0,[r1,#3]
        0x00003018:    7889        .x      LDRB     r1,[r1,#2]
        0x0000301a:    0200        ..      LSLS     r0,r0,#8
        0x0000301c:    4308        .C      ORRS     r0,r0,r1
        0x0000301e:    4669        iF      MOV      r1,sp
        0x00003020:    7849        Ix      LDRB     r1,[r1,#1]
        0x00003022:    0200        ..      LSLS     r0,r0,#8
        0x00003024:    4308        .C      ORRS     r0,r0,r1
        0x00003026:    4669        iF      MOV      r1,sp
        0x00003028:    7809        .x      LDRB     r1,[r1,#0]
        0x0000302a:    0200        ..      LSLS     r0,r0,#8
        0x0000302c:    4308        .C      ORRS     r0,r0,r1
        0x0000302e:    0100        ..      LSLS     r0,r0,#4
        0x00003030:    0900        ..      LSRS     r0,r0,#4
        0x00003032:    2801        .(      CMP      r0,#1
        0x00003034:    d91f        ..      BLS      0x3076 ; pf_read + 238
        0x00003036:    6260        `b      STR      r0,[r4,#0x24]
        0x00003038:    481c        .H      LDR      r0,[pc,#112] ; [0x30ac] = 0x1ffff0b8
        0x0000303a:    6a61        aj      LDR      r1,[r4,#0x24]
        0x0000303c:    6800        .h      LDR      r0,[r0,#0]
        0x0000303e:    1e89        ..      SUBS     r1,r1,#2
        0x00003040:    6882        .h      LDR      r2,[r0,#8]
        0x00003042:    1e92        ..      SUBS     r2,r2,#2
        0x00003044:    428a        .B      CMP      r2,r1
        0x00003046:    d916        ..      BLS      0x3076 ; pf_read + 238
        0x00003048:    7882        .x      LDRB     r2,[r0,#2]
        0x0000304a:    6940        @i      LDR      r0,[r0,#0x14]
        0x0000304c:    434a        JC      MULS     r2,r1,r2
        0x0000304e:    1810        ..      ADDS     r0,r2,r0
        0x00003050:    d011        ..      BEQ      0x3076 ; pf_read + 238
        0x00003052:    1980        ..      ADDS     r0,r0,r6
        0x00003054:    62a0        .b      STR      r0,[r4,#0x28]
        0x00003056:    8b20         .      LDRH     r0,[r4,#0x18]
        0x00003058:    05c2        ..      LSLS     r2,r0,#23
        0x0000305a:    2001        .       MOVS     r0,#1
        0x0000305c:    0dd2        ..      LSRS     r2,r2,#23
        0x0000305e:    0240        @.      LSLS     r0,r0,#9
        0x00003060:    1a86        ..      SUBS     r6,r0,r2
        0x00003062:    42ae        .B      CMP      r6,r5
        0x00003064:    d900        ..      BLS      0x3068 ; pf_read + 224
        0x00003066:    462e        .F      MOV      r6,r5
        0x00003068:    4633        3F      MOV      r3,r6
        0x0000306a:    6aa1        .j      LDR      r1,[r4,#0x28]
        0x0000306c:    9801        ..      LDR      r0,[sp,#4]
        0x0000306e:    f7fff893    ....    BL       disk_readp ; 0x2198
        0x00003072:    2800        .(      CMP      r0,#0
        0x00003074:    d004        ..      BEQ      0x3080 ; pf_read + 248
        0x00003076:    2000        .       MOVS     r0,#0
        0x00003078:    7060        `p      STRB     r0,[r4,#1]
        0x0000307a:    2001        .       MOVS     r0,#1
        0x0000307c:    b003        ..      ADD      sp,sp,#0xc
        0x0000307e:    bdf0        ..      POP      {r4-r7,pc}
        0x00003080:    69a0        .i      LDR      r0,[r4,#0x18]
        0x00003082:    1980        ..      ADDS     r0,r0,r6
        0x00003084:    61a0        .a      STR      r0,[r4,#0x18]
        0x00003086:    1ba8        ..      SUBS     r0,r5,r6
        0x00003088:    b285        ..      UXTH     r5,r0
        0x0000308a:    8838        8.      LDRH     r0,[r7,#0]
        0x0000308c:    1980        ..      ADDS     r0,r0,r6
        0x0000308e:    8038        8.      STRH     r0,[r7,#0]
        0x00003090:    9801        ..      LDR      r0,[sp,#4]
        0x00003092:    2800        .(      CMP      r0,#0
        0x00003094:    d001        ..      BEQ      0x309a ; pf_read + 274
        0x00003096:    1980        ..      ADDS     r0,r0,r6
        0x00003098:    9001        ..      STR      r0,[sp,#4]
        0x0000309a:    2d00        .-      CMP      r5,#0
        0x0000309c:    d18e        ..      BNE      0x2fbc ; pf_read + 52
        0x0000309e:    20ff        .       MOVS     r0,#0xff
        0x000030a0:    4903        .I      LDR      r1,[pc,#12] ; [0x30b0] = 0x400ff040
        0x000030a2:    3001        .0      ADDS     r0,#1
        0x000030a4:    6088        .`      STR      r0,[r1,#8]
        0x000030a6:    2000        .       MOVS     r0,#0
        0x000030a8:    b003        ..      ADD      sp,sp,#0xc
        0x000030aa:    bdf0        ..      POP      {r4-r7,pc}
    $d
        0x000030ac:    1ffff0b8    ....    DCD    536867000
        0x000030b0:    400ff040    @..@    DCD    1074786368
    $t
    i.pf_readdir
    pf_readdir
        0x000030b4:    b5f3        ..      PUSH     {r0,r1,r4-r7,lr}
        0x000030b6:    497d        }I      LDR      r1,[pc,#500] ; [0x32ac] = 0x1ffff0b8
        0x000030b8:    b08d        ..      SUB      sp,sp,#0x34
        0x000030ba:    680a        .h      LDR      r2,[r1,#0]
        0x000030bc:    4604        .F      MOV      r4,r0
        0x000030be:    2a00        .*      CMP      r2,#0
        0x000030c0:    d014        ..      BEQ      0x30ec ; pf_readdir + 56
        0x000030c2:    a80a        ..      ADD      r0,sp,#0x28
        0x000030c4:    6060        ``      STR      r0,[r4,#4]
        0x000030c6:    980e        ..      LDR      r0,[sp,#0x38]
        0x000030c8:    2800        .(      CMP      r0,#0
        0x000030ca:    d012        ..      BEQ      0x30f2 ; pf_readdir + 62
        0x000030cc:    6922        "i      LDR      r2,[r4,#0x10]
        0x000030ce:    2003        .       MOVS     r0,#3
        0x000030d0:    ae02        ..      ADD      r6,sp,#8
        0x000030d2:    2a00        .*      CMP      r2,#0
        0x000030d4:    d07d        }.      BEQ      0x31d2 ; pf_readdir + 286
        0x000030d6:    7820         x      LDRB     r0,[r4,#0]
        0x000030d8:    2320         #      MOVS     r3,#0x20
        0x000030da:    0700        ..      LSLS     r0,r0,#28
        0x000030dc:    0dc2        ..      LSRS     r2,r0,#23
        0x000030de:    4630        0F      MOV      r0,r6
        0x000030e0:    6921        !i      LDR      r1,[r4,#0x10]
        0x000030e2:    f7fff859    ..Y.    BL       disk_readp ; 0x2198
        0x000030e6:    2800        .(      CMP      r0,#0
        0x000030e8:    d172        r.      BNE      0x31d0 ; pf_readdir + 284
        0x000030ea:    e01f        ..      B        0x312c ; pf_readdir + 120
        0x000030ec:    2005        .       MOVS     r0,#5
        0x000030ee:    b00f        ..      ADD      sp,sp,#0x3c
        0x000030f0:    bdf0        ..      POP      {r4-r7,pc}
        0x000030f2:    2000        .       MOVS     r0,#0
        0x000030f4:    8020         .      STRH     r0,[r4,#0]
        0x000030f6:    68a1        .h      LDR      r1,[r4,#8]
        0x000030f8:    2901        .)      CMP      r1,#1
        0x000030fa:    d002        ..      BEQ      0x3102 ; pf_readdir + 78
        0x000030fc:    6893        .h      LDR      r3,[r2,#8]
        0x000030fe:    428b        .B      CMP      r3,r1
        0x00003100:    d802        ..      BHI      0x3108 ; pf_readdir + 84
        0x00003102:    2001        .       MOVS     r0,#1
        0x00003104:    b00f        ..      ADD      sp,sp,#0x3c
        0x00003106:    bdf0        ..      POP      {r4-r7,pc}
        0x00003108:    2900        .)      CMP      r1,#0
        0x0000310a:    d100        ..      BNE      0x310e ; pf_readdir + 90
        0x0000310c:    6911        .i      LDR      r1,[r2,#0x10]
        0x0000310e:    60e1        .`      STR      r1,[r4,#0xc]
        0x00003110:    6893        .h      LDR      r3,[r2,#8]
        0x00003112:    1e89        ..      SUBS     r1,r1,#2
        0x00003114:    1e9b        ..      SUBS     r3,r3,#2
        0x00003116:    428b        .B      CMP      r3,r1
        0x00003118:    d801        ..      BHI      0x311e ; pf_readdir + 106
        0x0000311a:    4601        .F      MOV      r1,r0
        0x0000311c:    e003        ..      B        0x3126 ; pf_readdir + 114
        0x0000311e:    7893        .x      LDRB     r3,[r2,#2]
        0x00003120:    434b        KC      MULS     r3,r1,r3
        0x00003122:    6951        Qi      LDR      r1,[r2,#0x14]
        0x00003124:    1859        Y.      ADDS     r1,r3,r1
        0x00003126:    6121        !a      STR      r1,[r4,#0x10]
        0x00003128:    b00f        ..      ADD      sp,sp,#0x3c
        0x0000312a:    bdf0        ..      POP      {r4-r7,pc}
        0x0000312c:    7830        0x      LDRB     r0,[r6,#0]
        0x0000312e:    2800        .(      CMP      r0,#0
        0x00003130:    d054        T.      BEQ      0x31dc ; pf_readdir + 296
        0x00003132:    7af1        .z      LDRB     r1,[r6,#0xb]
        0x00003134:    0689        ..      LSLS     r1,r1,#26
        0x00003136:    0e89        ..      LSRS     r1,r1,#26
        0x00003138:    28e5        .(      CMP      r0,#0xe5
        0x0000313a:    d003        ..      BEQ      0x3144 ; pf_readdir + 144
        0x0000313c:    282e        .(      CMP      r0,#0x2e
        0x0000313e:    d001        ..      BEQ      0x3144 ; pf_readdir + 144
        0x00003140:    0708        ..      LSLS     r0,r1,#28
        0x00003142:    d552        R.      BPL      0x31ea ; pf_readdir + 310
        0x00003144:    4859        YH      LDR      r0,[pc,#356] ; [0x32ac] = 0x1ffff0b8
        0x00003146:    4627        'F      MOV      r7,r4
        0x00003148:    6803        .h      LDR      r3,[r0,#0]
        0x0000314a:    9301        ..      STR      r3,[sp,#4]
        0x0000314c:    8821        !.      LDRH     r1,[r4,#0]
        0x0000314e:    1c49        I.      ADDS     r1,r1,#1
        0x00003150:    040d        ..      LSLS     r5,r1,#16
        0x00003152:    0c2d        -.      LSRS     r5,r5,#16
        0x00003154:    d042        B.      BEQ      0x31dc ; pf_readdir + 296
        0x00003156:    693a        :i      LDR      r2,[r7,#0x10]
        0x00003158:    2a00        .*      CMP      r2,#0
        0x0000315a:    d03f        ?.      BEQ      0x31dc ; pf_readdir + 296
        0x0000315c:    0729        ).      LSLS     r1,r5,#28
        0x0000315e:    d161        a.      BNE      0x3224 ; pf_readdir + 368
        0x00003160:    1c52        R.      ADDS     r2,r2,#1
        0x00003162:    613a        :a      STR      r2,[r7,#0x10]
        0x00003164:    68f9        .h      LDR      r1,[r7,#0xc]
        0x00003166:    468c        .F      MOV      r12,r1
        0x00003168:    2900        .)      CMP      r1,#0
        0x0000316a:    d00f        ..      BEQ      0x318c ; pf_readdir + 216
        0x0000316c:    9a01        ..      LDR      r2,[sp,#4]
        0x0000316e:    0929        ).      LSRS     r1,r5,#4
        0x00003170:    7892        .x      LDRB     r2,[r2,#2]
        0x00003172:    1e52        R.      SUBS     r2,r2,#1
        0x00003174:    4211        .B      TST      r1,r2
        0x00003176:    d155        U.      BNE      0x3224 ; pf_readdir + 368
        0x00003178:    4662        bF      MOV      r2,r12
        0x0000317a:    2a02        .*      CMP      r2,#2
        0x0000317c:    d328        (.      BCC      0x31d0 ; pf_readdir + 284
        0x0000317e:    6898        .h      LDR      r0,[r3,#8]
        0x00003180:    4290        .B      CMP      r0,r2
        0x00003182:    d925        %.      BLS      0x31d0 ; pf_readdir + 284
        0x00003184:    7818        .x      LDRB     r0,[r3,#0]
        0x00003186:    2803        .(      CMP      r0,#3
        0x00003188:    d122        ".      BNE      0x31d0 ; pf_readdir + 284
        0x0000318a:    e004        ..      B        0x3196 ; pf_readdir + 226
        0x0000318c:    9801        ..      LDR      r0,[sp,#4]
        0x0000318e:    8880        ..      LDRH     r0,[r0,#4]
        0x00003190:    42a8        .B      CMP      r0,r5
        0x00003192:    d923        #.      BLS      0x31dc ; pf_readdir + 296
        0x00003194:    e046        F.      B        0x3224 ; pf_readdir + 368
        0x00003196:    68d8        .h      LDR      r0,[r3,#0xc]
        0x00003198:    09d1        ..      LSRS     r1,r2,#7
        0x0000319a:    1841        A.      ADDS     r1,r0,r1
        0x0000319c:    0650        P.      LSLS     r0,r2,#25
        0x0000319e:    0dc2        ..      LSRS     r2,r0,#23
        0x000031a0:    2304        .#      MOVS     r3,#4
        0x000031a2:    4668        hF      MOV      r0,sp
        0x000031a4:    f7fefff8    ....    BL       disk_readp ; 0x2198
        0x000031a8:    2800        .(      CMP      r0,#0
        0x000031aa:    d111        ..      BNE      0x31d0 ; pf_readdir + 284
        0x000031ac:    4668        hF      MOV      r0,sp
        0x000031ae:    78c0        .x      LDRB     r0,[r0,#3]
        0x000031b0:    0201        ..      LSLS     r1,r0,#8
        0x000031b2:    4668        hF      MOV      r0,sp
        0x000031b4:    7880        .x      LDRB     r0,[r0,#2]
        0x000031b6:    4301        .C      ORRS     r1,r1,r0
        0x000031b8:    4668        hF      MOV      r0,sp
        0x000031ba:    7840        @x      LDRB     r0,[r0,#1]
        0x000031bc:    0209        ..      LSLS     r1,r1,#8
        0x000031be:    4301        .C      ORRS     r1,r1,r0
        0x000031c0:    4668        hF      MOV      r0,sp
        0x000031c2:    7800        .x      LDRB     r0,[r0,#0]
        0x000031c4:    0209        ..      LSLS     r1,r1,#8
        0x000031c6:    4301        .C      ORRS     r1,r1,r0
        0x000031c8:    0108        ..      LSLS     r0,r1,#4
        0x000031ca:    0900        ..      LSRS     r0,r0,#4
        0x000031cc:    2801        .(      CMP      r0,#1
        0x000031ce:    d801        ..      BHI      0x31d4 ; pf_readdir + 288
        0x000031d0:    2001        .       MOVS     r0,#1
        0x000031d2:    e004        ..      B        0x31de ; pf_readdir + 298
        0x000031d4:    9901        ..      LDR      r1,[sp,#4]
        0x000031d6:    6889        .h      LDR      r1,[r1,#8]
        0x000031d8:    4281        .B      CMP      r1,r0
        0x000031da:    d814        ..      BHI      0x3206 ; pf_readdir + 338
        0x000031dc:    2003        .       MOVS     r0,#3
        0x000031de:    2100        .!      MOVS     r1,#0
        0x000031e0:    6121        !a      STR      r1,[r4,#0x10]
        0x000031e2:    2803        .(      CMP      r0,#3
        0x000031e4:    d001        ..      BEQ      0x31ea ; pf_readdir + 310
        0x000031e6:    2800        .(      CMP      r0,#0
        0x000031e8:    d19e        ..      BNE      0x3128 ; pf_readdir + 116
        0x000031ea:    9b0e        ..      LDR      r3,[sp,#0x38]
        0x000031ec:    6922        "i      LDR      r2,[r4,#0x10]
        0x000031ee:    4618        .F      MOV      r0,r3
        0x000031f0:    3009        .0      ADDS     r0,r0,#9
        0x000031f2:    a902        ..      ADD      r1,sp,#8
        0x000031f4:    2a00        .*      CMP      r2,#0
        0x000031f6:    d04e        N.      BEQ      0x3296 ; pf_readdir + 482
        0x000031f8:    2500        .%      MOVS     r5,#0
        0x000031fa:    5d4a        J]      LDRB     r2,[r1,r5]
        0x000031fc:    2a20         *      CMP      r2,#0x20
        0x000031fe:    d01e        ..      BEQ      0x323e ; pf_readdir + 394
        0x00003200:    2a05        .*      CMP      r2,#5
        0x00003202:    d015        ..      BEQ      0x3230 ; pf_readdir + 380
        0x00003204:    e015        ..      B        0x3232 ; pf_readdir + 382
        0x00003206:    4929        )I      LDR      r1,[pc,#164] ; [0x32ac] = 0x1ffff0b8
        0x00003208:    60f8        .`      STR      r0,[r7,#0xc]
        0x0000320a:    6809        .h      LDR      r1,[r1,#0]
        0x0000320c:    1e80        ..      SUBS     r0,r0,#2
        0x0000320e:    688a        .h      LDR      r2,[r1,#8]
        0x00003210:    1e92        ..      SUBS     r2,r2,#2
        0x00003212:    4282        .B      CMP      r2,r0
        0x00003214:    d801        ..      BHI      0x321a ; pf_readdir + 358
        0x00003216:    2000        .       MOVS     r0,#0
        0x00003218:    e003        ..      B        0x3222 ; pf_readdir + 366
        0x0000321a:    788a        .x      LDRB     r2,[r1,#2]
        0x0000321c:    4342        BC      MULS     r2,r0,r2
        0x0000321e:    6948        Hi      LDR      r0,[r1,#0x14]
        0x00003220:    1810        ..      ADDS     r0,r2,r0
        0x00003222:    6138        8a      STR      r0,[r7,#0x10]
        0x00003224:    803d        =.      STRH     r5,[r7,#0]
        0x00003226:    6920         i      LDR      r0,[r4,#0x10]
        0x00003228:    2800        .(      CMP      r0,#0
        0x0000322a:    d000        ..      BEQ      0x322e ; pf_readdir + 378
        0x0000322c:    e753        S.      B        0x30d6 ; pf_readdir + 34
        0x0000322e:    e7dc        ..      B        0x31ea ; pf_readdir + 310
        0x00003230:    22e5        ."      MOVS     r2,#0xe5
        0x00003232:    7002        .p      STRB     r2,[r0,#0]
        0x00003234:    1c6d        m.      ADDS     r5,r5,#1
        0x00003236:    b2ed        ..      UXTB     r5,r5
        0x00003238:    1c40        @.      ADDS     r0,r0,#1
        0x0000323a:    2d08        .-      CMP      r5,#8
        0x0000323c:    d3dd        ..      BCC      0x31fa ; pf_readdir + 326
        0x0000323e:    7a0a        .z      LDRB     r2,[r1,#8]
        0x00003240:    2a20         *      CMP      r2,#0x20
        0x00003242:    d011        ..      BEQ      0x3268 ; pf_readdir + 436
        0x00003244:    222e        ."      MOVS     r2,#0x2e
        0x00003246:    7002        .p      STRB     r2,[r0,#0]
        0x00003248:    7a0a        .z      LDRB     r2,[r1,#8]
        0x0000324a:    1c40        @.      ADDS     r0,r0,#1
        0x0000324c:    2a20         *      CMP      r2,#0x20
        0x0000324e:    d00b        ..      BEQ      0x3268 ; pf_readdir + 436
        0x00003250:    7002        .p      STRB     r2,[r0,#0]
        0x00003252:    7a4a        Jz      LDRB     r2,[r1,#9]
        0x00003254:    1c40        @.      ADDS     r0,r0,#1
        0x00003256:    2a20         *      CMP      r2,#0x20
        0x00003258:    d006        ..      BEQ      0x3268 ; pf_readdir + 436
        0x0000325a:    7002        .p      STRB     r2,[r0,#0]
        0x0000325c:    7a8a        .z      LDRB     r2,[r1,#0xa]
        0x0000325e:    1c40        @.      ADDS     r0,r0,#1
        0x00003260:    2a20         *      CMP      r2,#0x20
        0x00003262:    d001        ..      BEQ      0x3268 ; pf_readdir + 436
        0x00003264:    7002        .p      STRB     r2,[r0,#0]
        0x00003266:    1c40        @.      ADDS     r0,r0,#1
        0x00003268:    7aca        .z      LDRB     r2,[r1,#0xb]
        0x0000326a:    721a        .r      STRB     r2,[r3,#8]
        0x0000326c:    7fca        ..      LDRB     r2,[r1,#0x1f]
        0x0000326e:    7f8d        ..      LDRB     r5,[r1,#0x1e]
        0x00003270:    0212        ..      LSLS     r2,r2,#8
        0x00003272:    432a        *C      ORRS     r2,r2,r5
        0x00003274:    7f4d        M.      LDRB     r5,[r1,#0x1d]
        0x00003276:    0212        ..      LSLS     r2,r2,#8
        0x00003278:    432a        *C      ORRS     r2,r2,r5
        0x0000327a:    7f0d        ..      LDRB     r5,[r1,#0x1c]
        0x0000327c:    0212        ..      LSLS     r2,r2,#8
        0x0000327e:    432a        *C      ORRS     r2,r2,r5
        0x00003280:    601a        .`      STR      r2,[r3,#0]
        0x00003282:    7e4a        J~      LDRB     r2,[r1,#0x19]
        0x00003284:    7e0d        .~      LDRB     r5,[r1,#0x18]
        0x00003286:    0212        ..      LSLS     r2,r2,#8
        0x00003288:    432a        *C      ORRS     r2,r2,r5
        0x0000328a:    809a        ..      STRH     r2,[r3,#4]
        0x0000328c:    7dca        .}      LDRB     r2,[r1,#0x17]
        0x0000328e:    7d89        .}      LDRB     r1,[r1,#0x16]
        0x00003290:    0212        ..      LSLS     r2,r2,#8
        0x00003292:    430a        .C      ORRS     r2,r2,r1
        0x00003294:    80da        ..      STRH     r2,[r3,#6]
        0x00003296:    2100        .!      MOVS     r1,#0
        0x00003298:    7001        .p      STRB     r1,[r0,#0]
        0x0000329a:    4620         F      MOV      r0,r4
        0x0000329c:    f7feff14    ....    BL       dir_next ; 0x20c8
        0x000032a0:    2803        .(      CMP      r0,#3
        0x000032a2:    d1a1        ..      BNE      0x31e8 ; pf_readdir + 308
        0x000032a4:    2000        .       MOVS     r0,#0
        0x000032a6:    b00f        ..      ADD      sp,sp,#0x3c
        0x000032a8:    bdf0        ..      POP      {r4-r7,pc}
    $d
        0x000032aa:    0000        ..      DCW    0
        0x000032ac:    1ffff0b8    ....    DCD    536867000
    $t
    i.pjpeg_decode_init
    pjpeg_decode_init
        0x000032b0:    b5f0        ..      PUSH     {r4-r7,lr}
        0x000032b2:    b083        ..      SUB      sp,sp,#0xc
        0x000032b4:    2500        .%      MOVS     r5,#0
        0x000032b6:    6005        .`      STR      r5,[r0,#0]
        0x000032b8:    6045        E`      STR      r5,[r0,#4]
        0x000032ba:    6085        .`      STR      r5,[r0,#8]
        0x000032bc:    60c5        .`      STR      r5,[r0,#0xc]
        0x000032be:    6105        .a      STR      r5,[r0,#0x10]
        0x000032c0:    7505        .u      STRB     r5,[r0,#0x14]
        0x000032c2:    6185        .a      STR      r5,[r0,#0x18]
        0x000032c4:    61c5        .a      STR      r5,[r0,#0x1c]
        0x000032c6:    6205        .b      STR      r5,[r0,#0x20]
        0x000032c8:    6245        Eb      STR      r5,[r0,#0x24]
        0x000032ca:    4eff        .N      LDR      r6,[pc,#1020] ; [0x36c8] = 0x1ffff058
        0x000032cc:    6285        .b      STR      r5,[r0,#0x28]
        0x000032ce:    63f2        .c      STR      r2,[r6,#0x3c]
        0x000032d0:    63b1        .c      STR      r1,[r6,#0x38]
        0x000032d2:    7335        5s      STRB     r5,[r6,#0xc]
        0x000032d4:    7373        ss      STRB     r3,[r6,#0xd]
        0x000032d6:    8235        5.      STRH     r5,[r6,#0x10]
        0x000032d8:    8275        u.      STRH     r5,[r6,#0x12]
        0x000032da:    71b5        .q      STRB     r5,[r6,#6]
        0x000032dc:    82b5        ..      STRH     r5,[r6,#0x14]
        0x000032de:    71f5        .q      STRB     r5,[r6,#7]
        0x000032e0:    7035        5p      STRB     r5,[r6,#0]
        0x000032e2:    7075        up      STRB     r5,[r6,#1]
        0x000032e4:    70b5        .p      STRB     r5,[r6,#2]
        0x000032e6:    70f5        .p      STRB     r5,[r6,#3]
        0x000032e8:    4604        .F      MOV      r4,r0
        0x000032ea:    7135        5q      STRB     r5,[r6,#4]
        0x000032ec:    81f5        ..      STRH     r5,[r6,#0xe]
        0x000032ee:    2008        .       MOVS     r0,#8
        0x000032f0:    7170        pq      STRB     r0,[r6,#5]
        0x000032f2:    f7fff939    ..9.    BL       getBits1 ; 0x2568
        0x000032f6:    2008        .       MOVS     r0,#8
        0x000032f8:    f7fff936    ..6.    BL       getBits1 ; 0x2568
        0x000032fc:    7b30        0{      LDRB     r0,[r6,#0xc]
        0x000032fe:    2800        .(      CMP      r0,#0
        0x00003300:    d16f        o.      BNE      0x33e2 ; pjpeg_decode_init + 306
        0x00003302:    2008        .       MOVS     r0,#8
        0x00003304:    f7fff930    ..0.    BL       getBits1 ; 0x2568
        0x00003308:    b2c6        ..      UXTB     r6,r0
        0x0000330a:    2008        .       MOVS     r0,#8
        0x0000330c:    f7fff92c    ..,.    BL       getBits1 ; 0x2568
        0x00003310:    b2c0        ..      UXTB     r0,r0
        0x00003312:    2eff        ..      CMP      r6,#0xff
        0x00003314:    d101        ..      BNE      0x331a ; pjpeg_decode_init + 106
        0x00003316:    28d8        .(      CMP      r0,#0xd8
        0x00003318:    d017        ..      BEQ      0x334a ; pjpeg_decode_init + 154
        0x0000331a:    2601        .&      MOVS     r6,#1
        0x0000331c:    0336        6.      LSLS     r6,r6,#12
        0x0000331e:    1e76        v.      SUBS     r6,r6,#1
        0x00003320:    0436        6.      LSLS     r6,r6,#16
        0x00003322:    0c36        6.      LSRS     r6,r6,#16
        0x00003324:    d00a        ..      BEQ      0x333c ; pjpeg_decode_init + 140
        0x00003326:    4607        .F      MOV      r7,r0
        0x00003328:    2008        .       MOVS     r0,#8
        0x0000332a:    f7fff91d    ....    BL       getBits1 ; 0x2568
        0x0000332e:    b2c0        ..      UXTB     r0,r0
        0x00003330:    2fff        ./      CMP      r7,#0xff
        0x00003332:    d1f4        ..      BNE      0x331e ; pjpeg_decode_init + 110
        0x00003334:    28d8        .(      CMP      r0,#0xd8
        0x00003336:    d003        ..      BEQ      0x3340 ; pjpeg_decode_init + 144
        0x00003338:    28d9        .(      CMP      r0,#0xd9
        0x0000333a:    d1f0        ..      BNE      0x331e ; pjpeg_decode_init + 110
        0x0000333c:    2013        .       MOVS     r0,#0x13
        0x0000333e:    e012        ..      B        0x3366 ; pjpeg_decode_init + 182
        0x00003340:    48e1        .H      LDR      r0,[pc,#900] ; [0x36c8] = 0x1ffff058
        0x00003342:    89c0        ..      LDRH     r0,[r0,#0xe]
        0x00003344:    0a00        ..      LSRS     r0,r0,#8
        0x00003346:    28ff        .(      CMP      r0,#0xff
        0x00003348:    d1f8        ..      BNE      0x333c ; pjpeg_decode_init + 140
        0x0000334a:    4668        hF      MOV      r0,sp
        0x0000334c:    f000fbb4    ....    BL       processMarkers ; 0x3ab8
        0x00003350:    2800        .(      CMP      r0,#0
        0x00003352:    d108        ..      BNE      0x3366 ; pjpeg_decode_init + 182
        0x00003354:    4668        hF      MOV      r0,sp
        0x00003356:    7800        .x      LDRB     r0,[r0,#0]
        0x00003358:    28c0        .(      CMP      r0,#0xc0
        0x0000335a:    d00f        ..      BEQ      0x337c ; pjpeg_decode_init + 204
        0x0000335c:    28c2        .(      CMP      r0,#0xc2
        0x0000335e:    d00b        ..      BEQ      0x3378 ; pjpeg_decode_init + 200
        0x00003360:    28c9        .(      CMP      r0,#0xc9
        0x00003362:    d063        c.      BEQ      0x342c ; pjpeg_decode_init + 380
        0x00003364:    2014        .       MOVS     r0,#0x14
        0x00003366:    4602        .F      MOV      r2,r0
        0x00003368:    48d7        .H      LDR      r0,[pc,#860] ; [0x36c8] = 0x1ffff058
        0x0000336a:    4613        .F      MOV      r3,r2
        0x0000336c:    7b01        .{      LDRB     r1,[r0,#0xc]
        0x0000336e:    430b        .C      ORRS     r3,r3,r1
        0x00003370:    d05e        ^.      BEQ      0x3430 ; pjpeg_decode_init + 384
        0x00003372:    2900        .)      CMP      r1,#0
        0x00003374:    d173        s.      BNE      0x345e ; pjpeg_decode_init + 430
        0x00003376:    e1d3        ..      B        0x3720 ; pjpeg_decode_init + 1136
        0x00003378:    2025        %       MOVS     r0,#0x25
        0x0000337a:    e7f4        ..      B        0x3366 ; pjpeg_decode_init + 182
        0x0000337c:    2010        .       MOVS     r0,#0x10
        0x0000337e:    f7fff8f3    ....    BL       getBits1 ; 0x2568
        0x00003382:    9001        ..      STR      r0,[sp,#4]
        0x00003384:    2008        .       MOVS     r0,#8
        0x00003386:    f7fff8ef    ....    BL       getBits1 ; 0x2568
        0x0000338a:    2808        .(      CMP      r0,#8
        0x0000338c:    d001        ..      BEQ      0x3392 ; pjpeg_decode_init + 226
        0x0000338e:    2007        .       MOVS     r0,#7
        0x00003390:    e7e9        ..      B        0x3366 ; pjpeg_decode_init + 182
        0x00003392:    2010        .       MOVS     r0,#0x10
        0x00003394:    f7fff8e8    ....    BL       getBits1 ; 0x2568
        0x00003398:    4fcb        .O      LDR      r7,[pc,#812] ; [0x36c8] = 0x1ffff058
        0x0000339a:    2800        .(      CMP      r0,#0
        0x0000339c:    8278        x.      STRH     r0,[r7,#0x12]
        0x0000339e:    d003        ..      BEQ      0x33a8 ; pjpeg_decode_init + 248
        0x000033a0:    2601        .&      MOVS     r6,#1
        0x000033a2:    03b6        ..      LSLS     r6,r6,#14
        0x000033a4:    42b0        .B      CMP      r0,r6
        0x000033a6:    d901        ..      BLS      0x33ac ; pjpeg_decode_init + 252
        0x000033a8:    2008        .       MOVS     r0,#8
        0x000033aa:    e7dc        ..      B        0x3366 ; pjpeg_decode_init + 182
        0x000033ac:    2010        .       MOVS     r0,#0x10
        0x000033ae:    f7fff8db    ....    BL       getBits1 ; 0x2568
        0x000033b2:    8238        8.      STRH     r0,[r7,#0x10]
        0x000033b4:    2800        .(      CMP      r0,#0
        0x000033b6:    d001        ..      BEQ      0x33bc ; pjpeg_decode_init + 268
        0x000033b8:    42b0        .B      CMP      r0,r6
        0x000033ba:    d901        ..      BLS      0x33c0 ; pjpeg_decode_init + 272
        0x000033bc:    2009        .       MOVS     r0,#9
        0x000033be:    e7d2        ..      B        0x3366 ; pjpeg_decode_init + 182
        0x000033c0:    2008        .       MOVS     r0,#8
        0x000033c2:    f7fff8d1    ....    BL       getBits1 ; 0x2568
        0x000033c6:    b2c0        ..      UXTB     r0,r0
        0x000033c8:    71b8        .q      STRB     r0,[r7,#6]
        0x000033ca:    2803        .(      CMP      r0,#3
        0x000033cc:    d901        ..      BLS      0x33d2 ; pjpeg_decode_init + 290
        0x000033ce:    200a        .       MOVS     r0,#0xa
        0x000033d0:    e7c9        ..      B        0x3366 ; pjpeg_decode_init + 182
        0x000033d2:    0042        B.      LSLS     r2,r0,#1
        0x000033d4:    1812        ..      ADDS     r2,r2,r0
        0x000033d6:    9b01        ..      LDR      r3,[sp,#4]
        0x000033d8:    3208        .2      ADDS     r2,r2,#8
        0x000033da:    429a        .B      CMP      r2,r3
        0x000033dc:    d002        ..      BEQ      0x33e4 ; pjpeg_decode_init + 308
        0x000033de:    200b        .       MOVS     r0,#0xb
        0x000033e0:    e7c1        ..      B        0x3366 ; pjpeg_decode_init + 182
        0x000033e2:    e089        ..      B        0x34f8 ; pjpeg_decode_init + 584
        0x000033e4:    2600        .&      MOVS     r6,#0
        0x000033e6:    2800        .(      CMP      r0,#0
        0x000033e8:    d91e        ..      BLS      0x3428 ; pjpeg_decode_init + 376
        0x000033ea:    4fb8        .O      LDR      r7,[pc,#736] ; [0x36cc] = 0x1ffff07e
        0x000033ec:    2008        .       MOVS     r0,#8
        0x000033ee:    f7fff8bb    ....    BL       getBits1 ; 0x2568
        0x000033f2:    49b7        .I      LDR      r1,[pc,#732] ; [0x36d0] = 0x1ffff078
        0x000033f4:    5588        .U      STRB     r0,[r1,r6]
        0x000033f6:    2004        .       MOVS     r0,#4
        0x000033f8:    f7fff8b6    ....    BL       getBits1 ; 0x2568
        0x000033fc:    49b5        .I      LDR      r1,[pc,#724] ; [0x36d4] = 0x1ffff07b
        0x000033fe:    5588        .U      STRB     r0,[r1,r6]
        0x00003400:    2004        .       MOVS     r0,#4
        0x00003402:    f7fff8b1    ....    BL       getBits1 ; 0x2568
        0x00003406:    55b8        .U      STRB     r0,[r7,r6]
        0x00003408:    2008        .       MOVS     r0,#8
        0x0000340a:    f7fff8ad    ....    BL       getBits1 ; 0x2568
        0x0000340e:    b2c0        ..      UXTB     r0,r0
        0x00003410:    49b1        .I      LDR      r1,[pc,#708] ; [0x36d8] = 0x1ffff081
        0x00003412:    2801        .(      CMP      r0,#1
        0x00003414:    5588        .U      STRB     r0,[r1,r6]
        0x00003416:    d901        ..      BLS      0x341c ; pjpeg_decode_init + 364
        0x00003418:    2024        $       MOVS     r0,#0x24
        0x0000341a:    e7a4        ..      B        0x3366 ; pjpeg_decode_init + 182
        0x0000341c:    48aa        .H      LDR      r0,[pc,#680] ; [0x36c8] = 0x1ffff058
        0x0000341e:    1c76        v.      ADDS     r6,r6,#1
        0x00003420:    7980        .y      LDRB     r0,[r0,#6]
        0x00003422:    b2f6        ..      UXTB     r6,r6
        0x00003424:    4286        .B      CMP      r6,r0
        0x00003426:    d3e1        ..      BCC      0x33ec ; pjpeg_decode_init + 316
        0x00003428:    4628        (F      MOV      r0,r5
        0x0000342a:    e79c        ..      B        0x3366 ; pjpeg_decode_init + 182
        0x0000342c:    2011        .       MOVS     r0,#0x11
        0x0000342e:    e79a        ..      B        0x3366 ; pjpeg_decode_init + 182
        0x00003430:    7983        .y      LDRB     r3,[r0,#6]
        0x00003432:    4aaa        .J      LDR      r2,[pc,#680] ; [0x36dc] = 0x1ffff09e
        0x00003434:    2b01        .+      CMP      r3,#1
        0x00003436:    d003        ..      BEQ      0x3440 ; pjpeg_decode_init + 400
        0x00003438:    2b03        .+      CMP      r3,#3
        0x0000343a:    d011        ..      BEQ      0x3460 ; pjpeg_decode_init + 432
        0x0000343c:    221a        ."      MOVS     r2,#0x1a
        0x0000343e:    e055        U.      B        0x34ec ; pjpeg_decode_init + 572
        0x00003440:    4ba4        .K      LDR      r3,[pc,#656] ; [0x36d4] = 0x1ffff07b
        0x00003442:    781b        .x      LDRB     r3,[r3,#0]
        0x00003444:    2b01        .+      CMP      r3,#1
        0x00003446:    d15e        ^.      BNE      0x3506 ; pjpeg_decode_init + 598
        0x00003448:    4ba0        .K      LDR      r3,[pc,#640] ; [0x36cc] = 0x1ffff07e
        0x0000344a:    781b        .x      LDRB     r3,[r3,#0]
        0x0000344c:    2b01        .+      CMP      r3,#1
        0x0000344e:    d15a        Z.      BNE      0x3506 ; pjpeg_decode_init + 598
        0x00003450:    7205        .r      STRB     r5,[r0,#8]
        0x00003452:    7243        Cr      STRB     r3,[r0,#9]
        0x00003454:    7015        .p      STRB     r5,[r2,#0]
        0x00003456:    2208        ."      MOVS     r2,#8
        0x00003458:    7282        .r      STRB     r2,[r0,#0xa]
        0x0000345a:    72c2        .r      STRB     r2,[r0,#0xb]
        0x0000345c:    e030        0.      B        0x34c0 ; pjpeg_decode_init + 528
        0x0000345e:    e04a        J.      B        0x34f6 ; pjpeg_decode_init + 582
        0x00003460:    4e9c        .N      LDR      r6,[pc,#624] ; [0x36d4] = 0x1ffff07b
        0x00003462:    7873        sx      LDRB     r3,[r6,#1]
        0x00003464:    2b01        .+      CMP      r3,#1
        0x00003466:    d14e        N.      BNE      0x3506 ; pjpeg_decode_init + 598
        0x00003468:    1cf7        ..      ADDS     r7,r6,#3
        0x0000346a:    787b        {x      LDRB     r3,[r7,#1]
        0x0000346c:    2b01        .+      CMP      r3,#1
        0x0000346e:    d14a        J.      BNE      0x3506 ; pjpeg_decode_init + 598
        0x00003470:    78b3        .x      LDRB     r3,[r6,#2]
        0x00003472:    2b01        .+      CMP      r3,#1
        0x00003474:    d147        G.      BNE      0x3506 ; pjpeg_decode_init + 598
        0x00003476:    78bb        .x      LDRB     r3,[r7,#2]
        0x00003478:    2b01        .+      CMP      r3,#1
        0x0000347a:    d144        D.      BNE      0x3506 ; pjpeg_decode_init + 598
        0x0000347c:    7836        6x      LDRB     r6,[r6,#0]
        0x0000347e:    2302        .#      MOVS     r3,#2
        0x00003480:    2e01        ..      CMP      r6,#1
        0x00003482:    d002        ..      BEQ      0x348a ; pjpeg_decode_init + 474
        0x00003484:    2e02        ..      CMP      r6,#2
        0x00003486:    d039        9.      BEQ      0x34fc ; pjpeg_decode_init + 588
        0x00003488:    e03d        =.      B        0x3506 ; pjpeg_decode_init + 598
        0x0000348a:    783e        >x      LDRB     r6,[r7,#0]
        0x0000348c:    2703        .'      MOVS     r7,#3
        0x0000348e:    2e01        ..      CMP      r6,#1
        0x00003490:    d002        ..      BEQ      0x3498 ; pjpeg_decode_init + 488
        0x00003492:    2e02        ..      CMP      r6,#2
        0x00003494:    d008        ..      BEQ      0x34a8 ; pjpeg_decode_init + 504
        0x00003496:    e036        6.      B        0x3506 ; pjpeg_decode_init + 598
        0x00003498:    2601        .&      MOVS     r6,#1
        0x0000349a:    7206        .r      STRB     r6,[r0,#8]
        0x0000349c:    7247        Gr      STRB     r7,[r0,#9]
        0x0000349e:    7015        .p      STRB     r5,[r2,#0]
        0x000034a0:    7056        Vp      STRB     r6,[r2,#1]
        0x000034a2:    7093        .p      STRB     r3,[r2,#2]
        0x000034a4:    2208        ."      MOVS     r2,#8
        0x000034a6:    e048        H.      B        0x353a ; pjpeg_decode_init + 650
        0x000034a8:    7207        .r      STRB     r7,[r0,#8]
        0x000034aa:    2604        .&      MOVS     r6,#4
        0x000034ac:    7246        Fr      STRB     r6,[r0,#9]
        0x000034ae:    7015        .p      STRB     r5,[r2,#0]
        0x000034b0:    7055        Up      STRB     r5,[r2,#1]
        0x000034b2:    2601        .&      MOVS     r6,#1
        0x000034b4:    7096        .p      STRB     r6,[r2,#2]
        0x000034b6:    70d3        .p      STRB     r3,[r2,#3]
        0x000034b8:    2208        ."      MOVS     r2,#8
        0x000034ba:    7282        .r      STRB     r2,[r0,#0xa]
        0x000034bc:    2210        ."      MOVS     r2,#0x10
        0x000034be:    72c2        .r      STRB     r2,[r0,#0xb]
        0x000034c0:    8a02        ..      LDRH     r2,[r0,#0x10]
        0x000034c2:    7a83        .z      LDRB     r3,[r0,#0xa]
        0x000034c4:    18d2        ..      ADDS     r2,r2,r3
        0x000034c6:    1e52        R.      SUBS     r2,r2,#1
        0x000034c8:    2b08        .+      CMP      r3,#8
        0x000034ca:    d038        8.      BEQ      0x353e ; pjpeg_decode_init + 654
        0x000034cc:    2304        .#      MOVS     r3,#4
        0x000034ce:    411a        .A      ASRS     r2,r2,r3
        0x000034d0:    b293        ..      UXTH     r3,r2
        0x000034d2:    8343        C.      STRH     r3,[r0,#0x1a]
        0x000034d4:    8a42        B.      LDRH     r2,[r0,#0x12]
        0x000034d6:    7ac6        .z      LDRB     r6,[r0,#0xb]
        0x000034d8:    1992        ..      ADDS     r2,r2,r6
        0x000034da:    1e52        R.      SUBS     r2,r2,#1
        0x000034dc:    2e08        ..      CMP      r6,#8
        0x000034de:    d030        0.      BEQ      0x3542 ; pjpeg_decode_init + 658
        0x000034e0:    2604        .&      MOVS     r6,#4
        0x000034e2:    4132        2A      ASRS     r2,r2,r6
        0x000034e4:    8382        ..      STRH     r2,[r0,#0x1c]
        0x000034e6:    4353        SC      MULS     r3,r2,r3
        0x000034e8:    83c3        ..      STRH     r3,[r0,#0x1e]
        0x000034ea:    2200        ."      MOVS     r2,#0
        0x000034ec:    4610        .F      MOV      r0,r2
        0x000034ee:    4308        .C      ORRS     r0,r0,r1
        0x000034f0:    d029        ).      BEQ      0x3546 ; pjpeg_decode_init + 662
        0x000034f2:    2900        .)      CMP      r1,#0
        0x000034f4:    d07e        ~.      BEQ      0x35f4 ; pjpeg_decode_init + 836
        0x000034f6:    4608        .F      MOV      r0,r1
        0x000034f8:    b003        ..      ADD      sp,sp,#0xc
        0x000034fa:    bdf0        ..      POP      {r4-r7,pc}
        0x000034fc:    783e        >x      LDRB     r6,[r7,#0]
        0x000034fe:    2e01        ..      CMP      r6,#1
        0x00003500:    d003        ..      BEQ      0x350a ; pjpeg_decode_init + 602
        0x00003502:    2e02        ..      CMP      r6,#2
        0x00003504:    d00d        ..      BEQ      0x3522 ; pjpeg_decode_init + 626
        0x00003506:    221b        ."      MOVS     r2,#0x1b
        0x00003508:    e7f0        ..      B        0x34ec ; pjpeg_decode_init + 572
        0x0000350a:    7203        .r      STRB     r3,[r0,#8]
        0x0000350c:    2604        .&      MOVS     r6,#4
        0x0000350e:    7246        Fr      STRB     r6,[r0,#9]
        0x00003510:    7015        .p      STRB     r5,[r2,#0]
        0x00003512:    7055        Up      STRB     r5,[r2,#1]
        0x00003514:    2601        .&      MOVS     r6,#1
        0x00003516:    7096        .p      STRB     r6,[r2,#2]
        0x00003518:    70d3        .p      STRB     r3,[r2,#3]
        0x0000351a:    2210        ."      MOVS     r2,#0x10
        0x0000351c:    7282        .r      STRB     r2,[r0,#0xa]
        0x0000351e:    2208        ."      MOVS     r2,#8
        0x00003520:    e7cd        ..      B        0x34be ; pjpeg_decode_init + 526
        0x00003522:    2604        .&      MOVS     r6,#4
        0x00003524:    7206        .r      STRB     r6,[r0,#8]
        0x00003526:    2606        .&      MOVS     r6,#6
        0x00003528:    7246        Fr      STRB     r6,[r0,#9]
        0x0000352a:    7015        .p      STRB     r5,[r2,#0]
        0x0000352c:    7055        Up      STRB     r5,[r2,#1]
        0x0000352e:    7095        .p      STRB     r5,[r2,#2]
        0x00003530:    70d5        .p      STRB     r5,[r2,#3]
        0x00003532:    2601        .&      MOVS     r6,#1
        0x00003534:    7116        .q      STRB     r6,[r2,#4]
        0x00003536:    7153        Sq      STRB     r3,[r2,#5]
        0x00003538:    2210        ."      MOVS     r2,#0x10
        0x0000353a:    7282        .r      STRB     r2,[r0,#0xa]
        0x0000353c:    e7bf        ..      B        0x34be ; pjpeg_decode_init + 526
        0x0000353e:    2303        .#      MOVS     r3,#3
        0x00003540:    e7c5        ..      B        0x34ce ; pjpeg_decode_init + 542
        0x00003542:    2603        .&      MOVS     r6,#3
        0x00003544:    e7cd        ..      B        0x34e2 ; pjpeg_decode_init + 562
        0x00003546:    2000        .       MOVS     r0,#0
        0x00003548:    9001        ..      STR      r0,[sp,#4]
        0x0000354a:    4668        hF      MOV      r0,sp
        0x0000354c:    f000fab4    ....    BL       processMarkers ; 0x3ab8
        0x00003550:    2800        .(      CMP      r0,#0
        0x00003552:    d17d        }.      BNE      0x3650 ; pjpeg_decode_init + 928
        0x00003554:    4668        hF      MOV      r0,sp
        0x00003556:    7800        .x      LDRB     r0,[r0,#0]
        0x00003558:    28d9        .(      CMP      r0,#0xd9
        0x0000355a:    d001        ..      BEQ      0x3560 ; pjpeg_decode_init + 688
        0x0000355c:    28da        .(      CMP      r0,#0xda
        0x0000355e:    d001        ..      BEQ      0x3564 ; pjpeg_decode_init + 692
        0x00003560:    2012        .       MOVS     r0,#0x12
        0x00003562:    e0d5        ..      B        0x3710 ; pjpeg_decode_init + 1120
        0x00003564:    2010        .       MOVS     r0,#0x10
        0x00003566:    f7feffff    ....    BL       getBits1 ; 0x2568
        0x0000356a:    4605        .F      MOV      r5,r0
        0x0000356c:    2008        .       MOVS     r0,#8
        0x0000356e:    f7fefffb    ....    BL       getBits1 ; 0x2568
        0x00003572:    b2c0        ..      UXTB     r0,r0
        0x00003574:    4954        TI      LDR      r1,[pc,#336] ; [0x36c8] = 0x1ffff058
        0x00003576:    1eed        ..      SUBS     r5,r5,#3
        0x00003578:    0042        B.      LSLS     r2,r0,#1
        0x0000357a:    b2ad        ..      UXTH     r5,r5
        0x0000357c:    1cd2        ..      ADDS     r2,r2,#3
        0x0000357e:    71c8        .q      STRB     r0,[r1,#7]
        0x00003580:    42aa        .B      CMP      r2,r5
        0x00003582:    d103        ..      BNE      0x358c ; pjpeg_decode_init + 732
        0x00003584:    2800        .(      CMP      r0,#0
        0x00003586:    d001        ..      BEQ      0x358c ; pjpeg_decode_init + 732
        0x00003588:    2803        .(      CMP      r0,#3
        0x0000358a:    d901        ..      BLS      0x3590 ; pjpeg_decode_init + 736
        0x0000358c:    200e        .       MOVS     r0,#0xe
        0x0000358e:    e0bf        ..      B        0x3710 ; pjpeg_decode_init + 1120
        0x00003590:    2700        .'      MOVS     r7,#0
        0x00003592:    2800        .(      CMP      r0,#0
        0x00003594:    d92c        ,.      BLS      0x35f0 ; pjpeg_decode_init + 832
        0x00003596:    2008        .       MOVS     r0,#8
        0x00003598:    f7feffe6    ....    BL       getBits1 ; 0x2568
        0x0000359c:    b2c6        ..      UXTB     r6,r0
        0x0000359e:    2008        .       MOVS     r0,#8
        0x000035a0:    f7feffe2    ....    BL       getBits1 ; 0x2568
        0x000035a4:    4948        HI      LDR      r1,[pc,#288] ; [0x36c8] = 0x1ffff058
        0x000035a6:    b2c0        ..      UXTB     r0,r0
        0x000035a8:    4684        .F      MOV      r12,r0
        0x000035aa:    1ead        ..      SUBS     r5,r5,#2
        0x000035ac:    7989        .y      LDRB     r1,[r1,#6]
        0x000035ae:    2000        .       MOVS     r0,#0
        0x000035b0:    b2ad        ..      UXTH     r5,r5
        0x000035b2:    2900        .)      CMP      r1,#0
        0x000035b4:    d907        ..      BLS      0x35c6 ; pjpeg_decode_init + 790
        0x000035b6:    4a46        FJ      LDR      r2,[pc,#280] ; [0x36d0] = 0x1ffff078
        0x000035b8:    5c13        .\      LDRB     r3,[r2,r0]
        0x000035ba:    42b3        .B      CMP      r3,r6
        0x000035bc:    d003        ..      BEQ      0x35c6 ; pjpeg_decode_init + 790
        0x000035be:    1c40        @.      ADDS     r0,r0,#1
        0x000035c0:    b2c0        ..      UXTB     r0,r0
        0x000035c2:    4288        .B      CMP      r0,r1
        0x000035c4:    d3f8        ..      BCC      0x35b8 ; pjpeg_decode_init + 776
        0x000035c6:    4a40        @J      LDR      r2,[pc,#256] ; [0x36c8] = 0x1ffff058
        0x000035c8:    4288        .B      CMP      r0,r1
        0x000035ca:    d301        ..      BCC      0x35d0 ; pjpeg_decode_init + 800
        0x000035cc:    200f        .       MOVS     r0,#0xf
        0x000035ce:    e09f        ..      B        0x3710 ; pjpeg_decode_init + 1120
        0x000035d0:    4943        CI      LDR      r1,[pc,#268] ; [0x36e0] = 0x1ffff084
        0x000035d2:    55c8        .U      STRB     r0,[r1,r7]
        0x000035d4:    4661        aF      MOV      r1,r12
        0x000035d6:    090b        ..      LSRS     r3,r1,#4
        0x000035d8:    4942        BI      LDR      r1,[pc,#264] ; [0x36e4] = 0x1ffff087
        0x000035da:    1c7f        ..      ADDS     r7,r7,#1
        0x000035dc:    540b        .T      STRB     r3,[r1,r0]
        0x000035de:    4661        aF      MOV      r1,r12
        0x000035e0:    070b        ..      LSLS     r3,r1,#28
        0x000035e2:    4941        AI      LDR      r1,[pc,#260] ; [0x36e8] = 0x1ffff08a
        0x000035e4:    0f1b        ..      LSRS     r3,r3,#28
        0x000035e6:    540b        .T      STRB     r3,[r1,r0]
        0x000035e8:    79d0        .y      LDRB     r0,[r2,#7]
        0x000035ea:    b2ff        ..      UXTB     r7,r7
        0x000035ec:    4287        .B      CMP      r7,r0
        0x000035ee:    d3d2        ..      BCC      0x3596 ; pjpeg_decode_init + 742
        0x000035f0:    2008        .       MOVS     r0,#8
        0x000035f2:    e000        ..      B        0x35f6 ; pjpeg_decode_init + 838
        0x000035f4:    e094        ..      B        0x3720 ; pjpeg_decode_init + 1136
        0x000035f6:    f7feffb7    ....    BL       getBits1 ; 0x2568
        0x000035fa:    2008        .       MOVS     r0,#8
        0x000035fc:    f7feffb4    ....    BL       getBits1 ; 0x2568
        0x00003600:    2004        .       MOVS     r0,#4
        0x00003602:    f7feffb1    ....    BL       getBits1 ; 0x2568
        0x00003606:    2004        .       MOVS     r0,#4
        0x00003608:    f7feffae    ....    BL       getBits1 ; 0x2568
        0x0000360c:    1eed        ..      SUBS     r5,r5,#3
        0x0000360e:    042d        -.      LSLS     r5,r5,#16
        0x00003610:    0c2d        -.      LSRS     r5,r5,#16
        0x00003612:    d006        ..      BEQ      0x3622 ; pjpeg_decode_init + 882
        0x00003614:    2008        .       MOVS     r0,#8
        0x00003616:    f7feffa7    ....    BL       getBits1 ; 0x2568
        0x0000361a:    1e6d        m.      SUBS     r5,r5,#1
        0x0000361c:    042d        -.      LSLS     r5,r5,#16
        0x0000361e:    0c2d        -.      LSRS     r5,r5,#16
        0x00003620:    d1f8        ..      BNE      0x3614 ; pjpeg_decode_init + 868
        0x00003622:    9801        ..      LDR      r0,[sp,#4]
        0x00003624:    2800        .(      CMP      r0,#0
        0x00003626:    d19b        ..      BNE      0x3560 ; pjpeg_decode_init + 688
        0x00003628:    4827        'H      LDR      r0,[pc,#156] ; [0x36c8] = 0x1ffff058
        0x0000362a:    2200        ."      MOVS     r2,#0
        0x0000362c:    79c1        .y      LDRB     r1,[r0,#7]
        0x0000362e:    2900        .)      CMP      r1,#0
        0x00003630:    d918        ..      BLS      0x3664 ; pjpeg_decode_init + 948
        0x00003632:    7803        .x      LDRB     r3,[r0,#0]
        0x00003634:    482a        *H      LDR      r0,[pc,#168] ; [0x36e0] = 0x1ffff084
        0x00003636:    4d2b        +M      LDR      r5,[pc,#172] ; [0x36e4] = 0x1ffff087
        0x00003638:    5c80        .\      LDRB     r0,[r0,r2]
        0x0000363a:    2701        .'      MOVS     r7,#1
        0x0000363c:    5c2e        .\      LDRB     r6,[r5,r0]
        0x0000363e:    1ced        ..      ADDS     r5,r5,#3
        0x00003640:    5c28        (\      LDRB     r0,[r5,r0]
        0x00003642:    1c80        ..      ADDS     r0,r0,#2
        0x00003644:    b2c5        ..      UXTB     r5,r0
        0x00003646:    4638        8F      MOV      r0,r7
        0x00003648:    40b0        .@      LSLS     r0,r0,r6
        0x0000364a:    4218        .B      TST      r0,r3
        0x0000364c:    d004        ..      BEQ      0x3658 ; pjpeg_decode_init + 936
        0x0000364e:    e000        ..      B        0x3652 ; pjpeg_decode_init + 930
        0x00003650:    e05e        ^.      B        0x3710 ; pjpeg_decode_init + 1120
        0x00003652:    40af        .@      LSLS     r7,r7,r5
        0x00003654:    421f        .B      TST      r7,r3
        0x00003656:    d101        ..      BNE      0x365c ; pjpeg_decode_init + 940
        0x00003658:    2018        .       MOVS     r0,#0x18
        0x0000365a:    e059        Y.      B        0x3710 ; pjpeg_decode_init + 1120
        0x0000365c:    1c52        R.      ADDS     r2,r2,#1
        0x0000365e:    b2d2        ..      UXTB     r2,r2
        0x00003660:    428a        .B      CMP      r2,r1
        0x00003662:    d3e7        ..      BCC      0x3634 ; pjpeg_decode_init + 900
        0x00003664:    2000        .       MOVS     r0,#0
        0x00003666:    4f18        .O      LDR      r7,[pc,#96] ; [0x36c8] = 0x1ffff058
        0x00003668:    2900        .)      CMP      r1,#0
        0x0000366a:    d911        ..      BLS      0x3690 ; pjpeg_decode_init + 992
        0x0000366c:    4d1a        .M      LDR      r5,[pc,#104] ; [0x36d8] = 0x1ffff081
        0x0000366e:    787a        zx      LDRB     r2,[r7,#1]
        0x00003670:    1cee        ..      ADDS     r6,r5,#3
        0x00003672:    5c33        3\      LDRB     r3,[r6,r0]
        0x00003674:    5ceb        .\      LDRB     r3,[r5,r3]
        0x00003676:    2b00        .+      CMP      r3,#0
        0x00003678:    d001        ..      BEQ      0x367e ; pjpeg_decode_init + 974
        0x0000367a:    2302        .#      MOVS     r3,#2
        0x0000367c:    e000        ..      B        0x3680 ; pjpeg_decode_init + 976
        0x0000367e:    2301        .#      MOVS     r3,#1
        0x00003680:    421a        .B      TST      r2,r3
        0x00003682:    d101        ..      BNE      0x3688 ; pjpeg_decode_init + 984
        0x00003684:    2017        .       MOVS     r0,#0x17
        0x00003686:    e043        C.      B        0x3710 ; pjpeg_decode_init + 1120
        0x00003688:    1c40        @.      ADDS     r0,r0,#1
        0x0000368a:    b2c0        ..      UXTB     r0,r0
        0x0000368c:    4288        .B      CMP      r0,r1
        0x0000368e:    d3f0        ..      BCC      0x3672 ; pjpeg_decode_init + 962
        0x00003690:    4816        .H      LDR      r0,[pc,#88] ; [0x36ec] = 0x1ffff098
        0x00003692:    2500        .%      MOVS     r5,#0
        0x00003694:    8005        ..      STRH     r5,[r0,#0]
        0x00003696:    8045        E.      STRH     r5,[r0,#2]
        0x00003698:    8085        ..      STRH     r5,[r0,#4]
        0x0000369a:    8ab8        ..      LDRH     r0,[r7,#0x14]
        0x0000369c:    2800        .(      CMP      r0,#0
        0x0000369e:    d001        ..      BEQ      0x36a4 ; pjpeg_decode_init + 1012
        0x000036a0:    8338        8.      STRH     r0,[r7,#0x18]
        0x000036a2:    82fd        ..      STRH     r5,[r7,#0x16]
        0x000036a4:    7978        xy      LDRB     r0,[r7,#5]
        0x000036a6:    4912        .I      LDR      r1,[pc,#72] ; [0x36f0] = 0x1ffffe90
        0x000036a8:    2800        .(      CMP      r0,#0
        0x000036aa:    d008        ..      BEQ      0x36be ; pjpeg_decode_init + 1038
        0x000036ac:    78fa        .x      LDRB     r2,[r7,#3]
        0x000036ae:    7bb8        .{      LDRB     r0,[r7,#0xe]
        0x000036b0:    1e52        R.      SUBS     r2,r2,#1
        0x000036b2:    b2d2        ..      UXTB     r2,r2
        0x000036b4:    70fa        .p      STRB     r2,[r7,#3]
        0x000036b6:    5488        .T      STRB     r0,[r1,r2]
        0x000036b8:    7938        8y      LDRB     r0,[r7,#4]
        0x000036ba:    1c40        @.      ADDS     r0,r0,#1
        0x000036bc:    7138        8q      STRB     r0,[r7,#4]
        0x000036be:    89f8        ..      LDRH     r0,[r7,#0xe]
        0x000036c0:    78fa        .x      LDRB     r2,[r7,#3]
        0x000036c2:    0a00        ..      LSRS     r0,r0,#8
        0x000036c4:    1e52        R.      SUBS     r2,r2,#1
        0x000036c6:    e015        ..      B        0x36f4 ; pjpeg_decode_init + 1092
    $d
        0x000036c8:    1ffff058    X...    DCD    536866904
        0x000036cc:    1ffff07e    ~...    DCD    536866942
        0x000036d0:    1ffff078    x...    DCD    536866936
        0x000036d4:    1ffff07b    {...    DCD    536866939
        0x000036d8:    1ffff081    ....    DCD    536866945
        0x000036dc:    1ffff09e    ....    DCD    536866974
        0x000036e0:    1ffff084    ....    DCD    536866948
        0x000036e4:    1ffff087    ....    DCD    536866951
        0x000036e8:    1ffff08a    ....    DCD    536866954
        0x000036ec:    1ffff098    ....    DCD    536866968
        0x000036f0:    1ffffe90    ....    DCD    536870544
    $t
        0x000036f4:    b2d2        ..      UXTB     r2,r2
        0x000036f6:    70fa        .p      STRB     r2,[r7,#3]
        0x000036f8:    5488        .T      STRB     r0,[r1,r2]
        0x000036fa:    7938        8y      LDRB     r0,[r7,#4]
        0x000036fc:    1c40        @.      ADDS     r0,r0,#1
        0x000036fe:    7138        8q      STRB     r0,[r7,#4]
        0x00003700:    2008        .       MOVS     r0,#8
        0x00003702:    7178        xq      STRB     r0,[r7,#5]
        0x00003704:    f7feff35    ..5.    BL       getBits2 ; 0x2572
        0x00003708:    2008        .       MOVS     r0,#8
        0x0000370a:    f7feff32    ..2.    BL       getBits2 ; 0x2572
        0x0000370e:    4628        (F      MOV      r0,r5
        0x00003710:    4911        .I      LDR      r1,[pc,#68] ; [0x3758] = 0x1ffff058
        0x00003712:    4603        .F      MOV      r3,r0
        0x00003714:    7b0a        .{      LDRB     r2,[r1,#0xc]
        0x00003716:    4313        .C      ORRS     r3,r3,r2
        0x00003718:    d005        ..      BEQ      0x3726 ; pjpeg_decode_init + 1142
        0x0000371a:    2a00        .*      CMP      r2,#0
        0x0000371c:    d100        ..      BNE      0x3720 ; pjpeg_decode_init + 1136
        0x0000371e:    e6eb        ..      B        0x34f8 ; pjpeg_decode_init + 584
        0x00003720:    4610        .F      MOV      r0,r2
        0x00003722:    b003        ..      ADD      sp,sp,#0xc
        0x00003724:    bdf0        ..      POP      {r4-r7,pc}
        0x00003726:    8a08        ..      LDRH     r0,[r1,#0x10]
        0x00003728:    6020         `      STR      r0,[r4,#0]
        0x0000372a:    8a48        H.      LDRH     r0,[r1,#0x12]
        0x0000372c:    6060        ``      STR      r0,[r4,#4]
        0x0000372e:    7988        .y      LDRB     r0,[r1,#6]
        0x00003730:    60a0        .`      STR      r0,[r4,#8]
        0x00003732:    7a08        .z      LDRB     r0,[r1,#8]
        0x00003734:    7520         u      STRB     r0,[r4,#0x14]
        0x00003736:    8b48        H.      LDRH     r0,[r1,#0x1a]
        0x00003738:    60e0        .`      STR      r0,[r4,#0xc]
        0x0000373a:    8b88        ..      LDRH     r0,[r1,#0x1c]
        0x0000373c:    6120         a      STR      r0,[r4,#0x10]
        0x0000373e:    7a88        .z      LDRB     r0,[r1,#0xa]
        0x00003740:    61a0        .a      STR      r0,[r4,#0x18]
        0x00003742:    7ac8        .z      LDRB     r0,[r1,#0xb]
        0x00003744:    61e0        .a      STR      r0,[r4,#0x1c]
        0x00003746:    4805        .H      LDR      r0,[pc,#20] ; [0x375c] = 0x1ffff730
        0x00003748:    6220         b      STR      r0,[r4,#0x20]
        0x0000374a:    4805        .H      LDR      r0,[pc,#20] ; [0x3760] = 0x1ffff830
        0x0000374c:    6260        `b      STR      r0,[r4,#0x24]
        0x0000374e:    4805        .H      LDR      r0,[pc,#20] ; [0x3764] = 0x1ffff930
        0x00003750:    62a0        .b      STR      r0,[r4,#0x28]
        0x00003752:    2000        .       MOVS     r0,#0
        0x00003754:    b003        ..      ADD      sp,sp,#0xc
        0x00003756:    bdf0        ..      POP      {r4-r7,pc}
    $d
        0x00003758:    1ffff058    X...    DCD    536866904
        0x0000375c:    1ffff730    0...    DCD    536868656
        0x00003760:    1ffff830    0...    DCD    536868912
        0x00003764:    1ffff930    0...    DCD    536869168
    $t
    i.pjpeg_decode_mcu
    pjpeg_decode_mcu
        0x00003768:    b510        ..      PUSH     {r4,lr}
        0x0000376a:    4c0c        .L      LDR      r4,[pc,#48] ; [0x379c] = 0x1ffff058
        0x0000376c:    7b20         {      LDRB     r0,[r4,#0xc]
        0x0000376e:    2800        .(      CMP      r0,#0
        0x00003770:    d10c        ..      BNE      0x378c ; pjpeg_decode_mcu + 36
        0x00003772:    8be0        ..      LDRH     r0,[r4,#0x1e]
        0x00003774:    2800        .(      CMP      r0,#0
        0x00003776:    d00a        ..      BEQ      0x378e ; pjpeg_decode_mcu + 38
        0x00003778:    f7fefb3e    ..>.    BL       decodeNextMCU ; 0x1df8
        0x0000377c:    4601        .F      MOV      r1,r0
        0x0000377e:    7b20         {      LDRB     r0,[r4,#0xc]
        0x00003780:    460a        .F      MOV      r2,r1
        0x00003782:    4302        .C      ORRS     r2,r2,r0
        0x00003784:    d005        ..      BEQ      0x3792 ; pjpeg_decode_mcu + 42
        0x00003786:    2800        .(      CMP      r0,#0
        0x00003788:    d100        ..      BNE      0x378c ; pjpeg_decode_mcu + 36
        0x0000378a:    4608        .F      MOV      r0,r1
        0x0000378c:    bd10        ..      POP      {r4,pc}
        0x0000378e:    2001        .       MOVS     r0,#1
        0x00003790:    bd10        ..      POP      {r4,pc}
        0x00003792:    8be0        ..      LDRH     r0,[r4,#0x1e]
        0x00003794:    1e40        @.      SUBS     r0,r0,#1
        0x00003796:    83e0        ..      STRH     r0,[r4,#0x1e]
        0x00003798:    2000        .       MOVS     r0,#0
        0x0000379a:    bd10        ..      POP      {r4,pc}
    $d
        0x0000379c:    1ffff058    X...    DCD    536866904
    $t
    i.pjpeg_load_from_file
    pjpeg_load_from_file
        0x000037a0:    b5ff        ..      PUSH     {r0-r7,lr}
        0x000037a2:    b0a5        ..      SUB      sp,sp,#0x94
        0x000037a4:    2100        .!      MOVS     r1,#0
        0x000037a6:    9c2e        ..      LDR      r4,[sp,#0xb8]
        0x000037a8:    910b        ..      STR      r1,[sp,#0x2c]
        0x000037aa:    460d        .F      MOV      r5,r1
        0x000037ac:    910c        ..      STR      r1,[sp,#0x30]
        0x000037ae:    9926        &.      LDR      r1,[sp,#0x98]
        0x000037b0:    2c00        .,      CMP      r4,#0
        0x000037b2:    600d        .`      STR      r5,[r1,#0]
        0x000037b4:    9927        '.      LDR      r1,[sp,#0x9c]
        0x000037b6:    600d        .`      STR      r5,[r1,#0]
        0x000037b8:    9928        (.      LDR      r1,[sp,#0xa0]
        0x000037ba:    600d        .`      STR      r5,[r1,#0]
        0x000037bc:    d000        ..      BEQ      0x37c0 ; pjpeg_load_from_file + 32
        0x000037be:    7025        %p      STRB     r5,[r4,#0]
        0x000037c0:    f7fffb50    ..P.    BL       pf_open ; 0x2e64
        0x000037c4:    2800        .(      CMP      r0,#0
        0x000037c6:    d002        ..      BEQ      0x37ce ; pjpeg_load_from_file + 46
        0x000037c8:    2026        &       MOVS     r0,#0x26
        0x000037ca:    b029        ).      ADD      sp,sp,#0xa4
        0x000037cc:    bdf0        ..      POP      {r4-r7,pc}
        0x000037ce:    48ad        .H      LDR      r0,[pc,#692] ; [0x3a84] = 0x1ffff014
        0x000037d0:    2200        ."      MOVS     r2,#0
        0x000037d2:    6005        .`      STR      r5,[r0,#0]
        0x000037d4:    982f        /.      LDR      r0,[sp,#0xbc]
        0x000037d6:    49ac        .I      LDR      r1,[pc,#688] ; [0x3a88] = 0x3a8d
        0x000037d8:    b2c3        ..      UXTB     r3,r0
        0x000037da:    4668        hF      MOV      r0,sp
        0x000037dc:    f7fffd68    ..h.    BL       pjpeg_decode_init ; 0x32b0
        0x000037e0:    2800        .(      CMP      r0,#0
        0x000037e2:    d1f2        ..      BNE      0x37ca ; pjpeg_load_from_file + 42
        0x000037e4:    2c00        .,      CMP      r4,#0
        0x000037e6:    d002        ..      BEQ      0x37ee ; pjpeg_load_from_file + 78
        0x000037e8:    4668        hF      MOV      r0,sp
        0x000037ea:    7d00        .}      LDRB     r0,[r0,#0x14]
        0x000037ec:    7020         p      STRB     r0,[r4,#0]
        0x000037ee:    982f        /.      LDR      r0,[sp,#0xbc]
        0x000037f0:    2800        .(      CMP      r0,#0
        0x000037f2:    d00f        ..      BEQ      0x3814 ; pjpeg_load_from_file + 116
        0x000037f4:    9906        ..      LDR      r1,[sp,#0x18]
        0x000037f6:    9803        ..      LDR      r0,[sp,#0xc]
        0x000037f8:    4348        HC      MULS     r0,r1,r0
        0x000037fa:    17c1        ..      ASRS     r1,r0,#31
        0x000037fc:    0f49        I.      LSRS     r1,r1,#29
        0x000037fe:    1808        ..      ADDS     r0,r1,r0
        0x00003800:    10c0        ..      ASRS     r0,r0,#3
        0x00003802:    901c        ..      STR      r0,[sp,#0x70]
        0x00003804:    9907        ..      LDR      r1,[sp,#0x1c]
        0x00003806:    9804        ..      LDR      r0,[sp,#0x10]
        0x00003808:    4348        HC      MULS     r0,r1,r0
        0x0000380a:    17c1        ..      ASRS     r1,r0,#31
        0x0000380c:    0f49        I.      LSRS     r1,r1,#29
        0x0000380e:    1808        ..      ADDS     r0,r1,r0
        0x00003810:    10c0        ..      ASRS     r0,r0,#3
        0x00003812:    e002        ..      B        0x381a ; pjpeg_load_from_file + 122
        0x00003814:    9800        ..      LDR      r0,[sp,#0]
        0x00003816:    901c        ..      STR      r0,[sp,#0x70]
        0x00003818:    9801        ..      LDR      r0,[sp,#4]
        0x0000381a:    9024        $.      STR      r0,[sp,#0x90]
        0x0000381c:    991c        ..      LDR      r1,[sp,#0x70]
        0x0000381e:    9802        ..      LDR      r0,[sp,#8]
        0x00003820:    4348        HC      MULS     r0,r1,r0
        0x00003822:    9017        ..      STR      r0,[sp,#0x5c]
        0x00003824:    f7fffa06    ....    BL       malloc ; 0x2c34
        0x00003828:    9013        ..      STR      r0,[sp,#0x4c]
        0x0000382a:    2800        .(      CMP      r0,#0
        0x0000382c:    d018        ..      BEQ      0x3860 ; pjpeg_load_from_file + 192
        0x0000382e:    9806        ..      LDR      r0,[sp,#0x18]
        0x00003830:    10c0        ..      ASRS     r0,r0,#3
        0x00003832:    9018        ..      STR      r0,[sp,#0x60]
        0x00003834:    9807        ..      LDR      r0,[sp,#0x1c]
        0x00003836:    10c0        ..      ASRS     r0,r0,#3
        0x00003838:    9016        ..      STR      r0,[sp,#0x58]
        0x0000383a:    9818        ..      LDR      r0,[sp,#0x60]
        0x0000383c:    0041        A.      LSLS     r1,r0,#1
        0x0000383e:    1840        @.      ADDS     r0,r0,r1
        0x00003840:    9917        ..      LDR      r1,[sp,#0x5c]
        0x00003842:    901f        ..      STR      r0,[sp,#0x7c]
        0x00003844:    1a08        ..      SUBS     r0,r1,r0
        0x00003846:    9022        ".      STR      r0,[sp,#0x88]
        0x00003848:    f7ffff8e    ....    BL       pjpeg_decode_mcu ; 0x3768
        0x0000384c:    0004        ..      MOVS     r4,r0
        0x0000384e:    d019        ..      BEQ      0x3884 ; pjpeg_load_from_file + 228
        0x00003850:    2c01        .,      CMP      r4,#1
        0x00003852:    d008        ..      BEQ      0x3866 ; pjpeg_load_from_file + 198
        0x00003854:    9813        ..      LDR      r0,[sp,#0x4c]
        0x00003856:    f7fefe1f    ....    BL       free ; 0x2498
        0x0000385a:    4620         F      MOV      r0,r4
        0x0000385c:    b029        ).      ADD      sp,sp,#0xa4
        0x0000385e:    bdf0        ..      POP      {r4-r7,pc}
        0x00003860:    2022        "       MOVS     r0,#0x22
        0x00003862:    b029        ).      ADD      sp,sp,#0xa4
        0x00003864:    bdf0        ..      POP      {r4-r7,pc}
        0x00003866:    9926        &.      LDR      r1,[sp,#0x98]
        0x00003868:    981c        ..      LDR      r0,[sp,#0x70]
        0x0000386a:    6008        .`      STR      r0,[r1,#0]
        0x0000386c:    9927        '.      LDR      r1,[sp,#0x9c]
        0x0000386e:    9824        $.      LDR      r0,[sp,#0x90]
        0x00003870:    6008        .`      STR      r0,[r1,#0]
        0x00003872:    9828        (.      LDR      r0,[sp,#0xa0]
        0x00003874:    9902        ..      LDR      r1,[sp,#8]
        0x00003876:    6001        .`      STR      r1,[r0,#0]
        0x00003878:    9813        ..      LDR      r0,[sp,#0x4c]
        0x0000387a:    f7fefe0d    ....    BL       free ; 0x2498
        0x0000387e:    2000        .       MOVS     r0,#0
        0x00003880:    b029        ).      ADD      sp,sp,#0xa4
        0x00003882:    bdf0        ..      POP      {r4-r7,pc}
        0x00003884:    9904        ..      LDR      r1,[sp,#0x10]
        0x00003886:    980c        ..      LDR      r0,[sp,#0x30]
        0x00003888:    4281        .B      CMP      r1,r0
        0x0000388a:    dc05        ..      BGT      0x3898 ; pjpeg_load_from_file + 248
        0x0000388c:    9813        ..      LDR      r0,[sp,#0x4c]
        0x0000388e:    f7fefe03    ....    BL       free ; 0x2498
        0x00003892:    2016        .       MOVS     r0,#0x16
        0x00003894:    b029        ).      ADD      sp,sp,#0xa4
        0x00003896:    bdf0        ..      POP      {r4-r7,pc}
        0x00003898:    982f        /.      LDR      r0,[sp,#0xbc]
        0x0000389a:    2800        .(      CMP      r0,#0
        0x0000389c:    d03b        ;.      BEQ      0x3916 ; pjpeg_load_from_file + 374
        0x0000389e:    9a18        ..      LDR      r2,[sp,#0x60]
        0x000038a0:    980b        ..      LDR      r0,[sp,#0x2c]
        0x000038a2:    9902        ..      LDR      r1,[sp,#8]
        0x000038a4:    4350        PC      MULS     r0,r2,r0
        0x000038a6:    4341        AC      MULS     r1,r0,r1
        0x000038a8:    9a16        ..      LDR      r2,[sp,#0x58]
        0x000038aa:    980c        ..      LDR      r0,[sp,#0x30]
        0x000038ac:    4350        PC      MULS     r0,r2,r0
        0x000038ae:    9a17        ..      LDR      r2,[sp,#0x5c]
        0x000038b0:    4350        PC      MULS     r0,r2,r0
        0x000038b2:    1809        ..      ADDS     r1,r1,r0
        0x000038b4:    9813        ..      LDR      r0,[sp,#0x4c]
        0x000038b6:    180e        ..      ADDS     r6,r1,r0
        0x000038b8:    4668        hF      MOV      r0,sp
        0x000038ba:    7d00        .}      LDRB     r0,[r0,#0x14]
        0x000038bc:    2800        .(      CMP      r0,#0
        0x000038be:    d026        &.      BEQ      0x390e ; pjpeg_load_from_file + 366
        0x000038c0:    9816        ..      LDR      r0,[sp,#0x58]
        0x000038c2:    2800        .(      CMP      r0,#0
        0x000038c4:    d07e        ~.      BEQ      0x39c4 ; pjpeg_load_from_file + 548
        0x000038c6:    2500        .%      MOVS     r5,#0
        0x000038c8:    2800        .(      CMP      r0,#0
        0x000038ca:    d97b        {.      BLS      0x39c4 ; pjpeg_load_from_file + 548
        0x000038cc:    9818        ..      LDR      r0,[sp,#0x60]
        0x000038ce:    01e9        ..      LSLS     r1,r5,#7
        0x000038d0:    2800        .(      CMP      r0,#0
        0x000038d2:    d015        ..      BEQ      0x3900 ; pjpeg_load_from_file + 352
        0x000038d4:    9a08        ..      LDR      r2,[sp,#0x20]
        0x000038d6:    9c0a        ..      LDR      r4,[sp,#0x28]
        0x000038d8:    1853        S.      ADDS     r3,r2,r1
        0x000038da:    9a09        ..      LDR      r2,[sp,#0x24]
        0x000038dc:    4630        0F      MOV      r0,r6
        0x000038de:    1852        R.      ADDS     r2,r2,r1
        0x000038e0:    1861        a.      ADDS     r1,r4,r1
        0x000038e2:    9c18        ..      LDR      r4,[sp,#0x60]
        0x000038e4:    781f        .x      LDRB     r7,[r3,#0]
        0x000038e6:    7007        .p      STRB     r7,[r0,#0]
        0x000038e8:    7817        .x      LDRB     r7,[r2,#0]
        0x000038ea:    7047        Gp      STRB     r7,[r0,#1]
        0x000038ec:    780f        .x      LDRB     r7,[r1,#0]
        0x000038ee:    7087        .p      STRB     r7,[r0,#2]
        0x000038f0:    1cc0        ..      ADDS     r0,r0,#3
        0x000038f2:    3140        @1      ADDS     r1,r1,#0x40
        0x000038f4:    3240        @2      ADDS     r2,r2,#0x40
        0x000038f6:    3340        @3      ADDS     r3,r3,#0x40
        0x000038f8:    1e64        d.      SUBS     r4,r4,#1
        0x000038fa:    d1f3        ..      BNE      0x38e4 ; pjpeg_load_from_file + 324
        0x000038fc:    981f        ..      LDR      r0,[sp,#0x7c]
        0x000038fe:    1986        ..      ADDS     r6,r0,r6
        0x00003900:    9822        ".      LDR      r0,[sp,#0x88]
        0x00003902:    1c6d        m.      ADDS     r5,r5,#1
        0x00003904:    1986        ..      ADDS     r6,r0,r6
        0x00003906:    9816        ..      LDR      r0,[sp,#0x58]
        0x00003908:    4285        .B      CMP      r5,r0
        0x0000390a:    d3df        ..      BCC      0x38cc ; pjpeg_load_from_file + 300
        0x0000390c:    e072        r.      B        0x39f4 ; pjpeg_load_from_file + 596
        0x0000390e:    9808        ..      LDR      r0,[sp,#0x20]
        0x00003910:    7800        .x      LDRB     r0,[r0,#0]
        0x00003912:    7030        0p      STRB     r0,[r6,#0]
        0x00003914:    e06e        n.      B        0x39f4 ; pjpeg_load_from_file + 596
        0x00003916:    9902        ..      LDR      r1,[sp,#8]
        0x00003918:    9806        ..      LDR      r0,[sp,#0x18]
        0x0000391a:    4348        HC      MULS     r0,r1,r0
        0x0000391c:    990b        ..      LDR      r1,[sp,#0x2c]
        0x0000391e:    4348        HC      MULS     r0,r1,r0
        0x00003920:    9913        ..      LDR      r1,[sp,#0x4c]
        0x00003922:    1840        @.      ADDS     r0,r0,r1
        0x00003924:    900e        ..      STR      r0,[sp,#0x38]
        0x00003926:    2000        .       MOVS     r0,#0
        0x00003928:    9012        ..      STR      r0,[sp,#0x48]
        0x0000392a:    9807        ..      LDR      r0,[sp,#0x1c]
        0x0000392c:    2800        .(      CMP      r0,#0
        0x0000392e:    dd61        a.      BLE      0x39f4 ; pjpeg_load_from_file + 596
        0x00003930:    990c        ..      LDR      r1,[sp,#0x30]
        0x00003932:    9807        ..      LDR      r0,[sp,#0x1c]
        0x00003934:    9a01        ..      LDR      r2,[sp,#4]
        0x00003936:    4348        HC      MULS     r0,r1,r0
        0x00003938:    9912        ..      LDR      r1,[sp,#0x48]
        0x0000393a:    1840        @.      ADDS     r0,r0,r1
        0x0000393c:    1a10        ..      SUBS     r0,r2,r0
        0x0000393e:    2808        .(      CMP      r0,#8
        0x00003940:    dd00        ..      BLE      0x3944 ; pjpeg_load_from_file + 420
        0x00003942:    2008        .       MOVS     r0,#8
        0x00003944:    9015        ..      STR      r0,[sp,#0x54]
        0x00003946:    2000        .       MOVS     r0,#0
        0x00003948:    900d        ..      STR      r0,[sp,#0x34]
        0x0000394a:    9806        ..      LDR      r0,[sp,#0x18]
        0x0000394c:    2800        .(      CMP      r0,#0
        0x0000394e:    dd4b        K.      BLE      0x39e8 ; pjpeg_load_from_file + 584
        0x00003950:    0108        ..      LSLS     r0,r1,#4
        0x00003952:    9023        #.      STR      r0,[sp,#0x8c]
        0x00003954:    990d        ..      LDR      r1,[sp,#0x34]
        0x00003956:    9802        ..      LDR      r0,[sp,#8]
        0x00003958:    9a00        ..      LDR      r2,[sp,#0]
        0x0000395a:    4348        HC      MULS     r0,r1,r0
        0x0000395c:    990e        ..      LDR      r1,[sp,#0x38]
        0x0000395e:    1840        @.      ADDS     r0,r0,r1
        0x00003960:    901b        ..      STR      r0,[sp,#0x6c]
        0x00003962:    980d        ..      LDR      r0,[sp,#0x34]
        0x00003964:    00c1        ..      LSLS     r1,r0,#3
        0x00003966:    9823        #.      LDR      r0,[sp,#0x8c]
        0x00003968:    1808        ..      ADDS     r0,r1,r0
        0x0000396a:    9908        ..      LDR      r1,[sp,#0x20]
        0x0000396c:    180d        ..      ADDS     r5,r1,r0
        0x0000396e:    9909        ..      LDR      r1,[sp,#0x24]
        0x00003970:    180f        ..      ADDS     r7,r1,r0
        0x00003972:    990a        ..      LDR      r1,[sp,#0x28]
        0x00003974:    180e        ..      ADDS     r6,r1,r0
        0x00003976:    990b        ..      LDR      r1,[sp,#0x2c]
        0x00003978:    9806        ..      LDR      r0,[sp,#0x18]
        0x0000397a:    4348        HC      MULS     r0,r1,r0
        0x0000397c:    990d        ..      LDR      r1,[sp,#0x34]
        0x0000397e:    1840        @.      ADDS     r0,r0,r1
        0x00003980:    1a14        ..      SUBS     r4,r2,r0
        0x00003982:    2c08        .,      CMP      r4,#8
        0x00003984:    dd00        ..      BLE      0x3988 ; pjpeg_load_from_file + 488
        0x00003986:    2408        .$      MOVS     r4,#8
        0x00003988:    4668        hF      MOV      r0,sp
        0x0000398a:    7d00        .}      LDRB     r0,[r0,#0x14]
        0x0000398c:    2800        .(      CMP      r0,#0
        0x0000398e:    d03e        >.      BEQ      0x3a0e ; pjpeg_load_from_file + 622
        0x00003990:    9907        ..      LDR      r1,[sp,#0x1c]
        0x00003992:    980c        ..      LDR      r0,[sp,#0x30]
        0x00003994:    4341        AC      MULS     r1,r0,r1
        0x00003996:    9812        ..      LDR      r0,[sp,#0x48]
        0x00003998:    1808        ..      ADDS     r0,r1,r0
        0x0000399a:    9011        ..      STR      r0,[sp,#0x44]
        0x0000399c:    990b        ..      LDR      r1,[sp,#0x2c]
        0x0000399e:    9806        ..      LDR      r0,[sp,#0x18]
        0x000039a0:    4348        HC      MULS     r0,r1,r0
        0x000039a2:    990d        ..      LDR      r1,[sp,#0x34]
        0x000039a4:    1840        @.      ADDS     r0,r0,r1
        0x000039a6:    9010        ..      STR      r0,[sp,#0x40]
        0x000039a8:    9811        ..      LDR      r0,[sp,#0x44]
        0x000039aa:    9021        !.      STR      r0,[sp,#0x84]
        0x000039ac:    9810        ..      LDR      r0,[sp,#0x40]
        0x000039ae:    9020         .      STR      r0,[sp,#0x80]
        0x000039b0:    9915        ..      LDR      r1,[sp,#0x54]
        0x000039b2:    9811        ..      LDR      r0,[sp,#0x44]
        0x000039b4:    1840        @.      ADDS     r0,r0,r1
        0x000039b6:    901b        ..      STR      r0,[sp,#0x6c]
        0x000039b8:    9910        ..      LDR      r1,[sp,#0x40]
        0x000039ba:    1e60        `.      SUBS     r0,r4,#1
        0x000039bc:    1808        ..      ADDS     r0,r1,r0
        0x000039be:    a91a        ..      ADD      r1,sp,#0x68
        0x000039c0:    901a        ..      STR      r0,[sp,#0x68]
        0x000039c2:    e000        ..      B        0x39c6 ; pjpeg_load_from_file + 550
        0x000039c4:    e016        ..      B        0x39f4 ; pjpeg_load_from_file + 596
        0x000039c6:    a820         .      ADD      r0,sp,#0x80
        0x000039c8:    f7fcffa8    ....    BL       LCD_Start_Rectangle ; 0x91c
        0x000039cc:    9815        ..      LDR      r0,[sp,#0x54]
        0x000039ce:    4632        2F      MOV      r2,r6
        0x000039d0:    4344        DC      MULS     r4,r0,r4
        0x000039d2:    10a3        ..      ASRS     r3,r4,#2
        0x000039d4:    4639        9F      MOV      r1,r7
        0x000039d6:    4628        (F      MOV      r0,r5
        0x000039d8:    f7fdfa58    ..X.    BL       LCD_Write_Rectangle_N_Quad_Pixel_Components ; 0xe8c
        0x000039dc:    980d        ..      LDR      r0,[sp,#0x34]
        0x000039de:    9906        ..      LDR      r1,[sp,#0x18]
        0x000039e0:    3008        .0      ADDS     r0,r0,#8
        0x000039e2:    900d        ..      STR      r0,[sp,#0x34]
        0x000039e4:    4281        .B      CMP      r1,r0
        0x000039e6:    dcb5        ..      BGT      0x3954 ; pjpeg_load_from_file + 436
        0x000039e8:    9812        ..      LDR      r0,[sp,#0x48]
        0x000039ea:    9907        ..      LDR      r1,[sp,#0x1c]
        0x000039ec:    3008        .0      ADDS     r0,r0,#8
        0x000039ee:    9012        ..      STR      r0,[sp,#0x48]
        0x000039f0:    4281        .B      CMP      r1,r0
        0x000039f2:    dc9d        ..      BGT      0x3930 ; pjpeg_load_from_file + 400
        0x000039f4:    980b        ..      LDR      r0,[sp,#0x2c]
        0x000039f6:    9903        ..      LDR      r1,[sp,#0xc]
        0x000039f8:    1c40        @.      ADDS     r0,r0,#1
        0x000039fa:    900b        ..      STR      r0,[sp,#0x2c]
        0x000039fc:    4281        .B      CMP      r1,r0
        0x000039fe:    d000        ..      BEQ      0x3a02 ; pjpeg_load_from_file + 610
        0x00003a00:    e722        ".      B        0x3848 ; pjpeg_load_from_file + 168
        0x00003a02:    2000        .       MOVS     r0,#0
        0x00003a04:    900b        ..      STR      r0,[sp,#0x2c]
        0x00003a06:    980c        ..      LDR      r0,[sp,#0x30]
        0x00003a08:    1c40        @.      ADDS     r0,r0,#1
        0x00003a0a:    900c        ..      STR      r0,[sp,#0x30]
        0x00003a0c:    e71c        ..      B        0x3848 ; pjpeg_load_from_file + 168
        0x00003a0e:    990c        ..      LDR      r1,[sp,#0x30]
        0x00003a10:    9807        ..      LDR      r0,[sp,#0x1c]
        0x00003a12:    4348        HC      MULS     r0,r1,r0
        0x00003a14:    9912        ..      LDR      r1,[sp,#0x48]
        0x00003a16:    1840        @.      ADDS     r0,r0,r1
        0x00003a18:    9011        ..      STR      r0,[sp,#0x44]
        0x00003a1a:    2000        .       MOVS     r0,#0
        0x00003a1c:    901a        ..      STR      r0,[sp,#0x68]
        0x00003a1e:    9815        ..      LDR      r0,[sp,#0x54]
        0x00003a20:    2800        .(      CMP      r0,#0
        0x00003a22:    dddb        ..      BLE      0x39dc ; pjpeg_load_from_file + 572
        0x00003a24:    2008        .       MOVS     r0,#8
        0x00003a26:    1b00        ..      SUBS     r0,r0,r4
        0x00003a28:    9020         .      STR      r0,[sp,#0x80]
        0x00003a2a:    990b        ..      LDR      r1,[sp,#0x2c]
        0x00003a2c:    9806        ..      LDR      r0,[sp,#0x18]
        0x00003a2e:    9e1b        ..      LDR      r6,[sp,#0x6c]
        0x00003a30:    4348        HC      MULS     r0,r1,r0
        0x00003a32:    990d        ..      LDR      r1,[sp,#0x34]
        0x00003a34:    2700        .'      MOVS     r7,#0
        0x00003a36:    1840        @.      ADDS     r0,r0,r1
        0x00003a38:    9010        ..      STR      r0,[sp,#0x40]
        0x00003a3a:    2c00        .,      CMP      r4,#0
        0x00003a3c:    dd12        ..      BLE      0x3a64 ; pjpeg_load_from_file + 708
        0x00003a3e:    7829        )x      LDRB     r1,[r5,#0]
        0x00003a40:    a818        ..      ADD      r0,sp,#0x60
        0x00003a42:    7681        .v      STRB     r1,[r0,#0x1a]
        0x00003a44:    7641        Av      STRB     r1,[r0,#0x19]
        0x00003a46:    7601        .v      STRB     r1,[r0,#0x18]
        0x00003a48:    a91e        ..      ADD      r1,sp,#0x78
        0x00003a4a:    a810        ..      ADD      r0,sp,#0x40
        0x00003a4c:    f7fcfefe    ....    BL       LCD_Plot_Pixel ; 0x84c
        0x00003a50:    9810        ..      LDR      r0,[sp,#0x40]
        0x00003a52:    1c7f        ..      ADDS     r7,r7,#1
        0x00003a54:    1c40        @.      ADDS     r0,r0,#1
        0x00003a56:    9010        ..      STR      r0,[sp,#0x40]
        0x00003a58:    7828        (x      LDRB     r0,[r5,#0]
        0x00003a5a:    7030        0p      STRB     r0,[r6,#0]
        0x00003a5c:    1c6d        m.      ADDS     r5,r5,#1
        0x00003a5e:    1c76        v.      ADDS     r6,r6,#1
        0x00003a60:    42a7        .B      CMP      r7,r4
        0x00003a62:    dbec        ..      BLT      0x3a3e ; pjpeg_load_from_file + 670
        0x00003a64:    9820         .      LDR      r0,[sp,#0x80]
        0x00003a66:    9917        ..      LDR      r1,[sp,#0x5c]
        0x00003a68:    1945        E.      ADDS     r5,r0,r5
        0x00003a6a:    981b        ..      LDR      r0,[sp,#0x6c]
        0x00003a6c:    1840        @.      ADDS     r0,r0,r1
        0x00003a6e:    901b        ..      STR      r0,[sp,#0x6c]
        0x00003a70:    9811        ..      LDR      r0,[sp,#0x44]
        0x00003a72:    1c40        @.      ADDS     r0,r0,#1
        0x00003a74:    9011        ..      STR      r0,[sp,#0x44]
        0x00003a76:    981a        ..      LDR      r0,[sp,#0x68]
        0x00003a78:    1c40        @.      ADDS     r0,r0,#1
        0x00003a7a:    901a        ..      STR      r0,[sp,#0x68]
        0x00003a7c:    9915        ..      LDR      r1,[sp,#0x54]
        0x00003a7e:    4288        .B      CMP      r0,r1
        0x00003a80:    dbd3        ..      BLT      0x3a2a ; pjpeg_load_from_file + 650
        0x00003a82:    e7ab        ..      B        0x39dc ; pjpeg_load_from_file + 572
    $d
        0x00003a84:    1ffff014    ....    DCD    536866836
        0x00003a88:    00003a8d    .:..    DCD    14989
    $t
    i.pjpeg_need_bytes_callback
    pjpeg_need_bytes_callback
        0x00003a8c:    b538        8.      PUSH     {r3-r5,lr}
        0x00003a8e:    4614        .F      MOV      r4,r2
        0x00003a90:    466a        jF      MOV      r2,sp
        0x00003a92:    f7fffa79    ..y.    BL       pf_read ; 0x2f88
        0x00003a96:    2800        .(      CMP      r0,#0
        0x00003a98:    d001        ..      BEQ      0x3a9e ; pjpeg_need_bytes_callback + 18
        0x00003a9a:    2021        !       MOVS     r0,#0x21
        0x00003a9c:    bd38        8.      POP      {r3-r5,pc}
        0x00003a9e:    4669        iF      MOV      r1,sp
        0x00003aa0:    8808        ..      LDRH     r0,[r1,#0]
        0x00003aa2:    7020         p      STRB     r0,[r4,#0]
        0x00003aa4:    4803        .H      LDR      r0,[pc,#12] ; [0x3ab4] = 0x1ffff014
        0x00003aa6:    8809        ..      LDRH     r1,[r1,#0]
        0x00003aa8:    6802        .h      LDR      r2,[r0,#0]
        0x00003aaa:    1851        Q.      ADDS     r1,r2,r1
        0x00003aac:    6001        .`      STR      r1,[r0,#0]
        0x00003aae:    2000        .       MOVS     r0,#0
        0x00003ab0:    bd38        8.      POP      {r3-r5,pc}
    $d
        0x00003ab2:    0000        ..      DCW    0
        0x00003ab4:    1ffff014    ....    DCD    536866836
    $t
    i.processMarkers
    processMarkers
        0x00003ab8:    b5f1        ..      PUSH     {r0,r4-r7,lr}
        0x00003aba:    b08c        ..      SUB      sp,sp,#0x30
        0x00003abc:    2008        .       MOVS     r0,#8
        0x00003abe:    f7fefd53    ..S.    BL       getBits1 ; 0x2568
        0x00003ac2:    b2c0        ..      UXTB     r0,r0
        0x00003ac4:    28ff        .(      CMP      r0,#0xff
        0x00003ac6:    d1f9        ..      BNE      0x3abc ; processMarkers + 4
        0x00003ac8:    2008        .       MOVS     r0,#8
        0x00003aca:    f7fefd4d    ..M.    BL       getBits1 ; 0x2568
        0x00003ace:    b2c0        ..      UXTB     r0,r0
        0x00003ad0:    28ff        .(      CMP      r0,#0xff
        0x00003ad2:    d0f9        ..      BEQ      0x3ac8 ; processMarkers + 16
        0x00003ad4:    2800        .(      CMP      r0,#0
        0x00003ad6:    d0f1        ..      BEQ      0x3abc ; processMarkers + 4
        0x00003ad8:    28ce        .(      CMP      r0,#0xce
        0x00003ada:    d032        2.      BEQ      0x3b42 ; processMarkers + 138
        0x00003adc:    dc20         .      BGT      0x3b20 ; processMarkers + 104
        0x00003ade:    28c6        .(      CMP      r0,#0xc6
        0x00003ae0:    d02f        /.      BEQ      0x3b42 ; processMarkers + 138
        0x00003ae2:    dc10        ..      BGT      0x3b06 ; processMarkers + 78
        0x00003ae4:    28c2        .(      CMP      r0,#0xc2
        0x00003ae6:    d02c        ,.      BEQ      0x3b42 ; processMarkers + 138
        0x00003ae8:    dc06        ..      BGT      0x3af8 ; processMarkers + 64
        0x00003aea:    2801        .(      CMP      r0,#1
        0x00003aec:    d076        v.      BEQ      0x3bdc ; processMarkers + 292
        0x00003aee:    28c0        .(      CMP      r0,#0xc0
        0x00003af0:    d027        '.      BEQ      0x3b42 ; processMarkers + 138
        0x00003af2:    28c1        .(      CMP      r0,#0xc1
        0x00003af4:    d173        s.      BNE      0x3bde ; processMarkers + 294
        0x00003af6:    e024        $.      B        0x3b42 ; processMarkers + 138
        0x00003af8:    28c3        .(      CMP      r0,#0xc3
        0x00003afa:    d022        ".      BEQ      0x3b42 ; processMarkers + 138
        0x00003afc:    28c4        .(      CMP      r0,#0xc4
        0x00003afe:    d025        %.      BEQ      0x3b4c ; processMarkers + 148
        0x00003b00:    28c5        .(      CMP      r0,#0xc5
        0x00003b02:    d16c        l.      BNE      0x3bde ; processMarkers + 294
        0x00003b04:    e01d        ..      B        0x3b42 ; processMarkers + 138
        0x00003b06:    4601        .F      MOV      r1,r0
        0x00003b08:    39c7        .9      SUBS     r1,r1,#0xc7
        0x00003b0a:    2907        .)      CMP      r1,#7
        0x00003b0c:    d267        g.      BCS      0x3bde ; processMarkers + 294
        0x00003b0e:    000a        ..      MOVS     r2,r1
        0x00003b10:    447a        zD      ADD      r2,r2,pc
        0x00003b12:    7912        .y      LDRB     r2,[r2,#4]
        0x00003b14:    1892        ..      ADDS     r2,r2,r2
        0x00003b16:    4497        .D      ADD      pc,pc,r2
    $d
        0x00003b18:    14146114    .a..    DCD    336879892
        0x00003b1c:    0014b214    ....    DCD    1356308
    $t
        0x00003b20:    4601        .F      MOV      r1,r0
        0x00003b22:    39cf        .9      SUBS     r1,r1,#0xcf
        0x00003b24:    290f        .)      CMP      r1,#0xf
        0x00003b26:    d25a        Z.      BCS      0x3bde ; processMarkers + 294
        0x00003b28:    000a        ..      MOVS     r2,r1
        0x00003b2a:    447a        zD      ADD      r2,r2,pc
        0x00003b2c:    7912        .y      LDRB     r2,[r2,#4]
        0x00003b2e:    1892        ..      ADDS     r2,r2,r2
        0x00003b30:    4497        .D      ADD      pc,pc,r2
    $d
        0x00003b32:    5407        .T      DCW    21511
        0x00003b34:    54545454    TTTT    DCD    1414812756
        0x00003b38:    07545454    TTT.    DCD    122967124
        0x00003b3c:    55a80707    ...U    DCD    1437075207
        0x00003b40:    00f5        ..      DCW    245
    $t
        0x00003b42:    990c        ..      LDR      r1,[sp,#0x30]
        0x00003b44:    7008        .p      STRB     r0,[r1,#0]
        0x00003b46:    2000        .       MOVS     r0,#0
        0x00003b48:    b00d        ..      ADD      sp,sp,#0x34
        0x00003b4a:    bdf0        ..      POP      {r4-r7,pc}
        0x00003b4c:    2010        .       MOVS     r0,#0x10
        0x00003b4e:    f7fefd0b    ....    BL       getBits1 ; 0x2568
        0x00003b52:    2802        .(      CMP      r0,#2
        0x00003b54:    d3b2        ..      BCC      0x3abc ; processMarkers + 4
        0x00003b56:    1e80        ..      SUBS     r0,r0,#2
        0x00003b58:    0400        ..      LSLS     r0,r0,#16
        0x00003b5a:    0c00        ..      LSRS     r0,r0,#16
        0x00003b5c:    9005        ..      STR      r0,[sp,#0x14]
        0x00003b5e:    d0ad        ..      BEQ      0x3abc ; processMarkers + 4
        0x00003b60:    2008        .       MOVS     r0,#8
        0x00003b62:    f7fefd01    ....    BL       getBits1 ; 0x2568
        0x00003b66:    b2c0        ..      UXTB     r0,r0
        0x00003b68:    0701        ..      LSLS     r1,r0,#28
        0x00003b6a:    0f09        ..      LSRS     r1,r1,#28
        0x00003b6c:    2901        .)      CMP      r1,#1
        0x00003b6e:    d8a5        ..      BHI      0x3abc ; processMarkers + 4
        0x00003b70:    0901        ..      LSRS     r1,r0,#4
        0x00003b72:    0109        ..      LSLS     r1,r1,#4
        0x00003b74:    2910        .)      CMP      r1,#0x10
        0x00003b76:    d8a1        ..      BHI      0x3abc ; processMarkers + 4
        0x00003b78:    08c2        ..      LSRS     r2,r0,#3
        0x00003b7a:    2102        .!      MOVS     r1,#2
        0x00003b7c:    07c0        ..      LSLS     r0,r0,#31
        0x00003b7e:    400a        .@      ANDS     r2,r2,r1
        0x00003b80:    0fc0        ..      LSRS     r0,r0,#31
        0x00003b82:    1810        ..      ADDS     r0,r2,r0
        0x00003b84:    900a        ..      STR      r0,[sp,#0x28]
        0x00003b86:    d02b        +.      BEQ      0x3be0 ; processMarkers + 296
        0x00003b88:    2801        .(      CMP      r0,#1
        0x00003b8a:    d02d        -.      BEQ      0x3be8 ; processMarkers + 304
        0x00003b8c:    2802        .(      CMP      r0,#2
        0x00003b8e:    d02d        -.      BEQ      0x3bec ; processMarkers + 308
        0x00003b90:    2803        .(      CMP      r0,#3
        0x00003b92:    d02d        -.      BEQ      0x3bf0 ; processMarkers + 312
        0x00003b94:    2000        .       MOVS     r0,#0
        0x00003b96:    9004        ..      STR      r0,[sp,#0x10]
        0x00003b98:    980a        ..      LDR      r0,[sp,#0x28]
        0x00003b9a:    2801        .(      CMP      r0,#1
        0x00003b9c:    d02a        *.      BEQ      0x3bf4 ; processMarkers + 316
        0x00003b9e:    2802        .(      CMP      r0,#2
        0x00003ba0:    d02a        *.      BEQ      0x3bf8 ; processMarkers + 320
        0x00003ba2:    2803        .(      CMP      r0,#3
        0x00003ba4:    d02a        *.      BEQ      0x3bfc ; processMarkers + 324
        0x00003ba6:    2600        .&      MOVS     r6,#0
        0x00003ba8:    990a        ..      LDR      r1,[sp,#0x28]
        0x00003baa:    2001        .       MOVS     r0,#1
        0x00003bac:    4088        .@      LSLS     r0,r0,r1
        0x00003bae:    497a        zI      LDR      r1,[pc,#488] ; [0x3d98] = 0x1ffff058
        0x00003bb0:    af06        ..      ADD      r7,sp,#0x18
        0x00003bb2:    780a        .x      LDRB     r2,[r1,#0]
        0x00003bb4:    4310        .C      ORRS     r0,r0,r2
        0x00003bb6:    2400        .$      MOVS     r4,#0
        0x00003bb8:    7008        .p      STRB     r0,[r1,#0]
        0x00003bba:    4625        %F      MOV      r5,r4
        0x00003bbc:    2008        .       MOVS     r0,#8
        0x00003bbe:    f7fefcd3    ....    BL       getBits1 ; 0x2568
        0x00003bc2:    b2c0        ..      UXTB     r0,r0
        0x00003bc4:    5578        xU      STRB     r0,[r7,r5]
        0x00003bc6:    1820         .      ADDS     r0,r4,r0
        0x00003bc8:    1c6d        m.      ADDS     r5,r5,#1
        0x00003bca:    b2ed        ..      UXTB     r5,r5
        0x00003bcc:    b284        ..      UXTH     r4,r0
        0x00003bce:    2d0f        .-      CMP      r5,#0xf
        0x00003bd0:    d9f4        ..      BLS      0x3bbc ; processMarkers + 260
        0x00003bd2:    980a        ..      LDR      r0,[sp,#0x28]
        0x00003bd4:    2802        .(      CMP      r0,#2
        0x00003bd6:    d213        ..      BCS      0x3c00 ; processMarkers + 328
        0x00003bd8:    200c        .       MOVS     r0,#0xc
        0x00003bda:    e012        ..      B        0x3c02 ; processMarkers + 330
        0x00003bdc:    e0c7        ..      B        0x3d6e ; processMarkers + 694
        0x00003bde:    e0c9        ..      B        0x3d74 ; processMarkers + 700
        0x00003be0:    486e        nH      LDR      r0,[pc,#440] ; [0x3d9c] = 0x1ffffb30
        0x00003be2:    4e6f        oN      LDR      r6,[pc,#444] ; [0x3da0] = 0x1ffffb80
        0x00003be4:    9004        ..      STR      r0,[sp,#0x10]
        0x00003be6:    e7df        ..      B        0x3ba8 ; processMarkers + 240
        0x00003be8:    486e        nH      LDR      r0,[pc,#440] ; [0x3da4] = 0x1ffffb90
        0x00003bea:    e7d4        ..      B        0x3b96 ; processMarkers + 222
        0x00003bec:    486e        nH      LDR      r0,[pc,#440] ; [0x3da8] = 0x1ffffbf0
        0x00003bee:    e7d2        ..      B        0x3b96 ; processMarkers + 222
        0x00003bf0:    486e        nH      LDR      r0,[pc,#440] ; [0x3dac] = 0x1ffffd40
        0x00003bf2:    e7d0        ..      B        0x3b96 ; processMarkers + 222
        0x00003bf4:    4e6e        nN      LDR      r6,[pc,#440] ; [0x3db0] = 0x1ffffbe0
        0x00003bf6:    e7d7        ..      B        0x3ba8 ; processMarkers + 240
        0x00003bf8:    4e6e        nN      LDR      r6,[pc,#440] ; [0x3db4] = 0x1ffffc40
        0x00003bfa:    e7d5        ..      B        0x3ba8 ; processMarkers + 240
        0x00003bfc:    4e6e        nN      LDR      r6,[pc,#440] ; [0x3db8] = 0x1ffffd90
        0x00003bfe:    e7d3        ..      B        0x3ba8 ; processMarkers + 240
        0x00003c00:    20ff        .       MOVS     r0,#0xff
        0x00003c02:    42a0        .B      CMP      r0,r4
        0x00003c04:    d3a6        ..      BCC      0x3b54 ; processMarkers + 156
        0x00003c06:    2500        .%      MOVS     r5,#0
        0x00003c08:    2c00        .,      CMP      r4,#0
        0x00003c0a:    d907        ..      BLS      0x3c1c ; processMarkers + 356
        0x00003c0c:    2008        .       MOVS     r0,#8
        0x00003c0e:    f7fefcab    ....    BL       getBits1 ; 0x2568
        0x00003c12:    5570        pU      STRB     r0,[r6,r5]
        0x00003c14:    1c6d        m.      ADDS     r5,r5,#1
        0x00003c16:    b2ed        ..      UXTB     r5,r5
        0x00003c18:    42a5        .B      CMP      r5,r4
        0x00003c1a:    d3f7        ..      BCC      0x3c0c ; processMarkers + 340
        0x00003c1c:    3411        .4      ADDS     r4,r4,#0x11
        0x00003c1e:    9905        ..      LDR      r1,[sp,#0x14]
        0x00003c20:    b2a0        ..      UXTH     r0,r4
        0x00003c22:    4281        .B      CMP      r1,r0
        0x00003c24:    d396        ..      BCC      0x3b54 ; processMarkers + 156
        0x00003c26:    1a08        ..      SUBS     r0,r1,r0
        0x00003c28:    b280        ..      UXTH     r0,r0
        0x00003c2a:    9005        ..      STR      r0,[sp,#0x14]
        0x00003c2c:    2000        .       MOVS     r0,#0
        0x00003c2e:    9904        ..      LDR      r1,[sp,#0x10]
        0x00003c30:    ae06        ..      ADD      r6,sp,#0x18
        0x00003c32:    4604        .F      MOV      r4,r0
        0x00003c34:    4602        .F      MOV      r2,r0
        0x00003c36:    5c33        3\      LDRB     r3,[r6,r0]
        0x00003c38:    2b00        .+      CMP      r3,#0
        0x00003c3a:    d016        ..      BEQ      0x3c6a ; processMarkers + 434
        0x00003c3c:    0045        E.      LSLS     r5,r0,#1
        0x00003c3e:    534a        JS      STRH     r2,[r1,r5]
        0x00003c40:    18d7        ..      ADDS     r7,r2,r3
        0x00003c42:    1e7a        z.      SUBS     r2,r7,#1
        0x00003c44:    186d        m.      ADDS     r5,r5,r1
        0x00003c46:    842a        *.      STRH     r2,[r5,#0x20]
        0x00003c48:    180a        ..      ADDS     r2,r1,r0
        0x00003c4a:    3240        @2      ADDS     r2,r2,#0x40
        0x00003c4c:    7014        .p      STRB     r4,[r2,#0]
        0x00003c4e:    18e2        ..      ADDS     r2,r4,r3
        0x00003c50:    b2d4        ..      UXTB     r4,r2
        0x00003c52:    b2ba        ..      UXTH     r2,r7
        0x00003c54:    0452        R.      LSLS     r2,r2,#17
        0x00003c56:    1c40        @.      ADDS     r0,r0,#1
        0x00003c58:    0c12        ..      LSRS     r2,r2,#16
        0x00003c5a:    b2c0        ..      UXTB     r0,r0
        0x00003c5c:    280f        .(      CMP      r0,#0xf
        0x00003c5e:    d9ea        ..      BLS      0x3c36 ; processMarkers + 382
        0x00003c60:    9805        ..      LDR      r0,[sp,#0x14]
        0x00003c62:    2800        .(      CMP      r0,#0
        0x00003c64:    d000        ..      BEQ      0x3c68 ; processMarkers + 432
        0x00003c66:    e77b        {.      B        0x3b60 ; processMarkers + 168
        0x00003c68:    e728        (.      B        0x3abc ; processMarkers + 4
        0x00003c6a:    2300        .#      MOVS     r3,#0
        0x00003c6c:    0045        E.      LSLS     r5,r0,#1
        0x00003c6e:    534b        KS      STRH     r3,[r1,r5]
        0x00003c70:    4f52        RO      LDR      r7,[pc,#328] ; [0x3dbc] = 0xffff
        0x00003c72:    186d        m.      ADDS     r5,r5,r1
        0x00003c74:    842f        /.      STRH     r7,[r5,#0x20]
        0x00003c76:    180d        ..      ADDS     r5,r1,r0
        0x00003c78:    3540        @5      ADDS     r5,r5,#0x40
        0x00003c7a:    702b        +p      STRB     r3,[r5,#0]
        0x00003c7c:    e7ea        ..      B        0x3c54 ; processMarkers + 412
        0x00003c7e:    2011        .       MOVS     r0,#0x11
        0x00003c80:    b00d        ..      ADD      sp,sp,#0x34
        0x00003c82:    bdf0        ..      POP      {r4-r7,pc}
        0x00003c84:    2010        .       MOVS     r0,#0x10
        0x00003c86:    f7fefc6f    ..o.    BL       getBits1 ; 0x2568
        0x00003c8a:    2802        .(      CMP      r0,#2
        0x00003c8c:    d3ec        ..      BCC      0x3c68 ; processMarkers + 432
        0x00003c8e:    1e80        ..      SUBS     r0,r0,#2
        0x00003c90:    0404        ..      LSLS     r4,r0,#16
        0x00003c92:    0c24        $.      LSRS     r4,r4,#16
        0x00003c94:    d0e8        ..      BEQ      0x3c68 ; processMarkers + 432
        0x00003c96:    2008        .       MOVS     r0,#8
        0x00003c98:    f7fefc66    ..f.    BL       getBits1 ; 0x2568
        0x00003c9c:    b2c0        ..      UXTB     r0,r0
        0x00003c9e:    0901        ..      LSRS     r1,r0,#4
        0x00003ca0:    0707        ..      LSLS     r7,r0,#28
        0x00003ca2:    0f3f        ?.      LSRS     r7,r7,#28
        0x00003ca4:    9102        ..      STR      r1,[sp,#8]
        0x00003ca6:    2f01        ./      CMP      r7,#1
        0x00003ca8:    d8de        ..      BHI      0x3c68 ; processMarkers + 432
        0x00003caa:    2f00        ./      CMP      r7,#0
        0x00003cac:    d006        ..      BEQ      0x3cbc ; processMarkers + 516
        0x00003cae:    483a        :H      LDR      r0,[pc,#232] ; [0x3d98] = 0x1ffff058
        0x00003cb0:    2102        .!      MOVS     r1,#2
        0x00003cb2:    7842        Bx      LDRB     r2,[r0,#1]
        0x00003cb4:    4311        .C      ORRS     r1,r1,r2
        0x00003cb6:    7041        Ap      STRB     r1,[r0,#1]
        0x00003cb8:    2600        .&      MOVS     r6,#0
        0x00003cba:    e013        ..      B        0x3ce4 ; processMarkers + 556
        0x00003cbc:    4836        6H      LDR      r0,[pc,#216] ; [0x3d98] = 0x1ffff058
        0x00003cbe:    2101        .!      MOVS     r1,#1
        0x00003cc0:    7842        Bx      LDRB     r2,[r0,#1]
        0x00003cc2:    2600        .&      MOVS     r6,#0
        0x00003cc4:    4311        .C      ORRS     r1,r1,r2
        0x00003cc6:    7041        Ap      STRB     r1,[r0,#1]
        0x00003cc8:    2008        .       MOVS     r0,#8
        0x00003cca:    f7fefc4d    ..M.    BL       getBits1 ; 0x2568
        0x00003cce:    4605        .F      MOV      r5,r0
        0x00003cd0:    9802        ..      LDR      r0,[sp,#8]
        0x00003cd2:    2800        .(      CMP      r0,#0
        0x00003cd4:    d018        ..      BEQ      0x3d08 ; processMarkers + 592
        0x00003cd6:    2008        .       MOVS     r0,#8
        0x00003cd8:    f7fefc46    ..F.    BL       getBits1 ; 0x2568
        0x00003cdc:    0229        ).      LSLS     r1,r5,#8
        0x00003cde:    1840        @.      ADDS     r0,r0,r1
        0x00003ce0:    b285        ..      UXTH     r5,r0
        0x00003ce2:    e011        ..      B        0x3d08 ; processMarkers + 592
        0x00003ce4:    2008        .       MOVS     r0,#8
        0x00003ce6:    f7fefc3f    ..?.    BL       getBits1 ; 0x2568
        0x00003cea:    4605        .F      MOV      r5,r0
        0x00003cec:    9802        ..      LDR      r0,[sp,#8]
        0x00003cee:    2800        .(      CMP      r0,#0
        0x00003cf0:    d005        ..      BEQ      0x3cfe ; processMarkers + 582
        0x00003cf2:    2008        .       MOVS     r0,#8
        0x00003cf4:    f7fefc38    ..8.    BL       getBits1 ; 0x2568
        0x00003cf8:    0229        ).      LSLS     r1,r5,#8
        0x00003cfa:    1840        @.      ADDS     r0,r0,r1
        0x00003cfc:    b285        ..      UXTH     r5,r0
        0x00003cfe:    2f00        ./      CMP      r7,#0
        0x00003d00:    d002        ..      BEQ      0x3d08 ; processMarkers + 592
        0x00003d02:    0071        q.      LSLS     r1,r6,#1
        0x00003d04:    482e        .H      LDR      r0,[pc,#184] ; [0x3dc0] = 0x1ffffab0
        0x00003d06:    e001        ..      B        0x3d0c ; processMarkers + 596
        0x00003d08:    482e        .H      LDR      r0,[pc,#184] ; [0x3dc4] = 0x1ffffa30
        0x00003d0a:    0071        q.      LSLS     r1,r6,#1
        0x00003d0c:    1c76        v.      ADDS     r6,r6,#1
        0x00003d0e:    b2f6        ..      UXTB     r6,r6
        0x00003d10:    5245        ER      STRH     r5,[r0,r1]
        0x00003d12:    2e40        @.      CMP      r6,#0x40
        0x00003d14:    d3e6        ..      BCC      0x3ce4 ; processMarkers + 556
        0x00003d16:    2f00        ./      CMP      r7,#0
        0x00003d18:    d002        ..      BEQ      0x3d20 ; processMarkers + 616
        0x00003d1a:    4829        )H      LDR      r0,[pc,#164] ; [0x3dc0] = 0x1ffffab0
        0x00003d1c:    e001        ..      B        0x3d22 ; processMarkers + 618
        0x00003d1e:    e01b        ..      B        0x3d58 ; processMarkers + 672
        0x00003d20:    4828        (H      LDR      r0,[pc,#160] ; [0x3dc4] = 0x1ffffa30
        0x00003d22:    4929        )I      LDR      r1,[pc,#164] ; [0x3dc8] = 0x6a05
        0x00003d24:    2240        @"      MOVS     r2,#0x40
        0x00003d26:    0255        U.      LSLS     r5,r2,#9
        0x00003d28:    2300        .#      MOVS     r3,#0
        0x00003d2a:    5ec3        .^      LDRSH    r3,[r0,r3]
        0x00003d2c:    780e        .x      LDRB     r6,[r1,#0]
        0x00003d2e:    1c49        I.      ADDS     r1,r1,#1
        0x00003d30:    435e        ^C      MULS     r6,r3,r6
        0x00003d32:    0373        s.      LSLS     r3,r6,#13
        0x00003d34:    195b        [.      ADDS     r3,r3,r5
        0x00003d36:    141b        ..      ASRS     r3,r3,#16
        0x00003d38:    8003        ..      STRH     r3,[r0,#0]
        0x00003d3a:    1c80        ..      ADDS     r0,r0,#2
        0x00003d3c:    1e52        R.      SUBS     r2,r2,#1
        0x00003d3e:    d1f3        ..      BNE      0x3d28 ; processMarkers + 624
        0x00003d40:    9902        ..      LDR      r1,[sp,#8]
        0x00003d42:    2041        A       MOVS     r0,#0x41
        0x00003d44:    2900        .)      CMP      r1,#0
        0x00003d46:    d000        ..      BEQ      0x3d4a ; processMarkers + 658
        0x00003d48:    2081        .       MOVS     r0,#0x81
        0x00003d4a:    4284        .B      CMP      r4,r0
        0x00003d4c:    d38c        ..      BCC      0x3c68 ; processMarkers + 432
        0x00003d4e:    1a20         .      SUBS     r0,r4,r0
        0x00003d50:    0404        ..      LSLS     r4,r0,#16
        0x00003d52:    0c24        $.      LSRS     r4,r4,#16
        0x00003d54:    d19f        ..      BNE      0x3c96 ; processMarkers + 478
        0x00003d56:    e6b1        ..      B        0x3abc ; processMarkers + 4
        0x00003d58:    2010        .       MOVS     r0,#0x10
        0x00003d5a:    f7fefc05    ....    BL       getBits1 ; 0x2568
        0x00003d5e:    2804        .(      CMP      r0,#4
        0x00003d60:    d1f9        ..      BNE      0x3d56 ; processMarkers + 670
        0x00003d62:    2010        .       MOVS     r0,#0x10
        0x00003d64:    f7fefc00    ....    BL       getBits1 ; 0x2568
        0x00003d68:    490b        .I      LDR      r1,[pc,#44] ; [0x3d98] = 0x1ffff058
        0x00003d6a:    8288        ..      STRH     r0,[r1,#0x14]
        0x00003d6c:    e6a6        ..      B        0x3abc ; processMarkers + 4
        0x00003d6e:    2012        .       MOVS     r0,#0x12
        0x00003d70:    b00d        ..      ADD      sp,sp,#0x34
        0x00003d72:    bdf0        ..      POP      {r4-r7,pc}
        0x00003d74:    2010        .       MOVS     r0,#0x10
        0x00003d76:    f7fefbf7    ....    BL       getBits1 ; 0x2568
        0x00003d7a:    2802        .(      CMP      r0,#2
        0x00003d7c:    d3eb        ..      BCC      0x3d56 ; processMarkers + 670
        0x00003d7e:    1e80        ..      SUBS     r0,r0,#2
        0x00003d80:    0404        ..      LSLS     r4,r0,#16
        0x00003d82:    0c24        $.      LSRS     r4,r4,#16
        0x00003d84:    d0e7        ..      BEQ      0x3d56 ; processMarkers + 670
        0x00003d86:    2008        .       MOVS     r0,#8
        0x00003d88:    f7fefbee    ....    BL       getBits1 ; 0x2568
        0x00003d8c:    1e64        d.      SUBS     r4,r4,#1
        0x00003d8e:    0424        $.      LSLS     r4,r4,#16
        0x00003d90:    0c24        $.      LSRS     r4,r4,#16
        0x00003d92:    d1f8        ..      BNE      0x3d86 ; processMarkers + 718
        0x00003d94:    e692        ..      B        0x3abc ; processMarkers + 4
    $d
        0x00003d96:    0000        ..      DCW    0
        0x00003d98:    1ffff058    X...    DCD    536866904
        0x00003d9c:    1ffffb30    0...    DCD    536869680
        0x00003da0:    1ffffb80    ....    DCD    536869760
        0x00003da4:    1ffffb90    ....    DCD    536869776
        0x00003da8:    1ffffbf0    ....    DCD    536869872
        0x00003dac:    1ffffd40    @...    DCD    536870208
        0x00003db0:    1ffffbe0    ....    DCD    536869856
        0x00003db4:    1ffffc40    @...    DCD    536869952
        0x00003db8:    1ffffd90    ....    DCD    536870288
        0x00003dbc:    0000ffff    ....    DCD    65535
        0x00003dc0:    1ffffab0    ....    DCD    536869552
        0x00003dc4:    1ffffa30    0...    DCD    536869424
        0x00003dc8:    00006a05    .j..    DCD    27141
    $t
    i.transformBlock
    transformBlock
    __tagsym$$noinline
        0x00003dcc:    b510        ..      PUSH     {r4,lr}
        0x00003dce:    4604        .F      MOV      r4,r0
        0x00003dd0:    f7fefe20    .. .    BL       idctRows ; 0x2a14
        0x00003dd4:    f7fefcf0    ....    BL       idctCols ; 0x27b8
        0x00003dd8:    4842        BH      LDR      r0,[pc,#264] ; [0x3ee4] = 0x1ffff058
        0x00003dda:    7a00        .z      LDRB     r0,[r0,#8]
        0x00003ddc:    2805        .(      CMP      r0,#5
        0x00003dde:    d210        ..      BCS      0x3e02 ; transformBlock + 54
        0x00003de0:    0001        ..      MOVS     r1,r0
        0x00003de2:    4479        yD      ADD      r1,r1,pc
        0x00003de4:    7909        .y      LDRB     r1,[r1,#4]
        0x00003de6:    1849        I.      ADDS     r1,r1,r1
        0x00003de8:    448f        .D      ADD      pc,pc,r1
    $d
        0x00003dea:    0251        Q.      DCW    593
        0x00003dec:    0046102c    ,.F.    DCD    4591660
    $t
        0x00003df0:    2c00        .,      CMP      r4,#0
        0x00003df2:    d04c        L.      BEQ      0x3e8e ; transformBlock + 194
        0x00003df4:    2c01        .,      CMP      r4,#1
        0x00003df6:    d005        ..      BEQ      0x3e04 ; transformBlock + 56
        0x00003df8:    2c02        .,      CMP      r4,#2
        0x00003dfa:    d102        ..      BNE      0x3e02 ; transformBlock + 54
        0x00003dfc:    2000        .       MOVS     r0,#0
        0x00003dfe:    f7fdff9f    ....    BL       convertCr ; 0x1d40
        0x00003e02:    bd10        ..      POP      {r4,pc}
        0x00003e04:    2000        .       MOVS     r0,#0
        0x00003e06:    f7fdff5d    ..].    BL       convertCb ; 0x1cc4
        0x00003e0a:    bd10        ..      POP      {r4,pc}
        0x00003e0c:    2c00        .,      CMP      r4,#0
        0x00003e0e:    d03e        >.      BEQ      0x3e8e ; transformBlock + 194
        0x00003e10:    2c01        .,      CMP      r4,#1
        0x00003e12:    d00c        ..      BEQ      0x3e2e ; transformBlock + 98
        0x00003e14:    2c02        .,      CMP      r4,#2
        0x00003e16:    d00c        ..      BEQ      0x3e32 ; transformBlock + 102
        0x00003e18:    2c03        .,      CMP      r4,#3
        0x00003e1a:    d1f6        ..      BNE      0x3e0a ; transformBlock + 62
        0x00003e1c:    2100        .!      MOVS     r1,#0
        0x00003e1e:    4608        .F      MOV      r0,r1
        0x00003e20:    f000fe04    ....    BL       upsampleCrV ; 0x4a2c
        0x00003e24:    2180        .!      MOVS     r1,#0x80
        0x00003e26:    2020                MOVS     r0,#0x20
        0x00003e28:    f000fe00    ....    BL       upsampleCrV ; 0x4a2c
        0x00003e2c:    bd10        ..      POP      {r4,pc}
        0x00003e2e:    2080        .       MOVS     r0,#0x80
        0x00003e30:    e032        2.      B        0x3e98 ; transformBlock + 204
        0x00003e32:    2100        .!      MOVS     r1,#0
        0x00003e34:    4608        .F      MOV      r0,r1
        0x00003e36:    f000fc81    ....    BL       upsampleCbV ; 0x473c
        0x00003e3a:    2180        .!      MOVS     r1,#0x80
        0x00003e3c:    2020                MOVS     r0,#0x20
        0x00003e3e:    f000fc7d    ..}.    BL       upsampleCbV ; 0x473c
        0x00003e42:    bd10        ..      POP      {r4,pc}
        0x00003e44:    2c00        .,      CMP      r4,#0
        0x00003e46:    d022        ".      BEQ      0x3e8e ; transformBlock + 194
        0x00003e48:    2c01        .,      CMP      r4,#1
        0x00003e4a:    d022        ".      BEQ      0x3e92 ; transformBlock + 198
        0x00003e4c:    2c02        .,      CMP      r4,#2
        0x00003e4e:    d00a        ..      BEQ      0x3e66 ; transformBlock + 154
        0x00003e50:    2c03        .,      CMP      r4,#3
        0x00003e52:    d1f6        ..      BNE      0x3e42 ; transformBlock + 118
        0x00003e54:    2100        .!      MOVS     r1,#0
        0x00003e56:    4608        .F      MOV      r0,r1
        0x00003e58:    f000fd80    ....    BL       upsampleCrH ; 0x495c
        0x00003e5c:    2140        @!      MOVS     r1,#0x40
        0x00003e5e:    2004        .       MOVS     r0,#4
        0x00003e60:    f000fd7c    ..|.    BL       upsampleCrH ; 0x495c
        0x00003e64:    bd10        ..      POP      {r4,pc}
        0x00003e66:    2100        .!      MOVS     r1,#0
        0x00003e68:    4608        .F      MOV      r0,r1
        0x00003e6a:    f000fbff    ....    BL       upsampleCbH ; 0x466c
        0x00003e6e:    2140        @!      MOVS     r1,#0x40
        0x00003e70:    2004        .       MOVS     r0,#4
        0x00003e72:    f000fbfb    ....    BL       upsampleCbH ; 0x466c
        0x00003e76:    bd10        ..      POP      {r4,pc}
        0x00003e78:    2c06        .,      CMP      r4,#6
        0x00003e7a:    d2fc        ..      BCS      0x3e76 ; transformBlock + 170
        0x00003e7c:    0020         .      MOVS     r0,r4
        0x00003e7e:    4478        xD      ADD      r0,r0,pc
        0x00003e80:    7900        .y      LDRB     r0,[r0,#4]
        0x00003e82:    1800        ..      ADDS     r0,r0,r0
        0x00003e84:    4487        .D      ADD      pc,pc,r0
    $d
        0x00003e86:    0503        ..      DCW    1283
        0x00003e88:    1c0b0702    ....    DCD    470484738
    $t
        0x00003e8c:    e7cf        ..      B        0x3e2e ; transformBlock + 98
        0x00003e8e:    2000        .       MOVS     r0,#0
        0x00003e90:    e002        ..      B        0x3e98 ; transformBlock + 204
        0x00003e92:    2040        @       MOVS     r0,#0x40
        0x00003e94:    e000        ..      B        0x3e98 ; transformBlock + 204
        0x00003e96:    20c0        .       MOVS     r0,#0xc0
        0x00003e98:    f7fdff90    ....    BL       copyY ; 0x1dbc
        0x00003e9c:    bd10        ..      POP      {r4,pc}
        0x00003e9e:    2100        .!      MOVS     r1,#0
        0x00003ea0:    4608        .F      MOV      r0,r1
        0x00003ea2:    f000fb3b    ..;.    BL       upsampleCb ; 0x451c
        0x00003ea6:    2140        @!      MOVS     r1,#0x40
        0x00003ea8:    2004        .       MOVS     r0,#4
        0x00003eaa:    f000fb37    ..7.    BL       upsampleCb ; 0x451c
        0x00003eae:    2180        .!      MOVS     r1,#0x80
        0x00003eb0:    2020                MOVS     r0,#0x20
        0x00003eb2:    f000fb33    ..3.    BL       upsampleCb ; 0x451c
        0x00003eb6:    21c0        .!      MOVS     r1,#0xc0
        0x00003eb8:    2024        $       MOVS     r0,#0x24
        0x00003eba:    f000fb2f    ../.    BL       upsampleCb ; 0x451c
        0x00003ebe:    bd10        ..      POP      {r4,pc}
        0x00003ec0:    2100        .!      MOVS     r1,#0
        0x00003ec2:    4608        .F      MOV      r0,r1
        0x00003ec4:    f000fca2    ....    BL       upsampleCr ; 0x480c
        0x00003ec8:    2140        @!      MOVS     r1,#0x40
        0x00003eca:    2004        .       MOVS     r0,#4
        0x00003ecc:    f000fc9e    ....    BL       upsampleCr ; 0x480c
        0x00003ed0:    2180        .!      MOVS     r1,#0x80
        0x00003ed2:    2020                MOVS     r0,#0x20
        0x00003ed4:    f000fc9a    ....    BL       upsampleCr ; 0x480c
        0x00003ed8:    21c0        .!      MOVS     r1,#0xc0
        0x00003eda:    2024        $       MOVS     r0,#0x24
        0x00003edc:    f000fc96    ....    BL       upsampleCr ; 0x480c
        0x00003ee0:    bd10        ..      POP      {r4,pc}
    $d
        0x00003ee2:    0000        ..      DCW    0
        0x00003ee4:    1ffff058    X...    DCD    536866904
    $t
    i.transformBlockReduce
    transformBlockReduce
    __tagsym$$noinline
        0x00003ee8:    b5f1        ..      PUSH     {r0,r4-r7,lr}
        0x00003eea:    49fd        .I      LDR      r1,[pc,#1012] ; [0x42e0] = 0x1ffff6b0
        0x00003eec:    2000        .       MOVS     r0,#0
        0x00003eee:    5e08        .^      LDRSH    r0,[r1,r0]
        0x00003ef0:    b094        ..      SUB      sp,sp,#0x50
        0x00003ef2:    3040        @0      ADDS     r0,r0,#0x40
        0x00003ef4:    09c0        ..      LSRS     r0,r0,#7
        0x00003ef6:    3080        .0      ADDS     r0,r0,#0x80
        0x00003ef8:    b200        ..      SXTH     r0,r0
        0x00003efa:    b281        ..      UXTH     r1,r0
        0x00003efc:    29ff        .)      CMP      r1,#0xff
        0x00003efe:    d907        ..      BLS      0x3f10 ; transformBlockReduce + 40
        0x00003f00:    2800        .(      CMP      r0,#0
        0x00003f02:    da01        ..      BGE      0x3f08 ; transformBlockReduce + 32
        0x00003f04:    2000        .       MOVS     r0,#0
        0x00003f06:    e004        ..      B        0x3f12 ; transformBlockReduce + 42
        0x00003f08:    28ff        .(      CMP      r0,#0xff
        0x00003f0a:    dd01        ..      BLE      0x3f10 ; transformBlockReduce + 40
        0x00003f0c:    20ff        .       MOVS     r0,#0xff
        0x00003f0e:    e000        ..      B        0x3f12 ; transformBlockReduce + 42
        0x00003f10:    b2c0        ..      UXTB     r0,r0
        0x00003f12:    49f4        .I      LDR      r1,[pc,#976] ; [0x42e4] = 0x1ffff058
        0x00003f14:    4bf6        .K      LDR      r3,[pc,#984] ; [0x42f0] = 0x1ffff930
        0x00003f16:    7a0f        .z      LDRB     r7,[r1,#8]
        0x00003f18:    49f3        .I      LDR      r1,[pc,#972] ; [0x42e8] = 0x1ffff730
        0x00003f1a:    781b        .x      LDRB     r3,[r3,#0]
        0x00003f1c:    7809        .x      LDRB     r1,[r1,#0]
        0x00003f1e:    4cf5        .L      LDR      r4,[pc,#980] ; [0x42f4] = 0x1ffff7b0
        0x00003f20:    468c        .F      MOV      r12,r1
        0x00003f22:    49f2        .I      LDR      r1,[pc,#968] ; [0x42ec] = 0x1ffff830
        0x00003f24:    780a        .x      LDRB     r2,[r1,#0]
        0x00003f26:    9405        ..      STR      r4,[sp,#0x14]
        0x00003f28:    7824        $x      LDRB     r4,[r4,#0]
        0x00003f2a:    460d        .F      MOV      r5,r1
        0x00003f2c:    3580        .5      ADDS     r5,r5,#0x80
        0x00003f2e:    9411        ..      STR      r4,[sp,#0x44]
        0x00003f30:    782c        ,x      LDRB     r4,[r5,#0]
        0x00003f32:    940a        ..      STR      r4,[sp,#0x28]
        0x00003f34:    4cf0        .L      LDR      r4,[pc,#960] ; [0x42f8] = 0x1ffff9b0
        0x00003f36:    9404        ..      STR      r4,[sp,#0x10]
        0x00003f38:    7824        $x      LDRB     r4,[r4,#0]
        0x00003f3a:    940f        ..      STR      r4,[sp,#0x3c]
        0x00003f3c:    4cef        .L      LDR      r4,[pc,#956] ; [0x42fc] = 0x1ffff770
        0x00003f3e:    9403        ..      STR      r4,[sp,#0xc]
        0x00003f40:    7824        $x      LDRB     r4,[r4,#0]
        0x00003f42:    9412        ..      STR      r4,[sp,#0x48]
        0x00003f44:    460c        .F      MOV      r4,r1
        0x00003f46:    3440        @4      ADDS     r4,r4,#0x40
        0x00003f48:    7826        &x      LDRB     r6,[r4,#0]
        0x00003f4a:    960d        ..      STR      r6,[sp,#0x34]
        0x00003f4c:    4eec        .N      LDR      r6,[pc,#944] ; [0x4300] = 0x1ffff970
        0x00003f4e:    9602        ..      STR      r6,[sp,#8]
        0x00003f50:    7836        6x      LDRB     r6,[r6,#0]
        0x00003f52:    9610        ..      STR      r6,[sp,#0x40]
        0x00003f54:    2f05        ./      CMP      r7,#5
        0x00003f56:    d26f        o.      BCS      0x4038 ; transformBlockReduce + 336
        0x00003f58:    003e        >.      MOVS     r6,r7
        0x00003f5a:    447e        ~D      ADD      r6,r6,pc
        0x00003f5c:    7936        6y      LDRB     r6,[r6,#4]
        0x00003f5e:    19b6        ..      ADDS     r6,r6,r6
        0x00003f60:    44b7        .D      ADD      pc,pc,r6
    $d
        0x00003f62:    0402        ..      DCW    1026
        0x00003f64:    00ed52f3    .R..    DCD    15553267
    $t
        0x00003f68:    49df        .I      LDR      r1,[pc,#892] ; [0x42e8] = 0x1ffff730
        0x00003f6a:    e2d0        ..      B        0x450e ; transformBlockReduce + 1574
        0x00003f6c:    9c14        ..      LDR      r4,[sp,#0x50]
        0x00003f6e:    2c00        .,      CMP      r4,#0
        0x00003f70:    d075        u.      BEQ      0x405e ; transformBlockReduce + 374
        0x00003f72:    2c01        .,      CMP      r4,#1
        0x00003f74:    d00f        ..      BEQ      0x3f96 ; transformBlockReduce + 174
        0x00003f76:    2c02        .,      CMP      r4,#2
        0x00003f78:    d15e        ^.      BNE      0x4038 ; transformBlockReduce + 336
        0x00003f7a:    2367        g#      MOVS     r3,#0x67
        0x00003f7c:    4343        CC      MULS     r3,r0,r3
        0x00003f7e:    0a1b        ..      LSRS     r3,r3,#8
        0x00003f80:    181b        ..      ADDS     r3,r3,r0
        0x00003f82:    3bb3        .;      SUBS     r3,r3,#0xb3
        0x00003f84:    4463        cD      ADD      r3,r3,r12
        0x00003f86:    4cd8        .L      LDR      r4,[pc,#864] ; [0x42e8] = 0x1ffff730
        0x00003f88:    b29d        ..      UXTH     r5,r3
        0x00003f8a:    2dff        .-      CMP      r5,#0xff
        0x00003f8c:    d928        (.      BLS      0x3fe0 ; transformBlockReduce + 248
        0x00003f8e:    2b00        .+      CMP      r3,#0
        0x00003f90:    da22        ".      BGE      0x3fd8 ; transformBlockReduce + 240
        0x00003f92:    2300        .#      MOVS     r3,#0
        0x00003f94:    e025        %.      B        0x3fe2 ; transformBlockReduce + 250
        0x00003f96:    2458        X$      MOVS     r4,#0x58
        0x00003f98:    4344        DC      MULS     r4,r0,r4
        0x00003f9a:    0a24        $.      LSRS     r4,r4,#8
        0x00003f9c:    3c2c        ,<      SUBS     r4,r4,#0x2c
        0x00003f9e:    1b12        ..      SUBS     r2,r2,r4
        0x00003fa0:    b294        ..      UXTH     r4,r2
        0x00003fa2:    2cff        .,      CMP      r4,#0xff
        0x00003fa4:    d907        ..      BLS      0x3fb6 ; transformBlockReduce + 206
        0x00003fa6:    2a00        .*      CMP      r2,#0
        0x00003fa8:    da01        ..      BGE      0x3fae ; transformBlockReduce + 198
        0x00003faa:    2200        ."      MOVS     r2,#0
        0x00003fac:    e004        ..      B        0x3fb8 ; transformBlockReduce + 208
        0x00003fae:    2aff        .*      CMP      r2,#0xff
        0x00003fb0:    dd01        ..      BLE      0x3fb6 ; transformBlockReduce + 206
        0x00003fb2:    22ff        ."      MOVS     r2,#0xff
        0x00003fb4:    e000        ..      B        0x3fb8 ; transformBlockReduce + 208
        0x00003fb6:    b2d2        ..      UXTB     r2,r2
        0x00003fb8:    700a        .p      STRB     r2,[r1,#0]
        0x00003fba:    21c6        .!      MOVS     r1,#0xc6
        0x00003fbc:    4341        AC      MULS     r1,r0,r1
        0x00003fbe:    0a09        ..      LSRS     r1,r1,#8
        0x00003fc0:    1808        ..      ADDS     r0,r1,r0
        0x00003fc2:    38e3        .8      SUBS     r0,r0,#0xe3
        0x00003fc4:    1818        ..      ADDS     r0,r3,r0
        0x00003fc6:    49ca        .I      LDR      r1,[pc,#808] ; [0x42f0] = 0x1ffff930
        0x00003fc8:    b282        ..      UXTH     r2,r0
        0x00003fca:    2aff        .*      CMP      r2,#0xff
        0x00003fcc:    d91a        ..      BLS      0x4004 ; transformBlockReduce + 284
        0x00003fce:    2800        .(      CMP      r0,#0
        0x00003fd0:    db12        ..      BLT      0x3ff8 ; transformBlockReduce + 272
        0x00003fd2:    28ff        .(      CMP      r0,#0xff
        0x00003fd4:    dc14        ..      BGT      0x4000 ; transformBlockReduce + 280
        0x00003fd6:    e015        ..      B        0x4004 ; transformBlockReduce + 284
        0x00003fd8:    2bff        .+      CMP      r3,#0xff
        0x00003fda:    dd01        ..      BLE      0x3fe0 ; transformBlockReduce + 248
        0x00003fdc:    23ff        .#      MOVS     r3,#0xff
        0x00003fde:    e000        ..      B        0x3fe2 ; transformBlockReduce + 250
        0x00003fe0:    b2db        ..      UXTB     r3,r3
        0x00003fe2:    7023        #p      STRB     r3,[r4,#0]
        0x00003fe4:    23b7        .#      MOVS     r3,#0xb7
        0x00003fe6:    4358        XC      MULS     r0,r3,r0
        0x00003fe8:    0a00        ..      LSRS     r0,r0,#8
        0x00003fea:    385b        [8      SUBS     r0,r0,#0x5b
        0x00003fec:    1a10        ..      SUBS     r0,r2,r0
        0x00003fee:    b282        ..      UXTH     r2,r0
        0x00003ff0:    2aff        .*      CMP      r2,#0xff
        0x00003ff2:    d907        ..      BLS      0x4004 ; transformBlockReduce + 284
        0x00003ff4:    2800        .(      CMP      r0,#0
        0x00003ff6:    da01        ..      BGE      0x3ffc ; transformBlockReduce + 276
        0x00003ff8:    2000        .       MOVS     r0,#0
        0x00003ffa:    e288        ..      B        0x450e ; transformBlockReduce + 1574
        0x00003ffc:    28ff        .(      CMP      r0,#0xff
        0x00003ffe:    dd01        ..      BLE      0x4004 ; transformBlockReduce + 284
        0x00004000:    20ff        .       MOVS     r0,#0xff
        0x00004002:    e284        ..      B        0x450e ; transformBlockReduce + 1574
        0x00004004:    b2c0        ..      UXTB     r0,r0
        0x00004006:    e282        ..      B        0x450e ; transformBlockReduce + 1574
        0x00004008:    9c14        ..      LDR      r4,[sp,#0x50]
        0x0000400a:    2c00        .,      CMP      r4,#0
        0x0000400c:    d027        '.      BEQ      0x405e ; transformBlockReduce + 374
        0x0000400e:    2c01        .,      CMP      r4,#1
        0x00004010:    d013        ..      BEQ      0x403a ; transformBlockReduce + 338
        0x00004012:    2c02        .,      CMP      r4,#2
        0x00004014:    d016        ..      BEQ      0x4044 ; transformBlockReduce + 348
        0x00004016:    2c03        .,      CMP      r4,#3
        0x00004018:    d10e        ..      BNE      0x4038 ; transformBlockReduce + 336
        0x0000401a:    2367        g#      MOVS     r3,#0x67
        0x0000401c:    4343        CC      MULS     r3,r0,r3
        0x0000401e:    0a1b        ..      LSRS     r3,r3,#8
        0x00004020:    181b        ..      ADDS     r3,r3,r0
        0x00004022:    4664        dF      MOV      r4,r12
        0x00004024:    3bb3        .;      SUBS     r3,r3,#0xb3
        0x00004026:    18e4        ..      ADDS     r4,r4,r3
        0x00004028:    4eaf        .N      LDR      r6,[pc,#700] ; [0x42e8] = 0x1ffff730
        0x0000402a:    b2a7        ..      UXTH     r7,r4
        0x0000402c:    2fff        ./      CMP      r7,#0xff
        0x0000402e:    d954        T.      BLS      0x40da ; transformBlockReduce + 498
        0x00004030:    2c00        .,      CMP      r4,#0
        0x00004032:    da4e        N.      BGE      0x40d2 ; transformBlockReduce + 490
        0x00004034:    2400        .$      MOVS     r4,#0
        0x00004036:    e051        Q.      B        0x40dc ; transformBlockReduce + 500
        0x00004038:    e085        ..      B        0x4146 ; transformBlockReduce + 606
        0x0000403a:    9905        ..      LDR      r1,[sp,#0x14]
        0x0000403c:    7008        .p      STRB     r0,[r1,#0]
        0x0000403e:    7028        (p      STRB     r0,[r5,#0]
        0x00004040:    9904        ..      LDR      r1,[sp,#0x10]
        0x00004042:    e264        d.      B        0x450e ; transformBlockReduce + 1574
        0x00004044:    2458        X$      MOVS     r4,#0x58
        0x00004046:    4344        DC      MULS     r4,r0,r4
        0x00004048:    0a24        $.      LSRS     r4,r4,#8
        0x0000404a:    460e        .F      MOV      r6,r1
        0x0000404c:    3c2c        ,<      SUBS     r4,r4,#0x2c
        0x0000404e:    1b11        ..      SUBS     r1,r2,r4
        0x00004050:    b28a        ..      UXTH     r2,r1
        0x00004052:    2aff        .*      CMP      r2,#0xff
        0x00004054:    d908        ..      BLS      0x4068 ; transformBlockReduce + 384
        0x00004056:    2900        .)      CMP      r1,#0
        0x00004058:    da02        ..      BGE      0x4060 ; transformBlockReduce + 376
        0x0000405a:    2100        .!      MOVS     r1,#0
        0x0000405c:    e005        ..      B        0x406a ; transformBlockReduce + 386
        0x0000405e:    e0f4        ..      B        0x424a ; transformBlockReduce + 866
        0x00004060:    29ff        .)      CMP      r1,#0xff
        0x00004062:    dd01        ..      BLE      0x4068 ; transformBlockReduce + 384
        0x00004064:    21ff        .!      MOVS     r1,#0xff
        0x00004066:    e000        ..      B        0x406a ; transformBlockReduce + 386
        0x00004068:    b2c9        ..      UXTB     r1,r1
        0x0000406a:    7031        1p      STRB     r1,[r6,#0]
        0x0000406c:    990a        ..      LDR      r1,[sp,#0x28]
        0x0000406e:    1b09        ..      SUBS     r1,r1,r4
        0x00004070:    b28a        ..      UXTH     r2,r1
        0x00004072:    2aff        .*      CMP      r2,#0xff
        0x00004074:    d907        ..      BLS      0x4086 ; transformBlockReduce + 414
        0x00004076:    2900        .)      CMP      r1,#0
        0x00004078:    da01        ..      BGE      0x407e ; transformBlockReduce + 406
        0x0000407a:    2100        .!      MOVS     r1,#0
        0x0000407c:    e004        ..      B        0x4088 ; transformBlockReduce + 416
        0x0000407e:    29ff        .)      CMP      r1,#0xff
        0x00004080:    dd01        ..      BLE      0x4086 ; transformBlockReduce + 414
        0x00004082:    21ff        .!      MOVS     r1,#0xff
        0x00004084:    e000        ..      B        0x4088 ; transformBlockReduce + 416
        0x00004086:    b2c9        ..      UXTB     r1,r1
        0x00004088:    7029        )p      STRB     r1,[r5,#0]
        0x0000408a:    21c6        .!      MOVS     r1,#0xc6
        0x0000408c:    4341        AC      MULS     r1,r0,r1
        0x0000408e:    0a09        ..      LSRS     r1,r1,#8
        0x00004090:    1808        ..      ADDS     r0,r1,r0
        0x00004092:    38e3        .8      SUBS     r0,r0,#0xe3
        0x00004094:    1819        ..      ADDS     r1,r3,r0
        0x00004096:    4a96        .J      LDR      r2,[pc,#600] ; [0x42f0] = 0x1ffff930
        0x00004098:    b28b        ..      UXTH     r3,r1
        0x0000409a:    2bff        .+      CMP      r3,#0xff
        0x0000409c:    d907        ..      BLS      0x40ae ; transformBlockReduce + 454
        0x0000409e:    2900        .)      CMP      r1,#0
        0x000040a0:    da01        ..      BGE      0x40a6 ; transformBlockReduce + 446
        0x000040a2:    2100        .!      MOVS     r1,#0
        0x000040a4:    e004        ..      B        0x40b0 ; transformBlockReduce + 456
        0x000040a6:    29ff        .)      CMP      r1,#0xff
        0x000040a8:    dd01        ..      BLE      0x40ae ; transformBlockReduce + 454
        0x000040aa:    21ff        .!      MOVS     r1,#0xff
        0x000040ac:    e000        ..      B        0x40b0 ; transformBlockReduce + 456
        0x000040ae:    b2c9        ..      UXTB     r1,r1
        0x000040b0:    7011        .p      STRB     r1,[r2,#0]
        0x000040b2:    990f        ..      LDR      r1,[sp,#0x3c]
        0x000040b4:    1808        ..      ADDS     r0,r1,r0
        0x000040b6:    b281        ..      UXTH     r1,r0
        0x000040b8:    29ff        .)      CMP      r1,#0xff
        0x000040ba:    d907        ..      BLS      0x40cc ; transformBlockReduce + 484
        0x000040bc:    2800        .(      CMP      r0,#0
        0x000040be:    da01        ..      BGE      0x40c4 ; transformBlockReduce + 476
        0x000040c0:    2000        .       MOVS     r0,#0
        0x000040c2:    e004        ..      B        0x40ce ; transformBlockReduce + 486
        0x000040c4:    28ff        .(      CMP      r0,#0xff
        0x000040c6:    dd01        ..      BLE      0x40cc ; transformBlockReduce + 484
        0x000040c8:    20ff        .       MOVS     r0,#0xff
        0x000040ca:    e000        ..      B        0x40ce ; transformBlockReduce + 486
        0x000040cc:    b2c0        ..      UXTB     r0,r0
        0x000040ce:    9904        ..      LDR      r1,[sp,#0x10]
        0x000040d0:    e21d        ..      B        0x450e ; transformBlockReduce + 1574
        0x000040d2:    2cff        .,      CMP      r4,#0xff
        0x000040d4:    dd01        ..      BLE      0x40da ; transformBlockReduce + 498
        0x000040d6:    24ff        .$      MOVS     r4,#0xff
        0x000040d8:    e000        ..      B        0x40dc ; transformBlockReduce + 500
        0x000040da:    b2e4        ..      UXTB     r4,r4
        0x000040dc:    7034        4p      STRB     r4,[r6,#0]
        0x000040de:    9c11        ..      LDR      r4,[sp,#0x44]
        0x000040e0:    18e3        ..      ADDS     r3,r4,r3
        0x000040e2:    b29c        ..      UXTH     r4,r3
        0x000040e4:    2cff        .,      CMP      r4,#0xff
        0x000040e6:    d907        ..      BLS      0x40f8 ; transformBlockReduce + 528
        0x000040e8:    2b00        .+      CMP      r3,#0
        0x000040ea:    da01        ..      BGE      0x40f0 ; transformBlockReduce + 520
        0x000040ec:    2300        .#      MOVS     r3,#0
        0x000040ee:    e004        ..      B        0x40fa ; transformBlockReduce + 530
        0x000040f0:    2bff        .+      CMP      r3,#0xff
        0x000040f2:    dd01        ..      BLE      0x40f8 ; transformBlockReduce + 528
        0x000040f4:    23ff        .#      MOVS     r3,#0xff
        0x000040f6:    e000        ..      B        0x40fa ; transformBlockReduce + 530
        0x000040f8:    b2db        ..      UXTB     r3,r3
        0x000040fa:    9c05        ..      LDR      r4,[sp,#0x14]
        0x000040fc:    7023        #p      STRB     r3,[r4,#0]
        0x000040fe:    23b7        .#      MOVS     r3,#0xb7
        0x00004100:    4358        XC      MULS     r0,r3,r0
        0x00004102:    0a00        ..      LSRS     r0,r0,#8
        0x00004104:    460b        .F      MOV      r3,r1
        0x00004106:    385b        [8      SUBS     r0,r0,#0x5b
        0x00004108:    1a11        ..      SUBS     r1,r2,r0
        0x0000410a:    b28a        ..      UXTH     r2,r1
        0x0000410c:    2aff        .*      CMP      r2,#0xff
        0x0000410e:    d907        ..      BLS      0x4120 ; transformBlockReduce + 568
        0x00004110:    2900        .)      CMP      r1,#0
        0x00004112:    da01        ..      BGE      0x4118 ; transformBlockReduce + 560
        0x00004114:    2100        .!      MOVS     r1,#0
        0x00004116:    e004        ..      B        0x4122 ; transformBlockReduce + 570
        0x00004118:    29ff        .)      CMP      r1,#0xff
        0x0000411a:    dd01        ..      BLE      0x4120 ; transformBlockReduce + 568
        0x0000411c:    21ff        .!      MOVS     r1,#0xff
        0x0000411e:    e000        ..      B        0x4122 ; transformBlockReduce + 570
        0x00004120:    b2c9        ..      UXTB     r1,r1
        0x00004122:    7019        .p      STRB     r1,[r3,#0]
        0x00004124:    990a        ..      LDR      r1,[sp,#0x28]
        0x00004126:    1a08        ..      SUBS     r0,r1,r0
        0x00004128:    b281        ..      UXTH     r1,r0
        0x0000412a:    29ff        .)      CMP      r1,#0xff
        0x0000412c:    d909        ..      BLS      0x4142 ; transformBlockReduce + 602
        0x0000412e:    2800        .(      CMP      r0,#0
        0x00004130:    da01        ..      BGE      0x4136 ; transformBlockReduce + 590
        0x00004132:    2000        .       MOVS     r0,#0
        0x00004134:    e006        ..      B        0x4144 ; transformBlockReduce + 604
        0x00004136:    28ff        .(      CMP      r0,#0xff
        0x00004138:    dd03        ..      BLE      0x4142 ; transformBlockReduce + 602
        0x0000413a:    20ff        .       MOVS     r0,#0xff
        0x0000413c:    e002        ..      B        0x4144 ; transformBlockReduce + 604
        0x0000413e:    e09d        ..      B        0x427c ; transformBlockReduce + 916
        0x00004140:    e003        ..      B        0x414a ; transformBlockReduce + 610
        0x00004142:    b2c0        ..      UXTB     r0,r0
        0x00004144:    7028        (p      STRB     r0,[r5,#0]
        0x00004146:    b015        ..      ADD      sp,sp,#0x54
        0x00004148:    bdf0        ..      POP      {r4-r7,pc}
        0x0000414a:    9d14        ..      LDR      r5,[sp,#0x50]
        0x0000414c:    2d00        .-      CMP      r5,#0
        0x0000414e:    d07c        |.      BEQ      0x424a ; transformBlockReduce + 866
        0x00004150:    2d01        .-      CMP      r5,#1
        0x00004152:    d07b        {.      BEQ      0x424c ; transformBlockReduce + 868
        0x00004154:    2d02        .-      CMP      r5,#2
        0x00004156:    d010        ..      BEQ      0x417a ; transformBlockReduce + 658
        0x00004158:    2d03        .-      CMP      r5,#3
        0x0000415a:    d1f4        ..      BNE      0x4146 ; transformBlockReduce + 606
        0x0000415c:    2367        g#      MOVS     r3,#0x67
        0x0000415e:    4343        CC      MULS     r3,r0,r3
        0x00004160:    0a1b        ..      LSRS     r3,r3,#8
        0x00004162:    181b        ..      ADDS     r3,r3,r0
        0x00004164:    4665        eF      MOV      r5,r12
        0x00004166:    3bb3        .;      SUBS     r3,r3,#0xb3
        0x00004168:    18ed        ..      ADDS     r5,r5,r3
        0x0000416a:    4e5f        _N      LDR      r6,[pc,#380] ; [0x42e8] = 0x1ffff730
        0x0000416c:    b2af        ..      UXTH     r7,r5
        0x0000416e:    2fff        ./      CMP      r7,#0xff
        0x00004170:    d94d        M.      BLS      0x420e ; transformBlockReduce + 806
        0x00004172:    2d00        .-      CMP      r5,#0
        0x00004174:    da47        G.      BGE      0x4206 ; transformBlockReduce + 798
        0x00004176:    2500        .%      MOVS     r5,#0
        0x00004178:    e04a        J.      B        0x4210 ; transformBlockReduce + 808
        0x0000417a:    2558        X%      MOVS     r5,#0x58
        0x0000417c:    4345        EC      MULS     r5,r0,r5
        0x0000417e:    0a2d        -.      LSRS     r5,r5,#8
        0x00004180:    460e        .F      MOV      r6,r1
        0x00004182:    3d2c        ,=      SUBS     r5,r5,#0x2c
        0x00004184:    1b51        Q.      SUBS     r1,r2,r5
        0x00004186:    b28a        ..      UXTH     r2,r1
        0x00004188:    2aff        .*      CMP      r2,#0xff
        0x0000418a:    d907        ..      BLS      0x419c ; transformBlockReduce + 692
        0x0000418c:    2900        .)      CMP      r1,#0
        0x0000418e:    da01        ..      BGE      0x4194 ; transformBlockReduce + 684
        0x00004190:    2100        .!      MOVS     r1,#0
        0x00004192:    e004        ..      B        0x419e ; transformBlockReduce + 694
        0x00004194:    29ff        .)      CMP      r1,#0xff
        0x00004196:    dd01        ..      BLE      0x419c ; transformBlockReduce + 692
        0x00004198:    21ff        .!      MOVS     r1,#0xff
        0x0000419a:    e000        ..      B        0x419e ; transformBlockReduce + 694
        0x0000419c:    b2c9        ..      UXTB     r1,r1
        0x0000419e:    7031        1p      STRB     r1,[r6,#0]
        0x000041a0:    990d        ..      LDR      r1,[sp,#0x34]
        0x000041a2:    1b49        I.      SUBS     r1,r1,r5
        0x000041a4:    b28a        ..      UXTH     r2,r1
        0x000041a6:    2aff        .*      CMP      r2,#0xff
        0x000041a8:    d907        ..      BLS      0x41ba ; transformBlockReduce + 722
        0x000041aa:    2900        .)      CMP      r1,#0
        0x000041ac:    da01        ..      BGE      0x41b2 ; transformBlockReduce + 714
        0x000041ae:    2100        .!      MOVS     r1,#0
        0x000041b0:    e004        ..      B        0x41bc ; transformBlockReduce + 724
        0x000041b2:    29ff        .)      CMP      r1,#0xff
        0x000041b4:    dd01        ..      BLE      0x41ba ; transformBlockReduce + 722
        0x000041b6:    21ff        .!      MOVS     r1,#0xff
        0x000041b8:    e000        ..      B        0x41bc ; transformBlockReduce + 724
        0x000041ba:    b2c9        ..      UXTB     r1,r1
        0x000041bc:    7021        !p      STRB     r1,[r4,#0]
        0x000041be:    21c6        .!      MOVS     r1,#0xc6
        0x000041c0:    4341        AC      MULS     r1,r0,r1
        0x000041c2:    0a09        ..      LSRS     r1,r1,#8
        0x000041c4:    1808        ..      ADDS     r0,r1,r0
        0x000041c6:    38e3        .8      SUBS     r0,r0,#0xe3
        0x000041c8:    1819        ..      ADDS     r1,r3,r0
        0x000041ca:    4a49        IJ      LDR      r2,[pc,#292] ; [0x42f0] = 0x1ffff930
        0x000041cc:    b28b        ..      UXTH     r3,r1
        0x000041ce:    2bff        .+      CMP      r3,#0xff
        0x000041d0:    d907        ..      BLS      0x41e2 ; transformBlockReduce + 762
        0x000041d2:    2900        .)      CMP      r1,#0
        0x000041d4:    da01        ..      BGE      0x41da ; transformBlockReduce + 754
        0x000041d6:    2100        .!      MOVS     r1,#0
        0x000041d8:    e004        ..      B        0x41e4 ; transformBlockReduce + 764
        0x000041da:    29ff        .)      CMP      r1,#0xff
        0x000041dc:    dd01        ..      BLE      0x41e2 ; transformBlockReduce + 762
        0x000041de:    21ff        .!      MOVS     r1,#0xff
        0x000041e0:    e000        ..      B        0x41e4 ; transformBlockReduce + 764
        0x000041e2:    b2c9        ..      UXTB     r1,r1
        0x000041e4:    7011        .p      STRB     r1,[r2,#0]
        0x000041e6:    9910        ..      LDR      r1,[sp,#0x40]
        0x000041e8:    1808        ..      ADDS     r0,r1,r0
        0x000041ea:    b281        ..      UXTH     r1,r0
        0x000041ec:    29ff        .)      CMP      r1,#0xff
        0x000041ee:    d907        ..      BLS      0x4200 ; transformBlockReduce + 792
        0x000041f0:    2800        .(      CMP      r0,#0
        0x000041f2:    da01        ..      BGE      0x41f8 ; transformBlockReduce + 784
        0x000041f4:    2000        .       MOVS     r0,#0
        0x000041f6:    e004        ..      B        0x4202 ; transformBlockReduce + 794
        0x000041f8:    28ff        .(      CMP      r0,#0xff
        0x000041fa:    dd01        ..      BLE      0x4200 ; transformBlockReduce + 792
        0x000041fc:    20ff        .       MOVS     r0,#0xff
        0x000041fe:    e000        ..      B        0x4202 ; transformBlockReduce + 794
        0x00004200:    b2c0        ..      UXTB     r0,r0
        0x00004202:    9902        ..      LDR      r1,[sp,#8]
        0x00004204:    e183        ..      B        0x450e ; transformBlockReduce + 1574
        0x00004206:    2dff        .-      CMP      r5,#0xff
        0x00004208:    dd01        ..      BLE      0x420e ; transformBlockReduce + 806
        0x0000420a:    25ff        .%      MOVS     r5,#0xff
        0x0000420c:    e000        ..      B        0x4210 ; transformBlockReduce + 808
        0x0000420e:    b2ed        ..      UXTB     r5,r5
        0x00004210:    7035        5p      STRB     r5,[r6,#0]
        0x00004212:    9d12        ..      LDR      r5,[sp,#0x48]
        0x00004214:    18eb        ..      ADDS     r3,r5,r3
        0x00004216:    b29d        ..      UXTH     r5,r3
        0x00004218:    2dff        .-      CMP      r5,#0xff
        0x0000421a:    d907        ..      BLS      0x422c ; transformBlockReduce + 836
        0x0000421c:    2b00        .+      CMP      r3,#0
        0x0000421e:    da01        ..      BGE      0x4224 ; transformBlockReduce + 828
        0x00004220:    2300        .#      MOVS     r3,#0
        0x00004222:    e004        ..      B        0x422e ; transformBlockReduce + 838
        0x00004224:    2bff        .+      CMP      r3,#0xff
        0x00004226:    dd01        ..      BLE      0x422c ; transformBlockReduce + 836
        0x00004228:    23ff        .#      MOVS     r3,#0xff
        0x0000422a:    e000        ..      B        0x422e ; transformBlockReduce + 838
        0x0000422c:    b2db        ..      UXTB     r3,r3
        0x0000422e:    9d03        ..      LDR      r5,[sp,#0xc]
        0x00004230:    702b        +p      STRB     r3,[r5,#0]
        0x00004232:    23b7        .#      MOVS     r3,#0xb7
        0x00004234:    4358        XC      MULS     r0,r3,r0
        0x00004236:    0a00        ..      LSRS     r0,r0,#8
        0x00004238:    385b        [8      SUBS     r0,r0,#0x5b
        0x0000423a:    1a12        ..      SUBS     r2,r2,r0
        0x0000423c:    b293        ..      UXTH     r3,r2
        0x0000423e:    2bff        .+      CMP      r3,#0xff
        0x00004240:    d909        ..      BLS      0x4256 ; transformBlockReduce + 878
        0x00004242:    2a00        .*      CMP      r2,#0
        0x00004244:    da03        ..      BGE      0x424e ; transformBlockReduce + 870
        0x00004246:    2200        ."      MOVS     r2,#0
        0x00004248:    e006        ..      B        0x4258 ; transformBlockReduce + 880
        0x0000424a:    e02b        +.      B        0x42a4 ; transformBlockReduce + 956
        0x0000424c:    e02f        /.      B        0x42ae ; transformBlockReduce + 966
        0x0000424e:    2aff        .*      CMP      r2,#0xff
        0x00004250:    dd01        ..      BLE      0x4256 ; transformBlockReduce + 878
        0x00004252:    22ff        ."      MOVS     r2,#0xff
        0x00004254:    e000        ..      B        0x4258 ; transformBlockReduce + 880
        0x00004256:    b2d2        ..      UXTB     r2,r2
        0x00004258:    700a        .p      STRB     r2,[r1,#0]
        0x0000425a:    990d        ..      LDR      r1,[sp,#0x34]
        0x0000425c:    1a08        ..      SUBS     r0,r1,r0
        0x0000425e:    b281        ..      UXTH     r1,r0
        0x00004260:    29ff        .)      CMP      r1,#0xff
        0x00004262:    d907        ..      BLS      0x4274 ; transformBlockReduce + 908
        0x00004264:    2800        .(      CMP      r0,#0
        0x00004266:    da01        ..      BGE      0x426c ; transformBlockReduce + 900
        0x00004268:    2000        .       MOVS     r0,#0
        0x0000426a:    e004        ..      B        0x4276 ; transformBlockReduce + 910
        0x0000426c:    28ff        .(      CMP      r0,#0xff
        0x0000426e:    dd01        ..      BLE      0x4274 ; transformBlockReduce + 908
        0x00004270:    20ff        .       MOVS     r0,#0xff
        0x00004272:    e000        ..      B        0x4276 ; transformBlockReduce + 910
        0x00004274:    b2c0        ..      UXTB     r0,r0
        0x00004276:    7020         p      STRB     r0,[r4,#0]
        0x00004278:    b015        ..      ADD      sp,sp,#0x54
        0x0000427a:    bdf0        ..      POP      {r4-r7,pc}
        0x0000427c:    4e21        !N      LDR      r6,[pc,#132] ; [0x4304] = 0x1ffff8f0
        0x0000427e:    9607        ..      STR      r6,[sp,#0x1c]
        0x00004280:    7836        6x      LDRB     r6,[r6,#0]
        0x00004282:    960c        ..      STR      r6,[sp,#0x30]
        0x00004284:    4e20         N      LDR      r6,[pc,#128] ; [0x4308] = 0x1ffff9f0
        0x00004286:    9f14        ..      LDR      r7,[sp,#0x50]
        0x00004288:    9606        ..      STR      r6,[sp,#0x18]
        0x0000428a:    4e20         N      LDR      r6,[pc,#128] ; [0x430c] = 0x1ffff7f0
        0x0000428c:    9608        ..      STR      r6,[sp,#0x20]
        0x0000428e:    2f06        ./      CMP      r7,#6
        0x00004290:    d2f2        ..      BCS      0x4278 ; transformBlockReduce + 912
        0x00004292:    003e        >.      MOVS     r6,r7
        0x00004294:    447e        ~D      ADD      r6,r6,pc
        0x00004296:    7936        6y      LDRB     r6,[r6,#4]
        0x00004298:    19b6        ..      ADDS     r6,r6,r6
        0x0000429a:    44b7        .D      ADD      pc,pc,r6
    $d
        0x0000429c:    0d020803    ....    DCD    218236931
        0x000042a0:    b213        ..      DCW    45587
    $t
        0x000042a2:    e6ca        ..      B        0x403a ; transformBlockReduce + 338
        0x000042a4:    4a10        .J      LDR      r2,[pc,#64] ; [0x42e8] = 0x1ffff730
        0x000042a6:    7010        .p      STRB     r0,[r2,#0]
        0x000042a8:    7008        .p      STRB     r0,[r1,#0]
        0x000042aa:    4911        .I      LDR      r1,[pc,#68] ; [0x42f0] = 0x1ffff930
        0x000042ac:    e12f        /.      B        0x450e ; transformBlockReduce + 1574
        0x000042ae:    9903        ..      LDR      r1,[sp,#0xc]
        0x000042b0:    7008        .p      STRB     r0,[r1,#0]
        0x000042b2:    7020         p      STRB     r0,[r4,#0]
        0x000042b4:    9902        ..      LDR      r1,[sp,#8]
        0x000042b6:    e12a        *.      B        0x450e ; transformBlockReduce + 1574
        0x000042b8:    9908        ..      LDR      r1,[sp,#0x20]
        0x000042ba:    7008        .p      STRB     r0,[r1,#0]
        0x000042bc:    9907        ..      LDR      r1,[sp,#0x1c]
        0x000042be:    7008        .p      STRB     r0,[r1,#0]
        0x000042c0:    9906        ..      LDR      r1,[sp,#0x18]
        0x000042c2:    e124        $.      B        0x450e ; transformBlockReduce + 1574
        0x000042c4:    2658        X&      MOVS     r6,#0x58
        0x000042c6:    4346        FC      MULS     r6,r0,r6
        0x000042c8:    0a36        6.      LSRS     r6,r6,#8
        0x000042ca:    460f        .F      MOV      r7,r1
        0x000042cc:    3e2c        ,>      SUBS     r6,r6,#0x2c
        0x000042ce:    1b91        ..      SUBS     r1,r2,r6
        0x000042d0:    b28a        ..      UXTH     r2,r1
        0x000042d2:    2aff        .*      CMP      r2,#0xff
        0x000042d4:    d920         .      BLS      0x4318 ; transformBlockReduce + 1072
        0x000042d6:    2900        .)      CMP      r1,#0
        0x000042d8:    da1a        ..      BGE      0x4310 ; transformBlockReduce + 1064
        0x000042da:    2100        .!      MOVS     r1,#0
        0x000042dc:    e01d        ..      B        0x431a ; transformBlockReduce + 1074
    $d
        0x000042de:    0000        ..      DCW    0
        0x000042e0:    1ffff6b0    ....    DCD    536868528
        0x000042e4:    1ffff058    X...    DCD    536866904
        0x000042e8:    1ffff730    0...    DCD    536868656
        0x000042ec:    1ffff830    0...    DCD    536868912
        0x000042f0:    1ffff930    0...    DCD    536869168
        0x000042f4:    1ffff7b0    ....    DCD    536868784
        0x000042f8:    1ffff9b0    ....    DCD    536869296
        0x000042fc:    1ffff770    p...    DCD    536868720
        0x00004300:    1ffff970    p...    DCD    536869232
        0x00004304:    1ffff8f0    ....    DCD    536869104
        0x00004308:    1ffff9f0    ....    DCD    536869360
        0x0000430c:    1ffff7f0    ....    DCD    536868848
    $t
        0x00004310:    29ff        .)      CMP      r1,#0xff
        0x00004312:    dd01        ..      BLE      0x4318 ; transformBlockReduce + 1072
        0x00004314:    21ff        .!      MOVS     r1,#0xff
        0x00004316:    e000        ..      B        0x431a ; transformBlockReduce + 1074
        0x00004318:    b2c9        ..      UXTB     r1,r1
        0x0000431a:    7039        9p      STRB     r1,[r7,#0]
        0x0000431c:    990d        ..      LDR      r1,[sp,#0x34]
        0x0000431e:    1b89        ..      SUBS     r1,r1,r6
        0x00004320:    b28a        ..      UXTH     r2,r1
        0x00004322:    2aff        .*      CMP      r2,#0xff
        0x00004324:    d907        ..      BLS      0x4336 ; transformBlockReduce + 1102
        0x00004326:    2900        .)      CMP      r1,#0
        0x00004328:    da01        ..      BGE      0x432e ; transformBlockReduce + 1094
        0x0000432a:    2100        .!      MOVS     r1,#0
        0x0000432c:    e004        ..      B        0x4338 ; transformBlockReduce + 1104
        0x0000432e:    29ff        .)      CMP      r1,#0xff
        0x00004330:    dd01        ..      BLE      0x4336 ; transformBlockReduce + 1102
        0x00004332:    21ff        .!      MOVS     r1,#0xff
        0x00004334:    e000        ..      B        0x4338 ; transformBlockReduce + 1104
        0x00004336:    b2c9        ..      UXTB     r1,r1
        0x00004338:    7021        !p      STRB     r1,[r4,#0]
        0x0000433a:    990a        ..      LDR      r1,[sp,#0x28]
        0x0000433c:    1b89        ..      SUBS     r1,r1,r6
        0x0000433e:    b28a        ..      UXTH     r2,r1
        0x00004340:    2aff        .*      CMP      r2,#0xff
        0x00004342:    d907        ..      BLS      0x4354 ; transformBlockReduce + 1132
        0x00004344:    2900        .)      CMP      r1,#0
        0x00004346:    da01        ..      BGE      0x434c ; transformBlockReduce + 1124
        0x00004348:    2100        .!      MOVS     r1,#0
        0x0000434a:    e004        ..      B        0x4356 ; transformBlockReduce + 1134
        0x0000434c:    29ff        .)      CMP      r1,#0xff
        0x0000434e:    dd01        ..      BLE      0x4354 ; transformBlockReduce + 1132
        0x00004350:    21ff        .!      MOVS     r1,#0xff
        0x00004352:    e000        ..      B        0x4356 ; transformBlockReduce + 1134
        0x00004354:    b2c9        ..      UXTB     r1,r1
        0x00004356:    7029        )p      STRB     r1,[r5,#0]
        0x00004358:    990c        ..      LDR      r1,[sp,#0x30]
        0x0000435a:    1b89        ..      SUBS     r1,r1,r6
        0x0000435c:    b28a        ..      UXTH     r2,r1
        0x0000435e:    2aff        .*      CMP      r2,#0xff
        0x00004360:    d907        ..      BLS      0x4372 ; transformBlockReduce + 1162
        0x00004362:    2900        .)      CMP      r1,#0
        0x00004364:    da01        ..      BGE      0x436a ; transformBlockReduce + 1154
        0x00004366:    2100        .!      MOVS     r1,#0
        0x00004368:    e004        ..      B        0x4374 ; transformBlockReduce + 1164
        0x0000436a:    29ff        .)      CMP      r1,#0xff
        0x0000436c:    dd01        ..      BLE      0x4372 ; transformBlockReduce + 1162
        0x0000436e:    21ff        .!      MOVS     r1,#0xff
        0x00004370:    e000        ..      B        0x4374 ; transformBlockReduce + 1164
        0x00004372:    b2c9        ..      UXTB     r1,r1
        0x00004374:    9a07        ..      LDR      r2,[sp,#0x1c]
        0x00004376:    7011        .p      STRB     r1,[r2,#0]
        0x00004378:    21c6        .!      MOVS     r1,#0xc6
        0x0000437a:    4341        AC      MULS     r1,r0,r1
        0x0000437c:    0a09        ..      LSRS     r1,r1,#8
        0x0000437e:    1808        ..      ADDS     r0,r1,r0
        0x00004380:    38e3        .8      SUBS     r0,r0,#0xe3
        0x00004382:    1819        ..      ADDS     r1,r3,r0
        0x00004384:    4a63        cJ      LDR      r2,[pc,#396] ; [0x4514] = 0x1ffff930
        0x00004386:    b28b        ..      UXTH     r3,r1
        0x00004388:    2bff        .+      CMP      r3,#0xff
        0x0000438a:    d907        ..      BLS      0x439c ; transformBlockReduce + 1204
        0x0000438c:    2900        .)      CMP      r1,#0
        0x0000438e:    da01        ..      BGE      0x4394 ; transformBlockReduce + 1196
        0x00004390:    2100        .!      MOVS     r1,#0
        0x00004392:    e004        ..      B        0x439e ; transformBlockReduce + 1206
        0x00004394:    29ff        .)      CMP      r1,#0xff
        0x00004396:    dd01        ..      BLE      0x439c ; transformBlockReduce + 1204
        0x00004398:    21ff        .!      MOVS     r1,#0xff
        0x0000439a:    e000        ..      B        0x439e ; transformBlockReduce + 1206
        0x0000439c:    b2c9        ..      UXTB     r1,r1
        0x0000439e:    7011        .p      STRB     r1,[r2,#0]
        0x000043a0:    9910        ..      LDR      r1,[sp,#0x40]
        0x000043a2:    1809        ..      ADDS     r1,r1,r0
        0x000043a4:    b28a        ..      UXTH     r2,r1
        0x000043a6:    2aff        .*      CMP      r2,#0xff
        0x000043a8:    d907        ..      BLS      0x43ba ; transformBlockReduce + 1234
        0x000043aa:    2900        .)      CMP      r1,#0
        0x000043ac:    da01        ..      BGE      0x43b2 ; transformBlockReduce + 1226
        0x000043ae:    2100        .!      MOVS     r1,#0
        0x000043b0:    e004        ..      B        0x43bc ; transformBlockReduce + 1236
        0x000043b2:    29ff        .)      CMP      r1,#0xff
        0x000043b4:    dd01        ..      BLE      0x43ba ; transformBlockReduce + 1234
        0x000043b6:    21ff        .!      MOVS     r1,#0xff
        0x000043b8:    e000        ..      B        0x43bc ; transformBlockReduce + 1236
        0x000043ba:    b2c9        ..      UXTB     r1,r1
        0x000043bc:    9a02        ..      LDR      r2,[sp,#8]
        0x000043be:    7011        .p      STRB     r1,[r2,#0]
        0x000043c0:    990f        ..      LDR      r1,[sp,#0x3c]
        0x000043c2:    1809        ..      ADDS     r1,r1,r0
        0x000043c4:    b28a        ..      UXTH     r2,r1
        0x000043c6:    2aff        .*      CMP      r2,#0xff
        0x000043c8:    d907        ..      BLS      0x43da ; transformBlockReduce + 1266
        0x000043ca:    2900        .)      CMP      r1,#0
        0x000043cc:    da01        ..      BGE      0x43d2 ; transformBlockReduce + 1258
        0x000043ce:    2100        .!      MOVS     r1,#0
        0x000043d0:    e004        ..      B        0x43dc ; transformBlockReduce + 1268
        0x000043d2:    29ff        .)      CMP      r1,#0xff
        0x000043d4:    dd01        ..      BLE      0x43da ; transformBlockReduce + 1266
        0x000043d6:    21ff        .!      MOVS     r1,#0xff
        0x000043d8:    e000        ..      B        0x43dc ; transformBlockReduce + 1268
        0x000043da:    b2c9        ..      UXTB     r1,r1
        0x000043dc:    9a04        ..      LDR      r2,[sp,#0x10]
        0x000043de:    7011        .p      STRB     r1,[r2,#0]
        0x000043e0:    9906        ..      LDR      r1,[sp,#0x18]
        0x000043e2:    7809        .x      LDRB     r1,[r1,#0]
        0x000043e4:    1808        ..      ADDS     r0,r1,r0
        0x000043e6:    b281        ..      UXTH     r1,r0
        0x000043e8:    29ff        .)      CMP      r1,#0xff
        0x000043ea:    d907        ..      BLS      0x43fc ; transformBlockReduce + 1300
        0x000043ec:    2800        .(      CMP      r0,#0
        0x000043ee:    da01        ..      BGE      0x43f4 ; transformBlockReduce + 1292
        0x000043f0:    2000        .       MOVS     r0,#0
        0x000043f2:    e004        ..      B        0x43fe ; transformBlockReduce + 1302
        0x000043f4:    28ff        .(      CMP      r0,#0xff
        0x000043f6:    dd01        ..      BLE      0x43fc ; transformBlockReduce + 1300
        0x000043f8:    20ff        .       MOVS     r0,#0xff
        0x000043fa:    e000        ..      B        0x43fe ; transformBlockReduce + 1302
        0x000043fc:    b2c0        ..      UXTB     r0,r0
        0x000043fe:    9906        ..      LDR      r1,[sp,#0x18]
        0x00004400:    e085        ..      B        0x450e ; transformBlockReduce + 1574
        0x00004402:    2367        g#      MOVS     r3,#0x67
        0x00004404:    4343        CC      MULS     r3,r0,r3
        0x00004406:    0a1b        ..      LSRS     r3,r3,#8
        0x00004408:    181b        ..      ADDS     r3,r3,r0
        0x0000440a:    4666        fF      MOV      r6,r12
        0x0000440c:    3bb3        .;      SUBS     r3,r3,#0xb3
        0x0000440e:    18f6        ..      ADDS     r6,r6,r3
        0x00004410:    b2b7        ..      UXTH     r7,r6
        0x00004412:    2fff        ./      CMP      r7,#0xff
        0x00004414:    d907        ..      BLS      0x4426 ; transformBlockReduce + 1342
        0x00004416:    2e00        ..      CMP      r6,#0
        0x00004418:    da01        ..      BGE      0x441e ; transformBlockReduce + 1334
        0x0000441a:    2600        .&      MOVS     r6,#0
        0x0000441c:    e004        ..      B        0x4428 ; transformBlockReduce + 1344
        0x0000441e:    2eff        ..      CMP      r6,#0xff
        0x00004420:    dd01        ..      BLE      0x4426 ; transformBlockReduce + 1342
        0x00004422:    26ff        .&      MOVS     r6,#0xff
        0x00004424:    e000        ..      B        0x4428 ; transformBlockReduce + 1344
        0x00004426:    b2f6        ..      UXTB     r6,r6
        0x00004428:    4f3b        ;O      LDR      r7,[pc,#236] ; [0x4518] = 0x1ffff730
        0x0000442a:    703e        >p      STRB     r6,[r7,#0]
        0x0000442c:    9e12        ..      LDR      r6,[sp,#0x48]
        0x0000442e:    18f6        ..      ADDS     r6,r6,r3
        0x00004430:    b2b7        ..      UXTH     r7,r6
        0x00004432:    2fff        ./      CMP      r7,#0xff
        0x00004434:    d907        ..      BLS      0x4446 ; transformBlockReduce + 1374
        0x00004436:    2e00        ..      CMP      r6,#0
        0x00004438:    da01        ..      BGE      0x443e ; transformBlockReduce + 1366
        0x0000443a:    2600        .&      MOVS     r6,#0
        0x0000443c:    e004        ..      B        0x4448 ; transformBlockReduce + 1376
        0x0000443e:    2eff        ..      CMP      r6,#0xff
        0x00004440:    dd01        ..      BLE      0x4446 ; transformBlockReduce + 1374
        0x00004442:    26ff        .&      MOVS     r6,#0xff
        0x00004444:    e000        ..      B        0x4448 ; transformBlockReduce + 1376
        0x00004446:    b2f6        ..      UXTB     r6,r6
        0x00004448:    9f03        ..      LDR      r7,[sp,#0xc]
        0x0000444a:    703e        >p      STRB     r6,[r7,#0]
        0x0000444c:    9e11        ..      LDR      r6,[sp,#0x44]
        0x0000444e:    18f6        ..      ADDS     r6,r6,r3
        0x00004450:    b2b7        ..      UXTH     r7,r6
        0x00004452:    2fff        ./      CMP      r7,#0xff
        0x00004454:    d907        ..      BLS      0x4466 ; transformBlockReduce + 1406
        0x00004456:    2e00        ..      CMP      r6,#0
        0x00004458:    da01        ..      BGE      0x445e ; transformBlockReduce + 1398
        0x0000445a:    2600        .&      MOVS     r6,#0
        0x0000445c:    e004        ..      B        0x4468 ; transformBlockReduce + 1408
        0x0000445e:    2eff        ..      CMP      r6,#0xff
        0x00004460:    dd01        ..      BLE      0x4466 ; transformBlockReduce + 1406
        0x00004462:    26ff        .&      MOVS     r6,#0xff
        0x00004464:    e000        ..      B        0x4468 ; transformBlockReduce + 1408
        0x00004466:    b2f6        ..      UXTB     r6,r6
        0x00004468:    9f05        ..      LDR      r7,[sp,#0x14]
        0x0000446a:    703e        >p      STRB     r6,[r7,#0]
        0x0000446c:    9e08        ..      LDR      r6,[sp,#0x20]
        0x0000446e:    7836        6x      LDRB     r6,[r6,#0]
        0x00004470:    18f3        ..      ADDS     r3,r6,r3
        0x00004472:    b29e        ..      UXTH     r6,r3
        0x00004474:    2eff        ..      CMP      r6,#0xff
        0x00004476:    d907        ..      BLS      0x4488 ; transformBlockReduce + 1440
        0x00004478:    2b00        .+      CMP      r3,#0
        0x0000447a:    da01        ..      BGE      0x4480 ; transformBlockReduce + 1432
        0x0000447c:    2300        .#      MOVS     r3,#0
        0x0000447e:    e004        ..      B        0x448a ; transformBlockReduce + 1442
        0x00004480:    2bff        .+      CMP      r3,#0xff
        0x00004482:    dd01        ..      BLE      0x4488 ; transformBlockReduce + 1440
        0x00004484:    23ff        .#      MOVS     r3,#0xff
        0x00004486:    e000        ..      B        0x448a ; transformBlockReduce + 1442
        0x00004488:    b2db        ..      UXTB     r3,r3
        0x0000448a:    9e08        ..      LDR      r6,[sp,#0x20]
        0x0000448c:    7033        3p      STRB     r3,[r6,#0]
        0x0000448e:    23b7        .#      MOVS     r3,#0xb7
        0x00004490:    4358        XC      MULS     r0,r3,r0
        0x00004492:    0a00        ..      LSRS     r0,r0,#8
        0x00004494:    460b        .F      MOV      r3,r1
        0x00004496:    385b        [8      SUBS     r0,r0,#0x5b
        0x00004498:    1a11        ..      SUBS     r1,r2,r0
        0x0000449a:    b28a        ..      UXTH     r2,r1
        0x0000449c:    2aff        .*      CMP      r2,#0xff
        0x0000449e:    d907        ..      BLS      0x44b0 ; transformBlockReduce + 1480
        0x000044a0:    2900        .)      CMP      r1,#0
        0x000044a2:    da01        ..      BGE      0x44a8 ; transformBlockReduce + 1472
        0x000044a4:    2100        .!      MOVS     r1,#0
        0x000044a6:    e004        ..      B        0x44b2 ; transformBlockReduce + 1482
        0x000044a8:    29ff        .)      CMP      r1,#0xff
        0x000044aa:    dd01        ..      BLE      0x44b0 ; transformBlockReduce + 1480
        0x000044ac:    21ff        .!      MOVS     r1,#0xff
        0x000044ae:    e000        ..      B        0x44b2 ; transformBlockReduce + 1482
        0x000044b0:    b2c9        ..      UXTB     r1,r1
        0x000044b2:    7019        .p      STRB     r1,[r3,#0]
        0x000044b4:    990d        ..      LDR      r1,[sp,#0x34]
        0x000044b6:    1a09        ..      SUBS     r1,r1,r0
        0x000044b8:    b28a        ..      UXTH     r2,r1
        0x000044ba:    2aff        .*      CMP      r2,#0xff
        0x000044bc:    d907        ..      BLS      0x44ce ; transformBlockReduce + 1510
        0x000044be:    2900        .)      CMP      r1,#0
        0x000044c0:    da01        ..      BGE      0x44c6 ; transformBlockReduce + 1502
        0x000044c2:    2100        .!      MOVS     r1,#0
        0x000044c4:    e004        ..      B        0x44d0 ; transformBlockReduce + 1512
        0x000044c6:    29ff        .)      CMP      r1,#0xff
        0x000044c8:    dd01        ..      BLE      0x44ce ; transformBlockReduce + 1510
        0x000044ca:    21ff        .!      MOVS     r1,#0xff
        0x000044cc:    e000        ..      B        0x44d0 ; transformBlockReduce + 1512
        0x000044ce:    b2c9        ..      UXTB     r1,r1
        0x000044d0:    7021        !p      STRB     r1,[r4,#0]
        0x000044d2:    990a        ..      LDR      r1,[sp,#0x28]
        0x000044d4:    1a09        ..      SUBS     r1,r1,r0
        0x000044d6:    b28a        ..      UXTH     r2,r1
        0x000044d8:    2aff        .*      CMP      r2,#0xff
        0x000044da:    d907        ..      BLS      0x44ec ; transformBlockReduce + 1540
        0x000044dc:    2900        .)      CMP      r1,#0
        0x000044de:    da01        ..      BGE      0x44e4 ; transformBlockReduce + 1532
        0x000044e0:    2100        .!      MOVS     r1,#0
        0x000044e2:    e004        ..      B        0x44ee ; transformBlockReduce + 1542
        0x000044e4:    29ff        .)      CMP      r1,#0xff
        0x000044e6:    dd01        ..      BLE      0x44ec ; transformBlockReduce + 1540
        0x000044e8:    21ff        .!      MOVS     r1,#0xff
        0x000044ea:    e000        ..      B        0x44ee ; transformBlockReduce + 1542
        0x000044ec:    b2c9        ..      UXTB     r1,r1
        0x000044ee:    7029        )p      STRB     r1,[r5,#0]
        0x000044f0:    990c        ..      LDR      r1,[sp,#0x30]
        0x000044f2:    1a08        ..      SUBS     r0,r1,r0
        0x000044f4:    b281        ..      UXTH     r1,r0
        0x000044f6:    29ff        .)      CMP      r1,#0xff
        0x000044f8:    d907        ..      BLS      0x450a ; transformBlockReduce + 1570
        0x000044fa:    2800        .(      CMP      r0,#0
        0x000044fc:    da01        ..      BGE      0x4502 ; transformBlockReduce + 1562
        0x000044fe:    2000        .       MOVS     r0,#0
        0x00004500:    e004        ..      B        0x450c ; transformBlockReduce + 1572
        0x00004502:    28ff        .(      CMP      r0,#0xff
        0x00004504:    dd01        ..      BLE      0x450a ; transformBlockReduce + 1570
        0x00004506:    20ff        .       MOVS     r0,#0xff
        0x00004508:    e000        ..      B        0x450c ; transformBlockReduce + 1572
        0x0000450a:    b2c0        ..      UXTB     r0,r0
        0x0000450c:    9907        ..      LDR      r1,[sp,#0x1c]
        0x0000450e:    7008        .p      STRB     r0,[r1,#0]
        0x00004510:    b015        ..      ADD      sp,sp,#0x54
        0x00004512:    bdf0        ..      POP      {r4-r7,pc}
    $d
        0x00004514:    1ffff930    0...    DCD    536869168
        0x00004518:    1ffff730    0...    DCD    536868656
    $t
    i.upsampleCb
    upsampleCb
    __tagsym$$noinline
        0x0000451c:    4a50        PJ      LDR      r2,[pc,#320] ; [0x4660] = 0x1ffff6b0
        0x0000451e:    0040        @.      LSLS     r0,r0,#1
        0x00004520:    1883        ..      ADDS     r3,r0,r2
        0x00004522:    4850        PH      LDR      r0,[pc,#320] ; [0x4664] = 0x1ffff830
        0x00004524:    b4f0        ..      PUSH     {r4-r7}
        0x00004526:    1842        B.      ADDS     r2,r0,r1
        0x00004528:    484f        OH      LDR      r0,[pc,#316] ; [0x4668] = 0x1ffff930
        0x0000452a:    1841        A.      ADDS     r1,r0,r1
        0x0000452c:    2000        .       MOVS     r0,#0
        0x0000452e:    4684        .F      MOV      r12,r0
        0x00004530:    2600        .&      MOVS     r6,#0
        0x00004532:    781c        .x      LDRB     r4,[r3,#0]
        0x00004534:    2058        X       MOVS     r0,#0x58
        0x00004536:    4360        `C      MULS     r0,r4,r0
        0x00004538:    0a00        ..      LSRS     r0,r0,#8
        0x0000453a:    7815        .x      LDRB     r5,[r2,#0]
        0x0000453c:    382c        ,8      SUBS     r0,r0,#0x2c
        0x0000453e:    1a2d        -.      SUBS     r5,r5,r0
        0x00004540:    b2af        ..      UXTH     r7,r5
        0x00004542:    1c9b        ..      ADDS     r3,r3,#2
        0x00004544:    2fff        ./      CMP      r7,#0xff
        0x00004546:    d907        ..      BLS      0x4558 ; upsampleCb + 60
        0x00004548:    2d00        .-      CMP      r5,#0
        0x0000454a:    da01        ..      BGE      0x4550 ; upsampleCb + 52
        0x0000454c:    2500        .%      MOVS     r5,#0
        0x0000454e:    e004        ..      B        0x455a ; upsampleCb + 62
        0x00004550:    2dff        .-      CMP      r5,#0xff
        0x00004552:    dd01        ..      BLE      0x4558 ; upsampleCb + 60
        0x00004554:    25ff        .%      MOVS     r5,#0xff
        0x00004556:    e000        ..      B        0x455a ; upsampleCb + 62
        0x00004558:    b2ed        ..      UXTB     r5,r5
        0x0000455a:    7015        .p      STRB     r5,[r2,#0]
        0x0000455c:    7855        Ux      LDRB     r5,[r2,#1]
        0x0000455e:    1a2d        -.      SUBS     r5,r5,r0
        0x00004560:    b2af        ..      UXTH     r7,r5
        0x00004562:    2fff        ./      CMP      r7,#0xff
        0x00004564:    d907        ..      BLS      0x4576 ; upsampleCb + 90
        0x00004566:    2d00        .-      CMP      r5,#0
        0x00004568:    da01        ..      BGE      0x456e ; upsampleCb + 82
        0x0000456a:    2500        .%      MOVS     r5,#0
        0x0000456c:    e004        ..      B        0x4578 ; upsampleCb + 92
        0x0000456e:    2dff        .-      CMP      r5,#0xff
        0x00004570:    dd01        ..      BLE      0x4576 ; upsampleCb + 90
        0x00004572:    25ff        .%      MOVS     r5,#0xff
        0x00004574:    e000        ..      B        0x4578 ; upsampleCb + 92
        0x00004576:    b2ed        ..      UXTB     r5,r5
        0x00004578:    7055        Up      STRB     r5,[r2,#1]
        0x0000457a:    7a15        .z      LDRB     r5,[r2,#8]
        0x0000457c:    1a2d        -.      SUBS     r5,r5,r0
        0x0000457e:    b2af        ..      UXTH     r7,r5
        0x00004580:    2fff        ./      CMP      r7,#0xff
        0x00004582:    d907        ..      BLS      0x4594 ; upsampleCb + 120
        0x00004584:    2d00        .-      CMP      r5,#0
        0x00004586:    da01        ..      BGE      0x458c ; upsampleCb + 112
        0x00004588:    2500        .%      MOVS     r5,#0
        0x0000458a:    e004        ..      B        0x4596 ; upsampleCb + 122
        0x0000458c:    2dff        .-      CMP      r5,#0xff
        0x0000458e:    dd01        ..      BLE      0x4594 ; upsampleCb + 120
        0x00004590:    25ff        .%      MOVS     r5,#0xff
        0x00004592:    e000        ..      B        0x4596 ; upsampleCb + 122
        0x00004594:    b2ed        ..      UXTB     r5,r5
        0x00004596:    7215        .r      STRB     r5,[r2,#8]
        0x00004598:    7a55        Uz      LDRB     r5,[r2,#9]
        0x0000459a:    1a28        (.      SUBS     r0,r5,r0
        0x0000459c:    b285        ..      UXTH     r5,r0
        0x0000459e:    2dff        .-      CMP      r5,#0xff
        0x000045a0:    d907        ..      BLS      0x45b2 ; upsampleCb + 150
        0x000045a2:    2800        .(      CMP      r0,#0
        0x000045a4:    da01        ..      BGE      0x45aa ; upsampleCb + 142
        0x000045a6:    2000        .       MOVS     r0,#0
        0x000045a8:    e004        ..      B        0x45b4 ; upsampleCb + 152
        0x000045aa:    28ff        .(      CMP      r0,#0xff
        0x000045ac:    dd01        ..      BLE      0x45b2 ; upsampleCb + 150
        0x000045ae:    20ff        .       MOVS     r0,#0xff
        0x000045b0:    e000        ..      B        0x45b4 ; upsampleCb + 152
        0x000045b2:    b2c0        ..      UXTB     r0,r0
        0x000045b4:    7250        Pr      STRB     r0,[r2,#9]
        0x000045b6:    20c6        .       MOVS     r0,#0xc6
        0x000045b8:    4360        `C      MULS     r0,r4,r0
        0x000045ba:    0a00        ..      LSRS     r0,r0,#8
        0x000045bc:    1900        ..      ADDS     r0,r0,r4
        0x000045be:    780c        .x      LDRB     r4,[r1,#0]
        0x000045c0:    38e3        .8      SUBS     r0,r0,#0xe3
        0x000045c2:    1824        $.      ADDS     r4,r4,r0
        0x000045c4:    b2a5        ..      UXTH     r5,r4
        0x000045c6:    2dff        .-      CMP      r5,#0xff
        0x000045c8:    d907        ..      BLS      0x45da ; upsampleCb + 190
        0x000045ca:    2c00        .,      CMP      r4,#0
        0x000045cc:    da01        ..      BGE      0x45d2 ; upsampleCb + 182
        0x000045ce:    2400        .$      MOVS     r4,#0
        0x000045d0:    e004        ..      B        0x45dc ; upsampleCb + 192
        0x000045d2:    2cff        .,      CMP      r4,#0xff
        0x000045d4:    dd01        ..      BLE      0x45da ; upsampleCb + 190
        0x000045d6:    24ff        .$      MOVS     r4,#0xff
        0x000045d8:    e000        ..      B        0x45dc ; upsampleCb + 192
        0x000045da:    b2e4        ..      UXTB     r4,r4
        0x000045dc:    700c        .p      STRB     r4,[r1,#0]
        0x000045de:    784c        Lx      LDRB     r4,[r1,#1]
        0x000045e0:    1824        $.      ADDS     r4,r4,r0
        0x000045e2:    b2a5        ..      UXTH     r5,r4
        0x000045e4:    2dff        .-      CMP      r5,#0xff
        0x000045e6:    d907        ..      BLS      0x45f8 ; upsampleCb + 220
        0x000045e8:    2c00        .,      CMP      r4,#0
        0x000045ea:    da01        ..      BGE      0x45f0 ; upsampleCb + 212
        0x000045ec:    2400        .$      MOVS     r4,#0
        0x000045ee:    e004        ..      B        0x45fa ; upsampleCb + 222
        0x000045f0:    2cff        .,      CMP      r4,#0xff
        0x000045f2:    dd01        ..      BLE      0x45f8 ; upsampleCb + 220
        0x000045f4:    24ff        .$      MOVS     r4,#0xff
        0x000045f6:    e000        ..      B        0x45fa ; upsampleCb + 222
        0x000045f8:    b2e4        ..      UXTB     r4,r4
        0x000045fa:    704c        Lp      STRB     r4,[r1,#1]
        0x000045fc:    7a0c        .z      LDRB     r4,[r1,#8]
        0x000045fe:    1824        $.      ADDS     r4,r4,r0
        0x00004600:    b2a5        ..      UXTH     r5,r4
        0x00004602:    2dff        .-      CMP      r5,#0xff
        0x00004604:    d907        ..      BLS      0x4616 ; upsampleCb + 250
        0x00004606:    2c00        .,      CMP      r4,#0
        0x00004608:    da01        ..      BGE      0x460e ; upsampleCb + 242
        0x0000460a:    2400        .$      MOVS     r4,#0
        0x0000460c:    e004        ..      B        0x4618 ; upsampleCb + 252
        0x0000460e:    2cff        .,      CMP      r4,#0xff
        0x00004610:    dd01        ..      BLE      0x4616 ; upsampleCb + 250
        0x00004612:    24ff        .$      MOVS     r4,#0xff
        0x00004614:    e000        ..      B        0x4618 ; upsampleCb + 252
        0x00004616:    b2e4        ..      UXTB     r4,r4
        0x00004618:    720c        .r      STRB     r4,[r1,#8]
        0x0000461a:    7a4c        Lz      LDRB     r4,[r1,#9]
        0x0000461c:    1820         .      ADDS     r0,r4,r0
        0x0000461e:    b284        ..      UXTH     r4,r0
        0x00004620:    2cff        .,      CMP      r4,#0xff
        0x00004622:    d907        ..      BLS      0x4634 ; upsampleCb + 280
        0x00004624:    2800        .(      CMP      r0,#0
        0x00004626:    da01        ..      BGE      0x462c ; upsampleCb + 272
        0x00004628:    2000        .       MOVS     r0,#0
        0x0000462a:    e004        ..      B        0x4636 ; upsampleCb + 282
        0x0000462c:    28ff        .(      CMP      r0,#0xff
        0x0000462e:    dd01        ..      BLE      0x4634 ; upsampleCb + 280
        0x00004630:    20ff        .       MOVS     r0,#0xff
        0x00004632:    e000        ..      B        0x4636 ; upsampleCb + 282
        0x00004634:    b2c0        ..      UXTB     r0,r0
        0x00004636:    7248        Hr      STRB     r0,[r1,#9]
        0x00004638:    1c76        v.      ADDS     r6,r6,#1
        0x0000463a:    b2f6        ..      UXTB     r6,r6
        0x0000463c:    1c89        ..      ADDS     r1,r1,#2
        0x0000463e:    1c92        ..      ADDS     r2,r2,#2
        0x00004640:    2e04        ..      CMP      r6,#4
        0x00004642:    d200        ..      BCS      0x4646 ; upsampleCb + 298
        0x00004644:    e775        u.      B        0x4532 ; upsampleCb + 22
        0x00004646:    4660        `F      MOV      r0,r12
        0x00004648:    1c40        @.      ADDS     r0,r0,#1
        0x0000464a:    b2c0        ..      UXTB     r0,r0
        0x0000464c:    3108        .1      ADDS     r1,r1,#8
        0x0000464e:    3208        .2      ADDS     r2,r2,#8
        0x00004650:    3308        .3      ADDS     r3,r3,#8
        0x00004652:    4684        .F      MOV      r12,r0
        0x00004654:    2804        .(      CMP      r0,#4
        0x00004656:    d200        ..      BCS      0x465a ; upsampleCb + 318
        0x00004658:    e76a        j.      B        0x4530 ; upsampleCb + 20
        0x0000465a:    bcf0        ..      POP      {r4-r7}
        0x0000465c:    4770        pG      BX       lr
    $d
        0x0000465e:    0000        ..      DCW    0
        0x00004660:    1ffff6b0    ....    DCD    536868528
        0x00004664:    1ffff830    0...    DCD    536868912
        0x00004668:    1ffff930    0...    DCD    536869168
    $t
    i.upsampleCbH
    upsampleCbH
        0x0000466c:    4a30        0J      LDR      r2,[pc,#192] ; [0x4730] = 0x1ffff6b0
        0x0000466e:    0040        @.      LSLS     r0,r0,#1
        0x00004670:    1883        ..      ADDS     r3,r0,r2
        0x00004672:    4830        0H      LDR      r0,[pc,#192] ; [0x4734] = 0x1ffff830
        0x00004674:    b4f0        ..      PUSH     {r4-r7}
        0x00004676:    1842        B.      ADDS     r2,r0,r1
        0x00004678:    482f        /H      LDR      r0,[pc,#188] ; [0x4738] = 0x1ffff930
        0x0000467a:    1841        A.      ADDS     r1,r0,r1
        0x0000467c:    2000        .       MOVS     r0,#0
        0x0000467e:    4684        .F      MOV      r12,r0
        0x00004680:    2600        .&      MOVS     r6,#0
        0x00004682:    781c        .x      LDRB     r4,[r3,#0]
        0x00004684:    2058        X       MOVS     r0,#0x58
        0x00004686:    4360        `C      MULS     r0,r4,r0
        0x00004688:    0a00        ..      LSRS     r0,r0,#8
        0x0000468a:    7815        .x      LDRB     r5,[r2,#0]
        0x0000468c:    382c        ,8      SUBS     r0,r0,#0x2c
        0x0000468e:    1a2d        -.      SUBS     r5,r5,r0
        0x00004690:    b2af        ..      UXTH     r7,r5
        0x00004692:    1c9b        ..      ADDS     r3,r3,#2
        0x00004694:    2fff        ./      CMP      r7,#0xff
        0x00004696:    d907        ..      BLS      0x46a8 ; upsampleCbH + 60
        0x00004698:    2d00        .-      CMP      r5,#0
        0x0000469a:    da01        ..      BGE      0x46a0 ; upsampleCbH + 52
        0x0000469c:    2500        .%      MOVS     r5,#0
        0x0000469e:    e004        ..      B        0x46aa ; upsampleCbH + 62
        0x000046a0:    2dff        .-      CMP      r5,#0xff
        0x000046a2:    dd01        ..      BLE      0x46a8 ; upsampleCbH + 60
        0x000046a4:    25ff        .%      MOVS     r5,#0xff
        0x000046a6:    e000        ..      B        0x46aa ; upsampleCbH + 62
        0x000046a8:    b2ed        ..      UXTB     r5,r5
        0x000046aa:    7015        .p      STRB     r5,[r2,#0]
        0x000046ac:    7855        Ux      LDRB     r5,[r2,#1]
        0x000046ae:    1a28        (.      SUBS     r0,r5,r0
        0x000046b0:    b285        ..      UXTH     r5,r0
        0x000046b2:    2dff        .-      CMP      r5,#0xff
        0x000046b4:    d907        ..      BLS      0x46c6 ; upsampleCbH + 90
        0x000046b6:    2800        .(      CMP      r0,#0
        0x000046b8:    da01        ..      BGE      0x46be ; upsampleCbH + 82
        0x000046ba:    2000        .       MOVS     r0,#0
        0x000046bc:    e004        ..      B        0x46c8 ; upsampleCbH + 92
        0x000046be:    28ff        .(      CMP      r0,#0xff
        0x000046c0:    dd01        ..      BLE      0x46c6 ; upsampleCbH + 90
        0x000046c2:    20ff        .       MOVS     r0,#0xff
        0x000046c4:    e000        ..      B        0x46c8 ; upsampleCbH + 92
        0x000046c6:    b2c0        ..      UXTB     r0,r0
        0x000046c8:    7050        Pp      STRB     r0,[r2,#1]
        0x000046ca:    20c6        .       MOVS     r0,#0xc6
        0x000046cc:    4360        `C      MULS     r0,r4,r0
        0x000046ce:    0a00        ..      LSRS     r0,r0,#8
        0x000046d0:    1900        ..      ADDS     r0,r0,r4
        0x000046d2:    780c        .x      LDRB     r4,[r1,#0]
        0x000046d4:    38e3        .8      SUBS     r0,r0,#0xe3
        0x000046d6:    1824        $.      ADDS     r4,r4,r0
        0x000046d8:    b2a5        ..      UXTH     r5,r4
        0x000046da:    2dff        .-      CMP      r5,#0xff
        0x000046dc:    d907        ..      BLS      0x46ee ; upsampleCbH + 130
        0x000046de:    2c00        .,      CMP      r4,#0
        0x000046e0:    da01        ..      BGE      0x46e6 ; upsampleCbH + 122
        0x000046e2:    2400        .$      MOVS     r4,#0
        0x000046e4:    e004        ..      B        0x46f0 ; upsampleCbH + 132
        0x000046e6:    2cff        .,      CMP      r4,#0xff
        0x000046e8:    dd01        ..      BLE      0x46ee ; upsampleCbH + 130
        0x000046ea:    24ff        .$      MOVS     r4,#0xff
        0x000046ec:    e000        ..      B        0x46f0 ; upsampleCbH + 132
        0x000046ee:    b2e4        ..      UXTB     r4,r4
        0x000046f0:    700c        .p      STRB     r4,[r1,#0]
        0x000046f2:    784c        Lx      LDRB     r4,[r1,#1]
        0x000046f4:    1820         .      ADDS     r0,r4,r0
        0x000046f6:    b284        ..      UXTH     r4,r0
        0x000046f8:    2cff        .,      CMP      r4,#0xff
        0x000046fa:    d907        ..      BLS      0x470c ; upsampleCbH + 160
        0x000046fc:    2800        .(      CMP      r0,#0
        0x000046fe:    da01        ..      BGE      0x4704 ; upsampleCbH + 152
        0x00004700:    2000        .       MOVS     r0,#0
        0x00004702:    e004        ..      B        0x470e ; upsampleCbH + 162
        0x00004704:    28ff        .(      CMP      r0,#0xff
        0x00004706:    dd01        ..      BLE      0x470c ; upsampleCbH + 160
        0x00004708:    20ff        .       MOVS     r0,#0xff
        0x0000470a:    e000        ..      B        0x470e ; upsampleCbH + 162
        0x0000470c:    b2c0        ..      UXTB     r0,r0
        0x0000470e:    7048        Hp      STRB     r0,[r1,#1]
        0x00004710:    1c76        v.      ADDS     r6,r6,#1
        0x00004712:    b2f6        ..      UXTB     r6,r6
        0x00004714:    1c89        ..      ADDS     r1,r1,#2
        0x00004716:    1c92        ..      ADDS     r2,r2,#2
        0x00004718:    2e04        ..      CMP      r6,#4
        0x0000471a:    d3b2        ..      BCC      0x4682 ; upsampleCbH + 22
        0x0000471c:    4660        `F      MOV      r0,r12
        0x0000471e:    1c40        @.      ADDS     r0,r0,#1
        0x00004720:    b2c0        ..      UXTB     r0,r0
        0x00004722:    3308        .3      ADDS     r3,r3,#8
        0x00004724:    4684        .F      MOV      r12,r0
        0x00004726:    2808        .(      CMP      r0,#8
        0x00004728:    d3aa        ..      BCC      0x4680 ; upsampleCbH + 20
        0x0000472a:    bcf0        ..      POP      {r4-r7}
        0x0000472c:    4770        pG      BX       lr
    $d
        0x0000472e:    0000        ..      DCW    0
        0x00004730:    1ffff6b0    ....    DCD    536868528
        0x00004734:    1ffff830    0...    DCD    536868912
        0x00004738:    1ffff930    0...    DCD    536869168
    $t
    i.upsampleCbV
    upsampleCbV
        0x0000473c:    b4f0        ..      PUSH     {r4-r7}
        0x0000473e:    4a30        0J      LDR      r2,[pc,#192] ; [0x4800] = 0x1ffff6b0
        0x00004740:    0040        @.      LSLS     r0,r0,#1
        0x00004742:    1886        ..      ADDS     r6,r0,r2
        0x00004744:    482f        /H      LDR      r0,[pc,#188] ; [0x4804] = 0x1ffff830
        0x00004746:    4a30        0J      LDR      r2,[pc,#192] ; [0x4808] = 0x1ffff930
        0x00004748:    1840        @.      ADDS     r0,r0,r1
        0x0000474a:    1851        Q.      ADDS     r1,r2,r1
        0x0000474c:    2200        ."      MOVS     r2,#0
        0x0000474e:    4694        .F      MOV      r12,r2
        0x00004750:    2500        .%      MOVS     r5,#0
        0x00004752:    7833        3x      LDRB     r3,[r6,#0]
        0x00004754:    2258        X"      MOVS     r2,#0x58
        0x00004756:    435a        ZC      MULS     r2,r3,r2
        0x00004758:    0a12        ..      LSRS     r2,r2,#8
        0x0000475a:    7804        .x      LDRB     r4,[r0,#0]
        0x0000475c:    3a2c        ,:      SUBS     r2,r2,#0x2c
        0x0000475e:    1aa4        ..      SUBS     r4,r4,r2
        0x00004760:    b2a7        ..      UXTH     r7,r4
        0x00004762:    1cb6        ..      ADDS     r6,r6,#2
        0x00004764:    2fff        ./      CMP      r7,#0xff
        0x00004766:    d907        ..      BLS      0x4778 ; upsampleCbV + 60
        0x00004768:    2c00        .,      CMP      r4,#0
        0x0000476a:    da01        ..      BGE      0x4770 ; upsampleCbV + 52
        0x0000476c:    2400        .$      MOVS     r4,#0
        0x0000476e:    e004        ..      B        0x477a ; upsampleCbV + 62
        0x00004770:    2cff        .,      CMP      r4,#0xff
        0x00004772:    dd01        ..      BLE      0x4778 ; upsampleCbV + 60
        0x00004774:    24ff        .$      MOVS     r4,#0xff
        0x00004776:    e000        ..      B        0x477a ; upsampleCbV + 62
        0x00004778:    b2e4        ..      UXTB     r4,r4
        0x0000477a:    7004        .p      STRB     r4,[r0,#0]
        0x0000477c:    7a04        .z      LDRB     r4,[r0,#8]
        0x0000477e:    1aa2        ..      SUBS     r2,r4,r2
        0x00004780:    b294        ..      UXTH     r4,r2
        0x00004782:    2cff        .,      CMP      r4,#0xff
        0x00004784:    d907        ..      BLS      0x4796 ; upsampleCbV + 90
        0x00004786:    2a00        .*      CMP      r2,#0
        0x00004788:    da01        ..      BGE      0x478e ; upsampleCbV + 82
        0x0000478a:    2200        ."      MOVS     r2,#0
        0x0000478c:    e004        ..      B        0x4798 ; upsampleCbV + 92
        0x0000478e:    2aff        .*      CMP      r2,#0xff
        0x00004790:    dd01        ..      BLE      0x4796 ; upsampleCbV + 90
        0x00004792:    22ff        ."      MOVS     r2,#0xff
        0x00004794:    e000        ..      B        0x4798 ; upsampleCbV + 92
        0x00004796:    b2d2        ..      UXTB     r2,r2
        0x00004798:    7202        .r      STRB     r2,[r0,#8]
        0x0000479a:    22c6        ."      MOVS     r2,#0xc6
        0x0000479c:    435a        ZC      MULS     r2,r3,r2
        0x0000479e:    0a12        ..      LSRS     r2,r2,#8
        0x000047a0:    18d2        ..      ADDS     r2,r2,r3
        0x000047a2:    780b        .x      LDRB     r3,[r1,#0]
        0x000047a4:    3ae3        .:      SUBS     r2,r2,#0xe3
        0x000047a6:    189b        ..      ADDS     r3,r3,r2
        0x000047a8:    b29c        ..      UXTH     r4,r3
        0x000047aa:    2cff        .,      CMP      r4,#0xff
        0x000047ac:    d907        ..      BLS      0x47be ; upsampleCbV + 130
        0x000047ae:    2b00        .+      CMP      r3,#0
        0x000047b0:    da01        ..      BGE      0x47b6 ; upsampleCbV + 122
        0x000047b2:    2300        .#      MOVS     r3,#0
        0x000047b4:    e004        ..      B        0x47c0 ; upsampleCbV + 132
        0x000047b6:    2bff        .+      CMP      r3,#0xff
        0x000047b8:    dd01        ..      BLE      0x47be ; upsampleCbV + 130
        0x000047ba:    23ff        .#      MOVS     r3,#0xff
        0x000047bc:    e000        ..      B        0x47c0 ; upsampleCbV + 132
        0x000047be:    b2db        ..      UXTB     r3,r3
        0x000047c0:    700b        .p      STRB     r3,[r1,#0]
        0x000047c2:    7a0b        .z      LDRB     r3,[r1,#8]
        0x000047c4:    189a        ..      ADDS     r2,r3,r2
        0x000047c6:    b293        ..      UXTH     r3,r2
        0x000047c8:    2bff        .+      CMP      r3,#0xff
        0x000047ca:    d907        ..      BLS      0x47dc ; upsampleCbV + 160
        0x000047cc:    2a00        .*      CMP      r2,#0
        0x000047ce:    da01        ..      BGE      0x47d4 ; upsampleCbV + 152
        0x000047d0:    2200        ."      MOVS     r2,#0
        0x000047d2:    e004        ..      B        0x47de ; upsampleCbV + 162
        0x000047d4:    2aff        .*      CMP      r2,#0xff
        0x000047d6:    dd01        ..      BLE      0x47dc ; upsampleCbV + 160
        0x000047d8:    22ff        ."      MOVS     r2,#0xff
        0x000047da:    e000        ..      B        0x47de ; upsampleCbV + 162
        0x000047dc:    b2d2        ..      UXTB     r2,r2
        0x000047de:    720a        .r      STRB     r2,[r1,#8]
        0x000047e0:    1c6d        m.      ADDS     r5,r5,#1
        0x000047e2:    b2ed        ..      UXTB     r5,r5
        0x000047e4:    1c40        @.      ADDS     r0,r0,#1
        0x000047e6:    1c49        I.      ADDS     r1,r1,#1
        0x000047e8:    2d08        .-      CMP      r5,#8
        0x000047ea:    d3b2        ..      BCC      0x4752 ; upsampleCbV + 22
        0x000047ec:    4662        bF      MOV      r2,r12
        0x000047ee:    1c52        R.      ADDS     r2,r2,#1
        0x000047f0:    b2d2        ..      UXTB     r2,r2
        0x000047f2:    3008        .0      ADDS     r0,r0,#8
        0x000047f4:    3108        .1      ADDS     r1,r1,#8
        0x000047f6:    4694        .F      MOV      r12,r2
        0x000047f8:    2a04        .*      CMP      r2,#4
        0x000047fa:    d3a9        ..      BCC      0x4750 ; upsampleCbV + 20
        0x000047fc:    bcf0        ..      POP      {r4-r7}
        0x000047fe:    4770        pG      BX       lr
    $d
        0x00004800:    1ffff6b0    ....    DCD    536868528
        0x00004804:    1ffff830    0...    DCD    536868912
        0x00004808:    1ffff930    0...    DCD    536869168
    $t
    i.upsampleCr
    upsampleCr
    __tagsym$$noinline
        0x0000480c:    4a50        PJ      LDR      r2,[pc,#320] ; [0x4950] = 0x1ffff6b0
        0x0000480e:    0040        @.      LSLS     r0,r0,#1
        0x00004810:    1883        ..      ADDS     r3,r0,r2
        0x00004812:    4850        PH      LDR      r0,[pc,#320] ; [0x4954] = 0x1ffff730
        0x00004814:    b4f0        ..      PUSH     {r4-r7}
        0x00004816:    1842        B.      ADDS     r2,r0,r1
        0x00004818:    484f        OH      LDR      r0,[pc,#316] ; [0x4958] = 0x1ffff830
        0x0000481a:    1841        A.      ADDS     r1,r0,r1
        0x0000481c:    2000        .       MOVS     r0,#0
        0x0000481e:    4684        .F      MOV      r12,r0
        0x00004820:    2600        .&      MOVS     r6,#0
        0x00004822:    781c        .x      LDRB     r4,[r3,#0]
        0x00004824:    2067        g       MOVS     r0,#0x67
        0x00004826:    4360        `C      MULS     r0,r4,r0
        0x00004828:    0a00        ..      LSRS     r0,r0,#8
        0x0000482a:    1900        ..      ADDS     r0,r0,r4
        0x0000482c:    7815        .x      LDRB     r5,[r2,#0]
        0x0000482e:    38b3        .8      SUBS     r0,r0,#0xb3
        0x00004830:    182d        -.      ADDS     r5,r5,r0
        0x00004832:    b2af        ..      UXTH     r7,r5
        0x00004834:    1c9b        ..      ADDS     r3,r3,#2
        0x00004836:    2fff        ./      CMP      r7,#0xff
        0x00004838:    d907        ..      BLS      0x484a ; upsampleCr + 62
        0x0000483a:    2d00        .-      CMP      r5,#0
        0x0000483c:    da01        ..      BGE      0x4842 ; upsampleCr + 54
        0x0000483e:    2500        .%      MOVS     r5,#0
        0x00004840:    e004        ..      B        0x484c ; upsampleCr + 64
        0x00004842:    2dff        .-      CMP      r5,#0xff
        0x00004844:    dd01        ..      BLE      0x484a ; upsampleCr + 62
        0x00004846:    25ff        .%      MOVS     r5,#0xff
        0x00004848:    e000        ..      B        0x484c ; upsampleCr + 64
        0x0000484a:    b2ed        ..      UXTB     r5,r5
        0x0000484c:    7015        .p      STRB     r5,[r2,#0]
        0x0000484e:    7855        Ux      LDRB     r5,[r2,#1]
        0x00004850:    182d        -.      ADDS     r5,r5,r0
        0x00004852:    b2af        ..      UXTH     r7,r5
        0x00004854:    2fff        ./      CMP      r7,#0xff
        0x00004856:    d907        ..      BLS      0x4868 ; upsampleCr + 92
        0x00004858:    2d00        .-      CMP      r5,#0
        0x0000485a:    da01        ..      BGE      0x4860 ; upsampleCr + 84
        0x0000485c:    2500        .%      MOVS     r5,#0
        0x0000485e:    e004        ..      B        0x486a ; upsampleCr + 94
        0x00004860:    2dff        .-      CMP      r5,#0xff
        0x00004862:    dd01        ..      BLE      0x4868 ; upsampleCr + 92
        0x00004864:    25ff        .%      MOVS     r5,#0xff
        0x00004866:    e000        ..      B        0x486a ; upsampleCr + 94
        0x00004868:    b2ed        ..      UXTB     r5,r5
        0x0000486a:    7055        Up      STRB     r5,[r2,#1]
        0x0000486c:    7a15        .z      LDRB     r5,[r2,#8]
        0x0000486e:    182d        -.      ADDS     r5,r5,r0
        0x00004870:    b2af        ..      UXTH     r7,r5
        0x00004872:    2fff        ./      CMP      r7,#0xff
        0x00004874:    d907        ..      BLS      0x4886 ; upsampleCr + 122
        0x00004876:    2d00        .-      CMP      r5,#0
        0x00004878:    da01        ..      BGE      0x487e ; upsampleCr + 114
        0x0000487a:    2500        .%      MOVS     r5,#0
        0x0000487c:    e004        ..      B        0x4888 ; upsampleCr + 124
        0x0000487e:    2dff        .-      CMP      r5,#0xff
        0x00004880:    dd01        ..      BLE      0x4886 ; upsampleCr + 122
        0x00004882:    25ff        .%      MOVS     r5,#0xff
        0x00004884:    e000        ..      B        0x4888 ; upsampleCr + 124
        0x00004886:    b2ed        ..      UXTB     r5,r5
        0x00004888:    7215        .r      STRB     r5,[r2,#8]
        0x0000488a:    7a55        Uz      LDRB     r5,[r2,#9]
        0x0000488c:    1828        (.      ADDS     r0,r5,r0
        0x0000488e:    b285        ..      UXTH     r5,r0
        0x00004890:    2dff        .-      CMP      r5,#0xff
        0x00004892:    d907        ..      BLS      0x48a4 ; upsampleCr + 152
        0x00004894:    2800        .(      CMP      r0,#0
        0x00004896:    da01        ..      BGE      0x489c ; upsampleCr + 144
        0x00004898:    2000        .       MOVS     r0,#0
        0x0000489a:    e004        ..      B        0x48a6 ; upsampleCr + 154
        0x0000489c:    28ff        .(      CMP      r0,#0xff
        0x0000489e:    dd01        ..      BLE      0x48a4 ; upsampleCr + 152
        0x000048a0:    20ff        .       MOVS     r0,#0xff
        0x000048a2:    e000        ..      B        0x48a6 ; upsampleCr + 154
        0x000048a4:    b2c0        ..      UXTB     r0,r0
        0x000048a6:    7250        Pr      STRB     r0,[r2,#9]
        0x000048a8:    20b7        .       MOVS     r0,#0xb7
        0x000048aa:    4344        DC      MULS     r4,r0,r4
        0x000048ac:    0a20         .      LSRS     r0,r4,#8
        0x000048ae:    780c        .x      LDRB     r4,[r1,#0]
        0x000048b0:    385b        [8      SUBS     r0,r0,#0x5b
        0x000048b2:    1a24        $.      SUBS     r4,r4,r0
        0x000048b4:    b2a5        ..      UXTH     r5,r4
        0x000048b6:    2dff        .-      CMP      r5,#0xff
        0x000048b8:    d907        ..      BLS      0x48ca ; upsampleCr + 190
        0x000048ba:    2c00        .,      CMP      r4,#0
        0x000048bc:    da01        ..      BGE      0x48c2 ; upsampleCr + 182
        0x000048be:    2400        .$      MOVS     r4,#0
        0x000048c0:    e004        ..      B        0x48cc ; upsampleCr + 192
        0x000048c2:    2cff        .,      CMP      r4,#0xff
        0x000048c4:    dd01        ..      BLE      0x48ca ; upsampleCr + 190
        0x000048c6:    24ff        .$      MOVS     r4,#0xff
        0x000048c8:    e000        ..      B        0x48cc ; upsampleCr + 192
        0x000048ca:    b2e4        ..      UXTB     r4,r4
        0x000048cc:    700c        .p      STRB     r4,[r1,#0]
        0x000048ce:    784c        Lx      LDRB     r4,[r1,#1]
        0x000048d0:    1a24        $.      SUBS     r4,r4,r0
        0x000048d2:    b2a5        ..      UXTH     r5,r4
        0x000048d4:    2dff        .-      CMP      r5,#0xff
        0x000048d6:    d907        ..      BLS      0x48e8 ; upsampleCr + 220
        0x000048d8:    2c00        .,      CMP      r4,#0
        0x000048da:    da01        ..      BGE      0x48e0 ; upsampleCr + 212
        0x000048dc:    2400        .$      MOVS     r4,#0
        0x000048de:    e004        ..      B        0x48ea ; upsampleCr + 222
        0x000048e0:    2cff        .,      CMP      r4,#0xff
        0x000048e2:    dd01        ..      BLE      0x48e8 ; upsampleCr + 220
        0x000048e4:    24ff        .$      MOVS     r4,#0xff
        0x000048e6:    e000        ..      B        0x48ea ; upsampleCr + 222
        0x000048e8:    b2e4        ..      UXTB     r4,r4
        0x000048ea:    704c        Lp      STRB     r4,[r1,#1]
        0x000048ec:    7a0c        .z      LDRB     r4,[r1,#8]
        0x000048ee:    1a24        $.      SUBS     r4,r4,r0
        0x000048f0:    b2a5        ..      UXTH     r5,r4
        0x000048f2:    2dff        .-      CMP      r5,#0xff
        0x000048f4:    d907        ..      BLS      0x4906 ; upsampleCr + 250
        0x000048f6:    2c00        .,      CMP      r4,#0
        0x000048f8:    da01        ..      BGE      0x48fe ; upsampleCr + 242
        0x000048fa:    2400        .$      MOVS     r4,#0
        0x000048fc:    e004        ..      B        0x4908 ; upsampleCr + 252
        0x000048fe:    2cff        .,      CMP      r4,#0xff
        0x00004900:    dd01        ..      BLE      0x4906 ; upsampleCr + 250
        0x00004902:    24ff        .$      MOVS     r4,#0xff
        0x00004904:    e000        ..      B        0x4908 ; upsampleCr + 252
        0x00004906:    b2e4        ..      UXTB     r4,r4
        0x00004908:    720c        .r      STRB     r4,[r1,#8]
        0x0000490a:    7a4c        Lz      LDRB     r4,[r1,#9]
        0x0000490c:    1a20         .      SUBS     r0,r4,r0
        0x0000490e:    b284        ..      UXTH     r4,r0
        0x00004910:    2cff        .,      CMP      r4,#0xff
        0x00004912:    d907        ..      BLS      0x4924 ; upsampleCr + 280
        0x00004914:    2800        .(      CMP      r0,#0
        0x00004916:    da01        ..      BGE      0x491c ; upsampleCr + 272
        0x00004918:    2000        .       MOVS     r0,#0
        0x0000491a:    e004        ..      B        0x4926 ; upsampleCr + 282
        0x0000491c:    28ff        .(      CMP      r0,#0xff
        0x0000491e:    dd01        ..      BLE      0x4924 ; upsampleCr + 280
        0x00004920:    20ff        .       MOVS     r0,#0xff
        0x00004922:    e000        ..      B        0x4926 ; upsampleCr + 282
        0x00004924:    b2c0        ..      UXTB     r0,r0
        0x00004926:    7248        Hr      STRB     r0,[r1,#9]
        0x00004928:    1c76        v.      ADDS     r6,r6,#1
        0x0000492a:    b2f6        ..      UXTB     r6,r6
        0x0000492c:    1c89        ..      ADDS     r1,r1,#2
        0x0000492e:    1c92        ..      ADDS     r2,r2,#2
        0x00004930:    2e04        ..      CMP      r6,#4
        0x00004932:    d200        ..      BCS      0x4936 ; upsampleCr + 298
        0x00004934:    e775        u.      B        0x4822 ; upsampleCr + 22
        0x00004936:    4660        `F      MOV      r0,r12
        0x00004938:    1c40        @.      ADDS     r0,r0,#1
        0x0000493a:    b2c0        ..      UXTB     r0,r0
        0x0000493c:    3108        .1      ADDS     r1,r1,#8
        0x0000493e:    3208        .2      ADDS     r2,r2,#8
        0x00004940:    3308        .3      ADDS     r3,r3,#8
        0x00004942:    4684        .F      MOV      r12,r0
        0x00004944:    2804        .(      CMP      r0,#4
        0x00004946:    d200        ..      BCS      0x494a ; upsampleCr + 318
        0x00004948:    e76a        j.      B        0x4820 ; upsampleCr + 20
        0x0000494a:    bcf0        ..      POP      {r4-r7}
        0x0000494c:    4770        pG      BX       lr
    $d
        0x0000494e:    0000        ..      DCW    0
        0x00004950:    1ffff6b0    ....    DCD    536868528
        0x00004954:    1ffff730    0...    DCD    536868656
        0x00004958:    1ffff830    0...    DCD    536868912
    $t
    i.upsampleCrH
    upsampleCrH
        0x0000495c:    4a30        0J      LDR      r2,[pc,#192] ; [0x4a20] = 0x1ffff6b0
        0x0000495e:    0040        @.      LSLS     r0,r0,#1
        0x00004960:    1883        ..      ADDS     r3,r0,r2
        0x00004962:    4830        0H      LDR      r0,[pc,#192] ; [0x4a24] = 0x1ffff730
        0x00004964:    b4f0        ..      PUSH     {r4-r7}
        0x00004966:    1842        B.      ADDS     r2,r0,r1
        0x00004968:    482f        /H      LDR      r0,[pc,#188] ; [0x4a28] = 0x1ffff830
        0x0000496a:    1841        A.      ADDS     r1,r0,r1
        0x0000496c:    2000        .       MOVS     r0,#0
        0x0000496e:    4684        .F      MOV      r12,r0
        0x00004970:    2600        .&      MOVS     r6,#0
        0x00004972:    781c        .x      LDRB     r4,[r3,#0]
        0x00004974:    2067        g       MOVS     r0,#0x67
        0x00004976:    4360        `C      MULS     r0,r4,r0
        0x00004978:    0a00        ..      LSRS     r0,r0,#8
        0x0000497a:    1900        ..      ADDS     r0,r0,r4
        0x0000497c:    7815        .x      LDRB     r5,[r2,#0]
        0x0000497e:    38b3        .8      SUBS     r0,r0,#0xb3
        0x00004980:    182d        -.      ADDS     r5,r5,r0
        0x00004982:    b2af        ..      UXTH     r7,r5
        0x00004984:    1c9b        ..      ADDS     r3,r3,#2
        0x00004986:    2fff        ./      CMP      r7,#0xff
        0x00004988:    d907        ..      BLS      0x499a ; upsampleCrH + 62
        0x0000498a:    2d00        .-      CMP      r5,#0
        0x0000498c:    da01        ..      BGE      0x4992 ; upsampleCrH + 54
        0x0000498e:    2500        .%      MOVS     r5,#0
        0x00004990:    e004        ..      B        0x499c ; upsampleCrH + 64
        0x00004992:    2dff        .-      CMP      r5,#0xff
        0x00004994:    dd01        ..      BLE      0x499a ; upsampleCrH + 62
        0x00004996:    25ff        .%      MOVS     r5,#0xff
        0x00004998:    e000        ..      B        0x499c ; upsampleCrH + 64
        0x0000499a:    b2ed        ..      UXTB     r5,r5
        0x0000499c:    7015        .p      STRB     r5,[r2,#0]
        0x0000499e:    7855        Ux      LDRB     r5,[r2,#1]
        0x000049a0:    1828        (.      ADDS     r0,r5,r0
        0x000049a2:    b285        ..      UXTH     r5,r0
        0x000049a4:    2dff        .-      CMP      r5,#0xff
        0x000049a6:    d907        ..      BLS      0x49b8 ; upsampleCrH + 92
        0x000049a8:    2800        .(      CMP      r0,#0
        0x000049aa:    da01        ..      BGE      0x49b0 ; upsampleCrH + 84
        0x000049ac:    2000        .       MOVS     r0,#0
        0x000049ae:    e004        ..      B        0x49ba ; upsampleCrH + 94
        0x000049b0:    28ff        .(      CMP      r0,#0xff
        0x000049b2:    dd01        ..      BLE      0x49b8 ; upsampleCrH + 92
        0x000049b4:    20ff        .       MOVS     r0,#0xff
        0x000049b6:    e000        ..      B        0x49ba ; upsampleCrH + 94
        0x000049b8:    b2c0        ..      UXTB     r0,r0
        0x000049ba:    7050        Pp      STRB     r0,[r2,#1]
        0x000049bc:    20b7        .       MOVS     r0,#0xb7
        0x000049be:    4344        DC      MULS     r4,r0,r4
        0x000049c0:    0a20         .      LSRS     r0,r4,#8
        0x000049c2:    780c        .x      LDRB     r4,[r1,#0]
        0x000049c4:    385b        [8      SUBS     r0,r0,#0x5b
        0x000049c6:    1a24        $.      SUBS     r4,r4,r0
        0x000049c8:    b2a5        ..      UXTH     r5,r4
        0x000049ca:    2dff        .-      CMP      r5,#0xff
        0x000049cc:    d907        ..      BLS      0x49de ; upsampleCrH + 130
        0x000049ce:    2c00        .,      CMP      r4,#0
        0x000049d0:    da01        ..      BGE      0x49d6 ; upsampleCrH + 122
        0x000049d2:    2400        .$      MOVS     r4,#0
        0x000049d4:    e004        ..      B        0x49e0 ; upsampleCrH + 132
        0x000049d6:    2cff        .,      CMP      r4,#0xff
        0x000049d8:    dd01        ..      BLE      0x49de ; upsampleCrH + 130
        0x000049da:    24ff        .$      MOVS     r4,#0xff
        0x000049dc:    e000        ..      B        0x49e0 ; upsampleCrH + 132
        0x000049de:    b2e4        ..      UXTB     r4,r4
        0x000049e0:    700c        .p      STRB     r4,[r1,#0]
        0x000049e2:    784c        Lx      LDRB     r4,[r1,#1]
        0x000049e4:    1a20         .      SUBS     r0,r4,r0
        0x000049e6:    b284        ..      UXTH     r4,r0
        0x000049e8:    2cff        .,      CMP      r4,#0xff
        0x000049ea:    d907        ..      BLS      0x49fc ; upsampleCrH + 160
        0x000049ec:    2800        .(      CMP      r0,#0
        0x000049ee:    da01        ..      BGE      0x49f4 ; upsampleCrH + 152
        0x000049f0:    2000        .       MOVS     r0,#0
        0x000049f2:    e004        ..      B        0x49fe ; upsampleCrH + 162
        0x000049f4:    28ff        .(      CMP      r0,#0xff
        0x000049f6:    dd01        ..      BLE      0x49fc ; upsampleCrH + 160
        0x000049f8:    20ff        .       MOVS     r0,#0xff
        0x000049fa:    e000        ..      B        0x49fe ; upsampleCrH + 162
        0x000049fc:    b2c0        ..      UXTB     r0,r0
        0x000049fe:    7048        Hp      STRB     r0,[r1,#1]
        0x00004a00:    1c76        v.      ADDS     r6,r6,#1
        0x00004a02:    b2f6        ..      UXTB     r6,r6
        0x00004a04:    1c89        ..      ADDS     r1,r1,#2
        0x00004a06:    1c92        ..      ADDS     r2,r2,#2
        0x00004a08:    2e04        ..      CMP      r6,#4
        0x00004a0a:    d3b2        ..      BCC      0x4972 ; upsampleCrH + 22
        0x00004a0c:    4660        `F      MOV      r0,r12
        0x00004a0e:    1c40        @.      ADDS     r0,r0,#1
        0x00004a10:    b2c0        ..      UXTB     r0,r0
        0x00004a12:    3308        .3      ADDS     r3,r3,#8
        0x00004a14:    4684        .F      MOV      r12,r0
        0x00004a16:    2808        .(      CMP      r0,#8
        0x00004a18:    d3aa        ..      BCC      0x4970 ; upsampleCrH + 20
        0x00004a1a:    bcf0        ..      POP      {r4-r7}
        0x00004a1c:    4770        pG      BX       lr
    $d
        0x00004a1e:    0000        ..      DCW    0
        0x00004a20:    1ffff6b0    ....    DCD    536868528
        0x00004a24:    1ffff730    0...    DCD    536868656
        0x00004a28:    1ffff830    0...    DCD    536868912
    $t
    i.upsampleCrV
    upsampleCrV
        0x00004a2c:    b4f0        ..      PUSH     {r4-r7}
        0x00004a2e:    4a30        0J      LDR      r2,[pc,#192] ; [0x4af0] = 0x1ffff6b0
        0x00004a30:    0040        @.      LSLS     r0,r0,#1
        0x00004a32:    1886        ..      ADDS     r6,r0,r2
        0x00004a34:    482f        /H      LDR      r0,[pc,#188] ; [0x4af4] = 0x1ffff730
        0x00004a36:    4a30        0J      LDR      r2,[pc,#192] ; [0x4af8] = 0x1ffff830
        0x00004a38:    1840        @.      ADDS     r0,r0,r1
        0x00004a3a:    1851        Q.      ADDS     r1,r2,r1
        0x00004a3c:    2200        ."      MOVS     r2,#0
        0x00004a3e:    4694        .F      MOV      r12,r2
        0x00004a40:    2500        .%      MOVS     r5,#0
        0x00004a42:    7833        3x      LDRB     r3,[r6,#0]
        0x00004a44:    2267        g"      MOVS     r2,#0x67
        0x00004a46:    435a        ZC      MULS     r2,r3,r2
        0x00004a48:    0a12        ..      LSRS     r2,r2,#8
        0x00004a4a:    18d2        ..      ADDS     r2,r2,r3
        0x00004a4c:    7804        .x      LDRB     r4,[r0,#0]
        0x00004a4e:    3ab3        .:      SUBS     r2,r2,#0xb3
        0x00004a50:    18a4        ..      ADDS     r4,r4,r2
        0x00004a52:    b2a7        ..      UXTH     r7,r4
        0x00004a54:    1cb6        ..      ADDS     r6,r6,#2
        0x00004a56:    2fff        ./      CMP      r7,#0xff
        0x00004a58:    d907        ..      BLS      0x4a6a ; upsampleCrV + 62
        0x00004a5a:    2c00        .,      CMP      r4,#0
        0x00004a5c:    da01        ..      BGE      0x4a62 ; upsampleCrV + 54
        0x00004a5e:    2400        .$      MOVS     r4,#0
        0x00004a60:    e004        ..      B        0x4a6c ; upsampleCrV + 64
        0x00004a62:    2cff        .,      CMP      r4,#0xff
        0x00004a64:    dd01        ..      BLE      0x4a6a ; upsampleCrV + 62
        0x00004a66:    24ff        .$      MOVS     r4,#0xff
        0x00004a68:    e000        ..      B        0x4a6c ; upsampleCrV + 64
        0x00004a6a:    b2e4        ..      UXTB     r4,r4
        0x00004a6c:    7004        .p      STRB     r4,[r0,#0]
        0x00004a6e:    7a04        .z      LDRB     r4,[r0,#8]
        0x00004a70:    18a2        ..      ADDS     r2,r4,r2
        0x00004a72:    b294        ..      UXTH     r4,r2
        0x00004a74:    2cff        .,      CMP      r4,#0xff
        0x00004a76:    d907        ..      BLS      0x4a88 ; upsampleCrV + 92
        0x00004a78:    2a00        .*      CMP      r2,#0
        0x00004a7a:    da01        ..      BGE      0x4a80 ; upsampleCrV + 84
        0x00004a7c:    2200        ."      MOVS     r2,#0
        0x00004a7e:    e004        ..      B        0x4a8a ; upsampleCrV + 94
        0x00004a80:    2aff        .*      CMP      r2,#0xff
        0x00004a82:    dd01        ..      BLE      0x4a88 ; upsampleCrV + 92
        0x00004a84:    22ff        ."      MOVS     r2,#0xff
        0x00004a86:    e000        ..      B        0x4a8a ; upsampleCrV + 94
        0x00004a88:    b2d2        ..      UXTB     r2,r2
        0x00004a8a:    7202        .r      STRB     r2,[r0,#8]
        0x00004a8c:    22b7        ."      MOVS     r2,#0xb7
        0x00004a8e:    4353        SC      MULS     r3,r2,r3
        0x00004a90:    0a1a        ..      LSRS     r2,r3,#8
        0x00004a92:    780b        .x      LDRB     r3,[r1,#0]
        0x00004a94:    3a5b        [:      SUBS     r2,r2,#0x5b
        0x00004a96:    1a9b        ..      SUBS     r3,r3,r2
        0x00004a98:    b29c        ..      UXTH     r4,r3
        0x00004a9a:    2cff        .,      CMP      r4,#0xff
        0x00004a9c:    d907        ..      BLS      0x4aae ; upsampleCrV + 130
        0x00004a9e:    2b00        .+      CMP      r3,#0
        0x00004aa0:    da01        ..      BGE      0x4aa6 ; upsampleCrV + 122
        0x00004aa2:    2300        .#      MOVS     r3,#0
        0x00004aa4:    e004        ..      B        0x4ab0 ; upsampleCrV + 132
        0x00004aa6:    2bff        .+      CMP      r3,#0xff
        0x00004aa8:    dd01        ..      BLE      0x4aae ; upsampleCrV + 130
        0x00004aaa:    23ff        .#      MOVS     r3,#0xff
        0x00004aac:    e000        ..      B        0x4ab0 ; upsampleCrV + 132
        0x00004aae:    b2db        ..      UXTB     r3,r3
        0x00004ab0:    700b        .p      STRB     r3,[r1,#0]
        0x00004ab2:    7a0b        .z      LDRB     r3,[r1,#8]
        0x00004ab4:    1a9a        ..      SUBS     r2,r3,r2
        0x00004ab6:    b293        ..      UXTH     r3,r2
        0x00004ab8:    2bff        .+      CMP      r3,#0xff
        0x00004aba:    d907        ..      BLS      0x4acc ; upsampleCrV + 160
        0x00004abc:    2a00        .*      CMP      r2,#0
        0x00004abe:    da01        ..      BGE      0x4ac4 ; upsampleCrV + 152
        0x00004ac0:    2200        ."      MOVS     r2,#0
        0x00004ac2:    e004        ..      B        0x4ace ; upsampleCrV + 162
        0x00004ac4:    2aff        .*      CMP      r2,#0xff
        0x00004ac6:    dd01        ..      BLE      0x4acc ; upsampleCrV + 160
        0x00004ac8:    22ff        ."      MOVS     r2,#0xff
        0x00004aca:    e000        ..      B        0x4ace ; upsampleCrV + 162
        0x00004acc:    b2d2        ..      UXTB     r2,r2
        0x00004ace:    720a        .r      STRB     r2,[r1,#8]
        0x00004ad0:    1c6d        m.      ADDS     r5,r5,#1
        0x00004ad2:    b2ed        ..      UXTB     r5,r5
        0x00004ad4:    1c40        @.      ADDS     r0,r0,#1
        0x00004ad6:    1c49        I.      ADDS     r1,r1,#1
        0x00004ad8:    2d08        .-      CMP      r5,#8
        0x00004ada:    d3b2        ..      BCC      0x4a42 ; upsampleCrV + 22
        0x00004adc:    4662        bF      MOV      r2,r12
        0x00004ade:    1c52        R.      ADDS     r2,r2,#1
        0x00004ae0:    b2d2        ..      UXTB     r2,r2
        0x00004ae2:    3008        .0      ADDS     r0,r0,#8
        0x00004ae4:    3108        .1      ADDS     r1,r1,#8
        0x00004ae6:    4694        .F      MOV      r12,r2
        0x00004ae8:    2a04        .*      CMP      r2,#4
        0x00004aea:    d3a9        ..      BCC      0x4a40 ; upsampleCrV + 20
        0x00004aec:    bcf0        ..      POP      {r4-r7}
        0x00004aee:    4770        pG      BX       lr
    $d
        0x00004af0:    1ffff6b0    ....    DCD    536868528
        0x00004af4:    1ffff730    0...    DCD    536868656
        0x00004af8:    1ffff830    0...    DCD    536868912
    $d.realdata
    .constdata
    RegionTable
        0x00004afc:    000003cd    ....    DCD    973
        0x00004b00:    000003e8    ....    DCD    1000
        0x00004b04:    5f44434c    LCD_    DCD    1598309196
        0x00004b08:    5f533432    24S_    DCD    1599288370
        0x00004b0c:    74697257    Writ    DCD    1953067607
        0x00004b10:    6f435f65    e_Co    DCD    1866686309
        0x00004b14:    6e616d6d    mman    DCD    1851878765
        0x00004b18:    00000064    d...    DCD    100
        0x00004b1c:    00000475    u...    DCD    1141
        0x00004b20:    0000048a    ....    DCD    1162
        0x00004b24:    5f44434c    LCD_    DCD    1598309196
        0x00004b28:    5f533432    24S_    DCD    1599288370
        0x00004b2c:    74697257    Writ    DCD    1953067607
        0x00004b30:    61445f65    e_Da    DCD    1631870821
        0x00004b34:    00006174    ta..    DCD    24948
        0x00004b38:    00000000    ....    DCD    0
        0x00004b3c:    00001a8d    ....    DCD    6797
        0x00004b40:    00001aaa    ....    DCD    6826
        0x00004b44:    41646461    addA    DCD    1097098337
        0x00004b48:    6c43646e    ndCl    DCD    1816355950
        0x00004b4c:    00706d61    amp.    DCD    7368033
        0x00004b50:    00000000    ....    DCD    0
        0x00004b54:    00000000    ....    DCD    0
        0x00004b58:    00000000    ....    DCD    0
        0x00004b5c:    00001b01    ....    DCD    6913
        0x00004b60:    00001b1a    ....    DCD    6938
        0x00004b64:    6d616c63    clam    DCD    1835101283
        0x00004b68:    00000070    p...    DCD    112
        0x00004b6c:    00000000    ....    DCD    0
        0x00004b70:    00000000    ....    DCD    0
        0x00004b74:    00000000    ....    DCD    0
        0x00004b78:    00000000    ....    DCD    0
        0x00004b7c:    00001b3d    =...    DCD    6973
        0x00004b80:    00001b86    ....    DCD    7046
        0x00004b84:    766e6f63    conv    DCD    1986948963
        0x00004b88:    43747265    ertC    DCD    1131704933
        0x00004b8c:    00000062    b...    DCD    98
        0x00004b90:    00000000    ....    DCD    0
        0x00004b94:    00000000    ....    DCD    0
        0x00004b98:    00000000    ....    DCD    0
        0x00004b9c:    00001b91    ....    DCD    7057
        0x00004ba0:    00001bdc    ....    DCD    7132
        0x00004ba4:    766e6f63    conv    DCD    1986948963
        0x00004ba8:    43747265    ertC    DCD    1131704933
        0x00004bac:    00000072    r...    DCD    114
        0x00004bb0:    00000000    ....    DCD    0
        0x00004bb4:    00000000    ....    DCD    0
        0x00004bb8:    00000000    ....    DCD    0
        0x00004bbc:    00001be1    ....    DCD    7137
        0x00004bc0:    00001c12    ....    DCD    7186
        0x00004bc4:    79706f63    copy    DCD    2037411683
        0x00004bc8:    00000059    Y...    DCD    89
        0x00004bcc:    00000000    ....    DCD    0
        0x00004bd0:    00000000    ....    DCD    0
        0x00004bd4:    00000000    ....    DCD    0
        0x00004bd8:    00000000    ....    DCD    0
        0x00004bdc:    00001c91    ....    DCD    7313
        0x00004be0:    00001e66    f...    DCD    7782
        0x00004be4:    6f636564    deco    DCD    1868784996
        0x00004be8:    654e6564    deNe    DCD    1699636580
        0x00004bec:    434d7478    xtMC    DCD    1129149560
        0x00004bf0:    00000055    U...    DCD    85
        0x00004bf4:    00000000    ....    DCD    0
        0x00004bf8:    00000000    ....    DCD    0
        0x00004bfc:    00002065    e ..    DCD    8293
        0x00004c00:    00002094    . ..    DCD    8340
        0x00004c04:    42746567    getB    DCD    1114924391
        0x00004c08:    00007469    it..    DCD    29801
        0x00004c0c:    00000000    ....    DCD    0
        0x00004c10:    00000000    ....    DCD    0
        0x00004c14:    00000000    ....    DCD    0
        0x00004c18:    00000000    ....    DCD    0
        0x00004c1c:    00002099    . ..    DCD    8345
        0x00004c20:    0000210e    .!..    DCD    8462
        0x00004c24:    42746567    getB    DCD    1114924391
        0x00004c28:    00737469    its.    DCD    7566441
        0x00004c2c:    00000000    ....    DCD    0
        0x00004c30:    00000000    ....    DCD    0
        0x00004c34:    00000000    ....    DCD    0
        0x00004c38:    00000000    ....    DCD    0
        0x00004c3c:    00002115    .!..    DCD    8469
        0x00004c40:    0000211e    .!..    DCD    8478
        0x00004c44:    42746567    getB    DCD    1114924391
        0x00004c48:    31737469    its1    DCD    829650025
        0x00004c4c:    00000000    ....    DCD    0
        0x00004c50:    00000000    ....    DCD    0
        0x00004c54:    00000000    ....    DCD    0
        0x00004c58:    00000000    ....    DCD    0
        0x00004c5c:    0000211f    .!..    DCD    8479
        0x00004c60:    00002128    (!..    DCD    8488
        0x00004c64:    42746567    getB    DCD    1114924391
        0x00004c68:    32737469    its2    DCD    846427241
        0x00004c6c:    00000000    ....    DCD    0
        0x00004c70:    00000000    ....    DCD    0
        0x00004c74:    00000000    ....    DCD    0
        0x00004c78:    00000000    ....    DCD    0
        0x00004c7c:    00002129    )!..    DCD    8489
        0x00004c80:    00002178    x!..    DCD    8568
        0x00004c84:    43746567    getC    DCD    1131701607
        0x00004c88:    00726168    har.    DCD    7496040
        0x00004c8c:    00000000    ....    DCD    0
        0x00004c90:    00000000    ....    DCD    0
        0x00004c94:    00000000    ....    DCD    0
        0x00004c98:    00000000    ....    DCD    0
        0x00004c9c:    00002181    .!..    DCD    8577
        0x00004ca0:    000021ea    .!..    DCD    8682
        0x00004ca4:    45746567    getE    DCD    1165256039
        0x00004ca8:    6e657478    xten    DCD    1852142712
        0x00004cac:    66664f64    dOff    DCD    1717981028
        0x00004cb0:    00746573    set.    DCD    7628147
        0x00004cb4:    00000000    ....    DCD    0
        0x00004cb8:    00000000    ....    DCD    0
        0x00004cbc:    00002209    ."..    DCD    8713
        0x00004cc0:    00002270    p"..    DCD    8816
        0x00004cc4:    45746567    getE    DCD    1165256039
        0x00004cc8:    6e657478    xten    DCD    1852142712
        0x00004ccc:    73655464    dTes    DCD    1936020580
        0x00004cd0:    00000074    t...    DCD    116
        0x00004cd4:    00000000    ....    DCD    0
        0x00004cd8:    00000000    ....    DCD    0
        0x00004cdc:    00002271    q"..    DCD    8817
        0x00004ce0:    00002298    ."..    DCD    8856
        0x00004ce4:    4f746567    getO    DCD    1333028199
        0x00004ce8:    74657463    ctet    DCD    1952805987
        0x00004cec:    00000000    ....    DCD    0
        0x00004cf0:    00000000    ....    DCD    0
        0x00004cf4:    00000000    ....    DCD    0
        0x00004cf8:    00000000    ....    DCD    0
        0x00004cfc:    00002365    e#..    DCD    9061
        0x00004d00:    000023b6    .#..    DCD    9142
        0x00004d04:    66667568    huff    DCD    1717990760
        0x00004d08:    6f636544    Deco    DCD    1868784964
        0x00004d0c:    00006564    de..    DCD    25956
        0x00004d10:    00000000    ....    DCD    0
        0x00004d14:    00000000    ....    DCD    0
        0x00004d18:    00000000    ....    DCD    0
        0x00004d1c:    000023c1    .#..    DCD    9153
        0x00004d20:    000023de    .#..    DCD    9182
        0x00004d24:    66667568    huff    DCD    1717990760
        0x00004d28:    65747845    Exte    DCD    1702131781
        0x00004d2c:    0000646e    nd..    DCD    25710
        0x00004d30:    00000000    ....    DCD    0
        0x00004d34:    00000000    ....    DCD    0
        0x00004d38:    00000000    ....    DCD    0
        0x00004d3c:    000023e1    .#..    DCD    9185
        0x00004d40:    00002584    .%..    DCD    9604
        0x00004d44:    74636469    idct    DCD    1952670825
        0x00004d48:    736c6f43    Cols    DCD    1936486211
        0x00004d4c:    00000000    ....    DCD    0
        0x00004d50:    00000000    ....    DCD    0
        0x00004d54:    00000000    ....    DCD    0
        0x00004d58:    00000000    ....    DCD    0
        0x00004d5c:    00002589    .%..    DCD    9609
        0x00004d60:    00002674    t&..    DCD    9844
        0x00004d64:    74636469    idct    DCD    1952670825
        0x00004d68:    73776f52    Rows    DCD    1937207122
        0x00004d6c:    00000000    ....    DCD    0
        0x00004d70:    00000000    ....    DCD    0
        0x00004d74:    00000000    ....    DCD    0
        0x00004d78:    00000000    ....    DCD    0
        0x00004d7c:    00002679    y&..    DCD    9849
        0x00004d80:    00002686    .&..    DCD    9862
        0x00004d84:    6c756d69    imul    DCD    1819635049
        0x00004d88:    5f31625f    _b1_    DCD    1597071967
        0x00004d8c:    00003362    b3..    DCD    13154
        0x00004d90:    00000000    ....    DCD    0
        0x00004d94:    00000000    ....    DCD    0
        0x00004d98:    00000000    ....    DCD    0
        0x00004d9c:    00002689    .&..    DCD    9865
        0x00004da0:    00002694    .&..    DCD    9876
        0x00004da4:    6c756d69    imul    DCD    1819635049
        0x00004da8:    0032625f    _b2.    DCD    3301983
        0x00004dac:    00000000    ....    DCD    0
        0x00004db0:    00000000    ....    DCD    0
        0x00004db4:    00000000    ....    DCD    0
        0x00004db8:    00000000    ....    DCD    0
        0x00004dbc:    00002699    .&..    DCD    9881
        0x00004dc0:    000026a6    .&..    DCD    9894
        0x00004dc4:    6c756d69    imul    DCD    1819635049
        0x00004dc8:    0034625f    _b4.    DCD    3433055
        0x00004dcc:    00000000    ....    DCD    0
        0x00004dd0:    00000000    ....    DCD    0
        0x00004dd4:    00000000    ....    DCD    0
        0x00004dd8:    00000000    ....    DCD    0
        0x00004ddc:    000026a7    .&..    DCD    9895
        0x00004de0:    000026b2    .&..    DCD    9906
        0x00004de4:    6c756d69    imul    DCD    1819635049
        0x00004de8:    0035625f    _b5.    DCD    3498591
        0x00004dec:    00000000    ....    DCD    0
        0x00004df0:    00000000    ....    DCD    0
        0x00004df4:    00000000    ....    DCD    0
        0x00004df8:    00000000    ....    DCD    0
        0x00004dfc:    000026b5    .&..    DCD    9909
        0x00004e00:    000026e4    .&..    DCD    9956
        0x00004e04:    74696e69    init    DCD    1953066601
        0x00004e08:    00000000    ....    DCD    0
        0x00004e0c:    00000000    ....    DCD    0
        0x00004e10:    00000000    ....    DCD    0
        0x00004e14:    00000000    ....    DCD    0
        0x00004e18:    00000000    ....    DCD    0
        0x00004e1c:    000026e9    .&..    DCD    9961
        0x00004e20:    000027e6    .'..    DCD    10214
        0x00004e24:    74696e69    init    DCD    1953066601
        0x00004e28:    6d617246    Fram    DCD    1835102790
        0x00004e2c:    00000065    e...    DCD    101
        0x00004e30:    00000000    ....    DCD    0
        0x00004e34:    00000000    ....    DCD    0
        0x00004e38:    00000000    ....    DCD    0
        0x00004e3c:    000027ed    .'..    DCD    10221
        0x00004e40:    000028d8    .(..    DCD    10456
        0x00004e44:    74696e69    init    DCD    1953066601
        0x00004e48:    6e616353    Scan    DCD    1851876179
        0x00004e4c:    00000000    ....    DCD    0
        0x00004e50:    00000000    ....    DCD    0
        0x00004e54:    00000000    ....    DCD    0
        0x00004e58:    00000000    ....    DCD    0
        0x00004e5c:    00002901    .)..    DCD    10497
        0x00004e60:    0000297e    ~)..    DCD    10622
        0x00004e64:    61636f6c    loca    DCD    1633906540
        0x00004e68:    4f536574    teSO    DCD    1330865524
        0x00004e6c:    72614d46    FMar    DCD    1918979398
        0x00004e70:    0072656b    ker.    DCD    7497067
        0x00004e74:    00000000    ....    DCD    0
        0x00004e78:    00000000    ....    DCD    0
        0x00004e7c:    000031b9    .1..    DCD    12729
        0x00004e80:    00003286    .2..    DCD    12934
        0x00004e84:    636f7270    proc    DCD    1668248176
        0x00004e88:    4d737365    essM    DCD    1299411813
        0x00004e8c:    656b7261    arke    DCD    1701540449
        0x00004e90:    00007372    rs..    DCD    29554
        0x00004e94:    00000000    ....    DCD    0
        0x00004e98:    00000000    ....    DCD    0
        0x00004e9c:    0000328d    .2..    DCD    12941
        0x00004ea0:    000032f8    .2..    DCD    13048
        0x00004ea4:    636f7270    proc    DCD    1668248176
        0x00004ea8:    52737365    essR    DCD    1383297893
        0x00004eac:    61747365    esta    DCD    1635021669
        0x00004eb0:    00007472    rt..    DCD    29810
        0x00004eb4:    00000000    ....    DCD    0
        0x00004eb8:    00000000    ....    DCD    0
        0x00004ebc:    000032fd    .2..    DCD    13053
        0x00004ec0:    0000343e    >4..    DCD    13374
        0x00004ec4:    64616572    read    DCD    1684104562
        0x00004ec8:    4d544844    DHTM    DCD    1297369156
        0x00004ecc:    656b7261    arke    DCD    1701540449
        0x00004ed0:    00000072    r...    DCD    114
        0x00004ed4:    00000000    ....    DCD    0
        0x00004ed8:    00000000    ....    DCD    0
        0x00004edc:    00003451    Q4..    DCD    13393
        0x00004ee0:    0000350e    .5..    DCD    13582
        0x00004ee4:    64616572    read    DCD    1684104562
        0x00004ee8:    4d545144    DQTM    DCD    1297371460
        0x00004eec:    656b7261    arke    DCD    1701540449
        0x00004ef0:    00000072    r...    DCD    114
        0x00004ef4:    00000000    ....    DCD    0
        0x00004ef8:    00000000    ....    DCD    0
        0x00004efc:    0000351d    .5..    DCD    13597
        0x00004f00:    000035ce    .5..    DCD    13774
        0x00004f04:    64616572    read    DCD    1684104562
        0x00004f08:    4d464f53    SOFM    DCD    1296453459
        0x00004f0c:    656b7261    arke    DCD    1701540449
        0x00004f10:    00000072    r...    DCD    114
        0x00004f14:    00000000    ....    DCD    0
        0x00004f18:    00000000    ....    DCD    0
        0x00004f1c:    000035d5    .5..    DCD    13781
        0x00004f20:    0000368c    .6..    DCD    13964
        0x00004f24:    64616572    read    DCD    1684104562
        0x00004f28:    4d534f53    SOSM    DCD    1297305427
        0x00004f2c:    656b7261    arke    DCD    1701540449
        0x00004f30:    00000072    r...    DCD    114
        0x00004f34:    00000000    ....    DCD    0
        0x00004f38:    00000000    ....    DCD    0
        0x00004f3c:    00003691    .6..    DCD    13969
        0x00004f40:    000036a6    .6..    DCD    13990
        0x00004f44:    66757473    stuf    DCD    1718973555
        0x00004f48:    61684366    fCha    DCD    1634222950
        0x00004f4c:    00000072    r...    DCD    114
        0x00004f50:    00000000    ....    DCD    0
        0x00004f54:    00000000    ....    DCD    0
        0x00004f58:    00000000    ....    DCD    0
        0x00004f5c:    000036b1    .6..    DCD    14001
        0x00004f60:    000036ce    .6..    DCD    14030
        0x00004f64:    41627573    subA    DCD    1096971635
        0x00004f68:    6c43646e    ndCl    DCD    1816355950
        0x00004f6c:    00706d61    amp.    DCD    7368033
        0x00004f70:    00000000    ....    DCD    0
        0x00004f74:    00000000    ....    DCD    0
        0x00004f78:    00000000    ....    DCD    0
        0x00004f7c:    000036d1    .6..    DCD    14033
        0x00004f80:    000037dc    .7..    DCD    14300
        0x00004f84:    6e617274    tran    DCD    1851880052
        0x00004f88:    726f6673    sfor    DCD    1919903347
        0x00004f8c:    6f6c426d    mBlo    DCD    1869365869
        0x00004f90:    00006b63    ck..    DCD    27491
        0x00004f94:    00000000    ....    DCD    0
        0x00004f98:    00000000    ....    DCD    0
        0x00004f9c:    000037e1    .7..    DCD    14305
        0x00004fa0:    00003b12    .;..    DCD    15122
        0x00004fa4:    6e617274    tran    DCD    1851880052
        0x00004fa8:    726f6673    sfor    DCD    1919903347
        0x00004fac:    6f6c426d    mBlo    DCD    1869365869
        0x00004fb0:    65526b63    ckRe    DCD    1699900259
        0x00004fb4:    65637564    duce    DCD    1701016932
        0x00004fb8:    00000000    ....    DCD    0
        0x00004fbc:    00003b25    %;..    DCD    15141
        0x00004fc0:    00003bca    .;..    DCD    15306
        0x00004fc4:    61737075    upsa    DCD    1634955381
        0x00004fc8:    656c706d    mple    DCD    1701605485
        0x00004fcc:    00006243    Cb..    DCD    25155
        0x00004fd0:    00000000    ....    DCD    0
        0x00004fd4:    00000000    ....    DCD    0
        0x00004fd8:    00000000    ....    DCD    0
        0x00004fdc:    00003bd5    .;..    DCD    15317
        0x00004fe0:    00003c4e    N<..    DCD    15438
        0x00004fe4:    61737075    upsa    DCD    1634955381
        0x00004fe8:    656c706d    mple    DCD    1701605485
        0x00004fec:    00486243    CbH.    DCD    4743747
        0x00004ff0:    00000000    ....    DCD    0
        0x00004ff4:    00000000    ....    DCD    0
        0x00004ff8:    00000000    ....    DCD    0
        0x00004ffc:    00003c59    Y<..    DCD    15449
        0x00005000:    00003cd4    .<..    DCD    15572
        0x00005004:    61737075    upsa    DCD    1634955381
        0x00005008:    656c706d    mple    DCD    1701605485
        0x0000500c:    00566243    CbV.    DCD    5661251
        0x00005010:    00000000    ....    DCD    0
        0x00005014:    00000000    ....    DCD    0
        0x00005018:    00000000    ....    DCD    0
        0x0000501c:    00003cdd    .<..    DCD    15581
        0x00005020:    00003d84    .=..    DCD    15748
        0x00005024:    61737075    upsa    DCD    1634955381
        0x00005028:    656c706d    mple    DCD    1701605485
        0x0000502c:    00007243    Cr..    DCD    29251
        0x00005030:    00000000    ....    DCD    0
        0x00005034:    00000000    ....    DCD    0
        0x00005038:    00000000    ....    DCD    0
        0x0000503c:    00003d89    .=..    DCD    15753
        0x00005040:    00003e04    .>..    DCD    15876
        0x00005044:    61737075    upsa    DCD    1634955381
        0x00005048:    656c706d    mple    DCD    1701605485
        0x0000504c:    00487243    CrH.    DCD    4747843
        0x00005050:    00000000    ....    DCD    0
        0x00005054:    00000000    ....    DCD    0
        0x00005058:    00000000    ....    DCD    0
        0x0000505c:    00003e09    .>..    DCD    15881
        0x00005060:    00003e86    .>..    DCD    16006
        0x00005064:    61737075    upsa    DCD    1634955381
        0x00005068:    656c706d    mple    DCD    1701605485
        0x0000506c:    00567243    CrV.    DCD    5665347
        0x00005070:    00000000    ....    DCD    0
        0x00005074:    00000000    ....    DCD    0
        0x00005078:    00000000    ....    DCD    0
        0x0000507c:    00001aad    ....    DCD    6829
        0x00005080:    00001af8    ....    DCD    6904
        0x00005084:    63656863    chec    DCD    1667590243
        0x00005088:    73665f6b    k_fs    DCD    1936088939
        0x0000508c:    00000000    ....    DCD    0
        0x00005090:    00000000    ....    DCD    0
        0x00005094:    00000000    ....    DCD    0
        0x00005098:    00000000    ....    DCD    0
        0x0000509c:    00001b1d    ....    DCD    6941
        0x000050a0:    00001b38    8...    DCD    6968
        0x000050a4:    73756c63    clus    DCD    1937075299
        0x000050a8:    65733274    t2se    DCD    1702048372
        0x000050ac:    00007463    ct..    DCD    29795
        0x000050b0:    00000000    ....    DCD    0
        0x000050b4:    00000000    ....    DCD    0
        0x000050b8:    00000000    ....    DCD    0
        0x000050bc:    00001c19    ....    DCD    7193
        0x000050c0:    00001c8c    ....    DCD    7308
        0x000050c4:    61657263    crea    DCD    1634038371
        0x000050c8:    6e5f6574    te_n    DCD    1851745652
        0x000050cc:    00656d61    ame.    DCD    6647137
        0x000050d0:    00000000    ....    DCD    0
        0x000050d4:    00000000    ....    DCD    0
        0x000050d8:    00000000    ....    DCD    0
        0x000050dc:    00001e81    ....    DCD    7809
        0x000050e0:    00001ee2    ....    DCD    7906
        0x000050e4:    5f726964    dir_    DCD    1601333604
        0x000050e8:    646e6966    find    DCD    1684957542
        0x000050ec:    00000000    ....    DCD    0
        0x000050f0:    00000000    ....    DCD    0
        0x000050f4:    00000000    ....    DCD    0
        0x000050f8:    00000000    ....    DCD    0
        0x000050fc:    00001ee5    ....    DCD    7909
        0x00005100:    00001f40    @...    DCD    8000
        0x00005104:    5f726964    dir_    DCD    1601333604
        0x00005108:    7478656e    next    DCD    1954047342
        0x0000510c:    00000000    ....    DCD    0
        0x00005110:    00000000    ....    DCD    0
        0x00005114:    00000000    ....    DCD    0
        0x00005118:    00000000    ....    DCD    0
        0x0000511c:    00001f45    E...    DCD    8005
        0x00005120:    00001f72    r...    DCD    8050
        0x00005124:    5f726964    dir_    DCD    1601333604
        0x00005128:    69776572    rewi    DCD    1769432434
        0x0000512c:    0000646e    nd..    DCD    25710
        0x00005130:    00000000    ....    DCD    0
        0x00005134:    00000000    ....    DCD    0
        0x00005138:    00000000    ....    DCD    0
        0x0000513c:    00001fa9    ....    DCD    8105
        0x00005140:    00002010    . ..    DCD    8208
        0x00005144:    6c6c6f66    foll    DCD    1819045734
        0x00005148:    705f776f    ow_p    DCD    1885304687
        0x0000514c:    00687461    ath.    DCD    6845537
        0x00005150:    00000000    ....    DCD    0
        0x00005154:    00000000    ....    DCD    0
        0x00005158:    00000000    ....    DCD    0
        0x0000515c:    00002299    ."..    DCD    8857
        0x00005160:    000022b0    ."..    DCD    8880
        0x00005164:    5f746567    get_    DCD    1601463655
        0x00005168:    73756c63    clus    DCD    1937075299
        0x0000516c:    00000074    t...    DCD    116
        0x00005170:    00000000    ....    DCD    0
        0x00005174:    00000000    ....    DCD    0
        0x00005178:    00000000    ....    DCD    0
        0x0000517c:    000022b1    ."..    DCD    8881
        0x00005180:    000022ec    ."..    DCD    8940
        0x00005184:    5f746567    get_    DCD    1601463655
        0x00005188:    00746166    fat.    DCD    7627110
        0x0000518c:    00000000    ....    DCD    0
        0x00005190:    00000000    ....    DCD    0
        0x00005194:    00000000    ....    DCD    0
        0x00005198:    00000000    ....    DCD    0
        0x0000519c:    000022f1    ."..    DCD    8945
        0x000051a0:    00002362    b#..    DCD    9058
        0x000051a4:    5f746567    get_    DCD    1601463655
        0x000051a8:    656c6966    file    DCD    1701603686
        0x000051ac:    6f666e69    info    DCD    1868983913
        0x000051b0:    00000000    ....    DCD    0
        0x000051b4:    00000000    ....    DCD    0
        0x000051b8:    00000000    ....    DCD    0
        0x000051bc:    000028dd    .(..    DCD    10461
        0x000051c0:    000028f2    .(..    DCD    10482
        0x000051c4:    645f646c    ld_d    DCD    1683973228
        0x000051c8:    64726f77    word    DCD    1685221239
        0x000051cc:    00000000    ....    DCD    0
        0x000051d0:    00000000    ....    DCD    0
        0x000051d4:    00000000    ....    DCD    0
        0x000051d8:    00000000    ....    DCD    0
        0x000051dc:    000028f3    .(..    DCD    10483
        0x000051e0:    000028fe    .(..    DCD    10494
        0x000051e4:    775f646c    ld_w    DCD    2002740332
        0x000051e8:    0064726f    ord.    DCD    6582895
        0x000051ec:    00000000    ....    DCD    0
        0x000051f0:    00000000    ....    DCD    0
        0x000051f4:    00000000    ....    DCD    0
        0x000051f8:    00000000    ....    DCD    0
        0x000051fc:    000000d5    ....    DCD    213
        0x00005200:    000000e0    ....    DCD    224
        0x00005204:    65736552    Rese    DCD    1702061394
        0x00005208:    61485f74    t_Ha    DCD    1632132980
        0x0000520c:    656c646e    ndle    DCD    1701602414
        0x00005210:    00000072    r...    DCD    114
        0x00005214:    00000000    ....    DCD    0
        0x00005218:    00000000    ....    DCD    0
        0x0000521c:    000000e1    ....    DCD    225
        0x00005220:    000000e2    ....    DCD    226
        0x00005224:    5f494d4e    NMI_    DCD    1598639438
        0x00005228:    646e6148    Hand    DCD    1684955464
        0x0000522c:    0072656c    ler.    DCD    7497068
        0x00005230:    00000000    ....    DCD    0
        0x00005234:    00000000    ....    DCD    0
        0x00005238:    00000000    ....    DCD    0
        0x0000523c:    000000e3    ....    DCD    227
        0x00005240:    000000e4    ....    DCD    228
        0x00005244:    64726148    Hard    DCD    1685217608
        0x00005248:    6c756146    Faul    DCD    1819631942
        0x0000524c:    61485f74    t_Ha    DCD    1632132980
        0x00005250:    656c646e    ndle    DCD    1701602414
        0x00005254:    00000072    r...    DCD    114
        0x00005258:    00000000    ....    DCD    0
        0x0000525c:    000000e5    ....    DCD    229
        0x00005260:    000000e6    ....    DCD    230
        0x00005264:    5f435653    SVC_    DCD    1598248531
        0x00005268:    646e6148    Hand    DCD    1684955464
        0x0000526c:    0072656c    ler.    DCD    7497068
        0x00005270:    00000000    ....    DCD    0
        0x00005274:    00000000    ....    DCD    0
        0x00005278:    00000000    ....    DCD    0
        0x0000527c:    000000e7    ....    DCD    231
        0x00005280:    000000e8    ....    DCD    232
        0x00005284:    646e6550    Pend    DCD    1684956496
        0x00005288:    485f5653    SV_H    DCD    1214207571
        0x0000528c:    6c646e61    andl    DCD    1818521185
        0x00005290:    00007265    er..    DCD    29285
        0x00005294:    00000000    ....    DCD    0
        0x00005298:    00000000    ....    DCD    0
        0x0000529c:    000000e9    ....    DCD    233
        0x000052a0:    000000ea    ....    DCD    234
        0x000052a4:    54737953    SysT    DCD    1416853843
        0x000052a8:    5f6b6369    ick_    DCD    1600873321
        0x000052ac:    646e6148    Hand    DCD    1684955464
        0x000052b0:    0072656c    ler.    DCD    7497068
        0x000052b4:    00000000    ....    DCD    0
        0x000052b8:    00000000    ....    DCD    0
        0x000052bc:    0000014d    M...    DCD    333
        0x000052c0:    0000017e    ~...    DCD    382
        0x000052c4:    746e6f43    Cont    DCD    1953394499
        0x000052c8:    5f6c6f72    rol_    DCD    1600941938
        0x000052cc:    5f424752    RGB_    DCD    1598179154
        0x000052d0:    7344454c    LEDs    DCD    1933854028
        0x000052d4:    00000000    ....    DCD    0
        0x000052d8:    00000000    ....    DCD    0
        0x000052dc:    00000185    ....    DCD    389
        0x000052e0:    00000196    ....    DCD    406
        0x000052e4:    616c6544    Dela    DCD    1634493764
        0x000052e8:    00000079    y...    DCD    121
        0x000052ec:    00000000    ....    DCD    0
        0x000052f0:    00000000    ....    DCD    0
        0x000052f4:    00000000    ....    DCD    0
        0x000052f8:    00000000    ....    DCD    0
        0x000052fc:    0000019d    ....    DCD    413
        0x00005300:    000001a4    ....    DCD    420
        0x00005304:    61736944    Disa    DCD    1634953540
        0x00005308:    5f656c62    ble_    DCD    1600482402
        0x0000530c:    666f7250    Prof    DCD    1718579792
        0x00005310:    6e696c69    ilin    DCD    1852402793
        0x00005314:    00000067    g...    DCD    103
        0x00005318:    00000000    ....    DCD    0
        0x0000531c:    000001a9    ....    DCD    425
        0x00005320:    0000026a    j...    DCD    618
        0x00005324:    70736944    Disp    DCD    1886611780
        0x00005328:    5f79616c    lay_    DCD    1601790316
        0x0000532c:    666f7250    Prof    DCD    1718579792
        0x00005330:    00656c69    ile.    DCD    6646889
        0x00005334:    00000000    ....    DCD    0
        0x00005338:    00000000    ....    DCD    0
        0x0000533c:    000002bd    ....    DCD    701
        0x00005340:    000002c4    ....    DCD    708
        0x00005344:    62616e45    Enab    DCD    1650552389
        0x00005348:    505f656c    le_P    DCD    1348429164
        0x0000534c:    69666f72    rofi    DCD    1768320882
        0x00005350:    676e696c    ling    DCD    1735289196
        0x00005354:    00000000    ....    DCD    0
        0x00005358:    00000000    ....    DCD    0
        0x0000535c:    000002c9    ....    DCD    713
        0x00005360:    000002e0    ....    DCD    736
        0x00005364:    74696e49    Init    DCD    1953066569
        0x00005368:    4344415f    _ADC    DCD    1128546655
        0x0000536c:    00000000    ....    DCD    0
        0x00005370:    00000000    ....    DCD    0
        0x00005374:    00000000    ....    DCD    0
        0x00005378:    00000000    ....    DCD    0
        0x0000537c:    000002e9    ....    DCD    745
        0x00005380:    0000035c    \...    DCD    860
        0x00005384:    74696e49    Init    DCD    1953066569
        0x00005388:    6265445f    _Deb    DCD    1650803807
        0x0000538c:    535f6775    ug_S    DCD    1398761333
        0x00005390:    616e6769    igna    DCD    1634625385
        0x00005394:    0000736c    ls..    DCD    29548
        0x00005398:    00000000    ....    DCD    0
        0x0000539c:    0000036d    m...    DCD    877
        0x000053a0:    000003ba    ....    DCD    954
        0x000053a4:    74696e49    Init    DCD    1953066569
        0x000053a8:    6f72505f    _Pro    DCD    1869762655
        0x000053ac:    696c6966    fili    DCD    1768712550
        0x000053b0:    0000676e    ng..    DCD    26478
        0x000053b4:    00000000    ....    DCD    0
        0x000053b8:    00000000    ....    DCD    0
        0x000053bc:    000003ed    ....    DCD    1005
        0x000053c0:    000003f6    ....    DCD    1014
        0x000053c4:    5f44434c    LCD_    DCD    1598309196
        0x000053c8:    73617245    Eras    DCD    1935766085
        0x000053cc:    00000065    e...    DCD    101
        0x000053d0:    00000000    ....    DCD    0
        0x000053d4:    00000000    ....    DCD    0
        0x000053d8:    00000000    ....    DCD    0
        0x000053dc:    00000411    ....    DCD    1041
        0x000053e0:    00000464    d...    DCD    1124
        0x000053e4:    74696e49    Init    DCD    1953066569
        0x000053e8:    4247525f    _RGB    DCD    1111970399
        0x000053ec:    44454c5f    _LED    DCD    1145392223
        0x000053f0:    00000073    s...    DCD    115
        0x000053f4:    00000000    ....    DCD    0
        0x000053f8:    00000000    ....    DCD    0
        0x000053fc:    00000491    ....    DCD    1169
        0x00005400:    000004f6    ....    DCD    1270
        0x00005404:    5f44434c    LCD_    DCD    1598309196
        0x00005408:    746e6f43    Cont    DCD    1953394499
        0x0000540c:    6c6c6f72    roll    DCD    1819045746
        0x00005410:    495f7265    er_I    DCD    1230991973
        0x00005414:    0074696e    nit.    DCD    7629166
        0x00005418:    00000000    ....    DCD    0
        0x0000541c:    000004fd    ....    DCD    1277
        0x00005420:    0000057e    ~...    DCD    1406
        0x00005424:    5f44434c    LCD_    DCD    1598309196
        0x00005428:    6c6c6946    Fill    DCD    1819044166
        0x0000542c:    6675425f    _Buf    DCD    1718960735
        0x00005430:    00726566    fer.    DCD    7497062
        0x00005434:    00000000    ....    DCD    0
        0x00005438:    00000000    ....    DCD    0
        0x0000543c:    00000581    ....    DCD    1409
        0x00005440:    0000062c    ,...    DCD    1580
        0x00005444:    5f44434c    LCD_    DCD    1598309196
        0x00005448:    4f495047    GPIO    DCD    1330204743
        0x0000544c:    696e495f    _Ini    DCD    1768835423
        0x00005450:    00000074    t...    DCD    116
        0x00005454:    00000000    ....    DCD    0
        0x00005458:    00000000    ....    DCD    0
        0x0000545c:    00000639    9...    DCD    1593
        0x00005460:    00000686    ....    DCD    1670
        0x00005464:    5f44434c    LCD_    DCD    1598309196
        0x00005468:    74696e49    Init    DCD    1953066569
        0x0000546c:    00000000    ....    DCD    0
        0x00005470:    00000000    ....    DCD    0
        0x00005474:    00000000    ....    DCD    0
        0x00005478:    00000000    ....    DCD    0
        0x0000547c:    000006a1    ....    DCD    1697
        0x00005480:    00000736    6...    DCD    1846
        0x00005484:    5f44434c    LCD_    DCD    1598309196
        0x00005488:    4745504a    JPEG    DCD    1195724874
        0x0000548c:    00000000    ....    DCD    0
        0x00005490:    00000000    ....    DCD    0
        0x00005494:    00000000    ....    DCD    0
        0x00005498:    00000000    ....    DCD    0
        0x0000549c:    00000791    ....    DCD    1937
        0x000054a0:    00000802    ....    DCD    2050
        0x000054a4:    5f44434c    LCD_    DCD    1598309196
        0x000054a8:    746f6c50    Plot    DCD    1953459280
        0x000054ac:    7869505f    _Pix    DCD    2020167775
        0x000054b0:    00006c65    el..    DCD    27749
        0x000054b4:    00000000    ....    DCD    0
        0x000054b8:    00000000    ....    DCD    0
        0x000054bc:    00000803    ....    DCD    2051
        0x000054c0:    00000898    ....    DCD    2200
        0x000054c4:    5f44434c    LCD_    DCD    1598309196
        0x000054c8:    72617453    Star    DCD    1918989395
        0x000054cc:    65525f74    t_Re    DCD    1699897204
        0x000054d0:    6e617463    ctan    DCD    1851880547
        0x000054d4:    00656c67    gle.    DCD    6646887
        0x000054d8:    00000000    ....    DCD    0
        0x000054dc:    00000899    ....    DCD    2201
        0x000054e0:    000008bc    ....    DCD    2236
        0x000054e4:    5f44434c    LCD_    DCD    1598309196
        0x000054e8:    425f5354    TS_B    DCD    1113543508
        0x000054ec:    6b636f6c    lock    DCD    1801678700
        0x000054f0:    5f676e69    ing_    DCD    1600613993
        0x000054f4:    64616552    Read    DCD    1684104530
        0x000054f8:    00000000    ....    DCD    0
        0x000054fc:    000008bd    ....    DCD    2237
        0x00005500:    000008c4    ....    DCD    2244
        0x00005504:    5f44434c    LCD_    DCD    1598309196
        0x00005508:    495f5354    TS_I    DCD    1230984020
        0x0000550c:    0074696e    nit.    DCD    7629166
        0x00005510:    00000000    ....    DCD    0
        0x00005514:    00000000    ....    DCD    0
        0x00005518:    00000000    ....    DCD    0
        0x0000551c:    000008c5    ....    DCD    2245
        0x00005520:    00000a52    R...    DCD    2642
        0x00005524:    5f44434c    LCD_    DCD    1598309196
        0x00005528:    525f5354    TS_R    DCD    1381978964
        0x0000552c:    00646165    ead.    DCD    6578533
        0x00005530:    00000000    ....    DCD    0
        0x00005534:    00000000    ....    DCD    0
        0x00005538:    00000000    ....    DCD    0
        0x0000553c:    00000a69    i...    DCD    2665
        0x00005540:    00000a7a    z...    DCD    2682
        0x00005544:    5f44434c    LCD_    DCD    1598309196
        0x00005548:    74786554    Text    DCD    1954047316
        0x0000554c:    7465475f    _Get    DCD    1952794463
        0x00005550:    70796c47    Glyp    DCD    1887005767
        0x00005554:    64695768    hWid    DCD    1684625256
        0x00005558:    00006874    th..    DCD    26740
        0x0000555c:    00000a81    ....    DCD    2689
        0x00005560:    00000aac    ....    DCD    2732
        0x00005564:    5f44434c    LCD_    DCD    1598309196
        0x00005568:    74786554    Text    DCD    1954047316
        0x0000556c:    696e495f    _Ini    DCD    1768835423
        0x00005570:    00000074    t...    DCD    116
        0x00005574:    00000000    ....    DCD    0
        0x00005578:    00000000    ....    DCD    0
        0x0000557c:    00000ab5    ....    DCD    2741
        0x00005580:    00000c14    ....    DCD    3092
        0x00005584:    5f44434c    LCD_    DCD    1598309196
        0x00005588:    74786554    Text    DCD    1954047316
        0x0000558c:    6972505f    _Pri    DCD    1769099359
        0x00005590:    6843746e    ntCh    DCD    1749251182
        0x00005594:    00007261    ar..    DCD    29281
        0x00005598:    00000000    ....    DCD    0
        0x0000559c:    00000c19    ....    DCD    3097
        0x000055a0:    00000c4a    J...    DCD    3146
        0x000055a4:    5f44434c    LCD_    DCD    1598309196
        0x000055a8:    74786554    Text    DCD    1954047316
        0x000055ac:    6972505f    _Pri    DCD    1769099359
        0x000055b0:    7453746e    ntSt    DCD    1951626350
        0x000055b4:    00000072    r...    DCD    114
        0x000055b8:    00000000    ....    DCD    0
        0x000055bc:    00000c51    Q...    DCD    3153
        0x000055c0:    00000c8c    ....    DCD    3212
        0x000055c4:    5f44434c    LCD_    DCD    1598309196
        0x000055c8:    74786554    Text    DCD    1954047316
        0x000055cc:    6972505f    _Pri    DCD    1769099359
        0x000055d0:    7453746e    ntSt    DCD    1951626350
        0x000055d4:    43525f72    r_RC    DCD    1129471858
        0x000055d8:    00000000    ....    DCD    0
        0x000055dc:    00000c91    ....    DCD    3217
        0x000055e0:    00000cb0    ....    DCD    3248
        0x000055e4:    5f44434c    LCD_    DCD    1598309196
        0x000055e8:    74786554    Text    DCD    1954047316
        0x000055ec:    7465535f    _Set    DCD    1952797535
        0x000055f0:    6c6f435f    _Col    DCD    1819231071
        0x000055f4:    0073726f    ors.    DCD    7565935
        0x000055f8:    00000000    ....    DCD    0
        0x000055fc:    00000cb5    ....    DCD    3253
        0x00005600:    00000d12    ....    DCD    3346
        0x00005604:    5f44434c    LCD_    DCD    1598309196
        0x00005608:    74697257    Writ    DCD    1953067607
        0x0000560c:    65525f65    e_Re    DCD    1699897189
        0x00005610:    6e617463    ctan    DCD    1851880547
        0x00005614:    5f656c67    gle_    DCD    1600482407
        0x00005618:    75515f4e    N_Qu    DCD    1968267086
        0x0000561c:    00000d1d    ....    DCD    3357
        0x00005620:    00000d4c    L...    DCD    3404
        0x00005624:    5f44434c    LCD_    DCD    1598309196
        0x00005628:    74697257    Writ    DCD    1953067607
        0x0000562c:    65525f65    e_Re    DCD    1699897189
        0x00005630:    6e617463    ctan    DCD    1851880547
        0x00005634:    5f656c67    gle_    DCD    1600482407
        0x00005638:    65786950    Pixe    DCD    1702390096
        0x0000563c:    00000df9    ....    DCD    3577
        0x00005640:    00000e54    T...    DCD    3668
        0x00005644:    5f4d5750    PWM_    DCD    1598904144
        0x00005648:    74696e49    Init    DCD    1953066569
        0x0000564c:    00000000    ....    DCD    0
        0x00005650:    00000000    ....    DCD    0
        0x00005654:    00000000    ....    DCD    0
        0x00005658:    00000000    ....    DCD    0
        0x0000565c:    00000e65    e...    DCD    3685
        0x00005660:    00000ec2    ....    DCD    3778
        0x00005664:    636f7250    Proc    DCD    1668248144
        0x00005668:    5f737365    ess_    DCD    1601401701
        0x0000566c:    666f7250    Prof    DCD    1718579792
        0x00005670:    5f656c69    ile_    DCD    1600482409
        0x00005674:    706d6153    Samp    DCD    1886216531
        0x00005678:    0000656c    le..    DCD    25964
        0x0000567c:    00000f65    e...    DCD    3941
        0x00005680:    0000113c    <...    DCD    4412
        0x00005684:    495f4453    SD_I    DCD    1230980179
        0x00005688:    0074696e    nit.    DCD    7629166
        0x0000568c:    00000000    ....    DCD    0
        0x00005690:    00000000    ....    DCD    0
        0x00005694:    00000000    ....    DCD    0
        0x00005698:    00000000    ....    DCD    0
        0x0000569c:    00001141    A...    DCD    4417
        0x000056a0:    000011ee    ....    DCD    4590
        0x000056a4:    525f4453    SD_R    DCD    1381975123
        0x000056a8:    00646165    ead.    DCD    6578533
        0x000056ac:    00000000    ....    DCD    0
        0x000056b0:    00000000    ....    DCD    0
        0x000056b4:    00000000    ....    DCD    0
        0x000056b8:    00000000    ....    DCD    0
        0x000056bc:    000011f9    ....    DCD    4601
        0x000056c0:    00001204    ....    DCD    4612
        0x000056c4:    5f495053    SPI_    DCD    1598640211
        0x000056c8:    485f5343    CS_H    DCD    1214206787
        0x000056cc:    00686769    igh.    DCD    6842217
        0x000056d0:    00000000    ....    DCD    0
        0x000056d4:    00000000    ....    DCD    0
        0x000056d8:    00000000    ....    DCD    0
        0x000056dc:    00001209    ....    DCD    4617
        0x000056e0:    00001214    ....    DCD    4628
        0x000056e4:    5f495053    SPI_    DCD    1598640211
        0x000056e8:    4c5f5343    CS_L    DCD    1281315651
        0x000056ec:    0000776f    ow..    DCD    30575
        0x000056f0:    00000000    ....    DCD    0
        0x000056f4:    00000000    ....    DCD    0
        0x000056f8:    00000000    ....    DCD    0
        0x000056fc:    00001219    ....    DCD    4633
        0x00005700:    00001220     ...    DCD    4640
        0x00005704:    5f495053    SPI_    DCD    1598640211
        0x00005708:    71657246    Freq    DCD    1902473798
        0x0000570c:    6769485f    _Hig    DCD    1734953055
        0x00005710:    00000068    h...    DCD    104
        0x00005714:    00000000    ....    DCD    0
        0x00005718:    00000000    ....    DCD    0
        0x0000571c:    00001225    %...    DCD    4645
        0x00005720:    0000122c    ,...    DCD    4652
        0x00005724:    5f495053    SPI_    DCD    1598640211
        0x00005728:    71657246    Freq    DCD    1902473798
        0x0000572c:    776f4c5f    _Low    DCD    2003782751
        0x00005730:    00000000    ....    DCD    0
        0x00005734:    00000000    ....    DCD    0
        0x00005738:    00000000    ....    DCD    0
        0x0000573c:    00001231    1...    DCD    4657
        0x00005740:    00001270    p...    DCD    4720
        0x00005744:    5f495053    SPI_    DCD    1598640211
        0x00005748:    74696e49    Init    DCD    1953066569
        0x0000574c:    00000000    ....    DCD    0
        0x00005750:    00000000    ....    DCD    0
        0x00005754:    00000000    ....    DCD    0
        0x00005758:    00000000    ....    DCD    0
        0x0000575c:    00001285    ....    DCD    4741
        0x00005760:    000012ac    ....    DCD    4780
        0x00005764:    5f495053    SPI_    DCD    1598640211
        0x00005768:    00005752    RW..    DCD    22354
        0x0000576c:    00000000    ....    DCD    0
        0x00005770:    00000000    ....    DCD    0
        0x00005774:    00000000    ....    DCD    0
        0x00005778:    00000000    ....    DCD    0
        0x0000577c:    000012b5    ....    DCD    4789
        0x00005780:    000012d0    ....    DCD    4816
        0x00005784:    5f495053    SPI_    DCD    1598640211
        0x00005788:    656c6552    Rele    DCD    1701602642
        0x0000578c:    00657361    ase.    DCD    6648673
        0x00005790:    00000000    ....    DCD    0
        0x00005794:    00000000    ....    DCD    0
        0x00005798:    00000000    ....    DCD    0
        0x0000579c:    000012d1    ....    DCD    4817
        0x000057a0:    000012d8    ....    DCD    4824
        0x000057a4:    5f495053    SPI_    DCD    1598640211
        0x000057a8:    656d6954    Time    DCD    1701669204
        0x000057ac:    664f5f72    r_Of    DCD    1716477810
        0x000057b0:    00000066    f...    DCD    102
        0x000057b4:    00000000    ....    DCD    0
        0x000057b8:    00000000    ....    DCD    0
        0x000057bc:    000012dd    ....    DCD    4829
        0x000057c0:    000012f6    ....    DCD    4854
        0x000057c4:    5f495053    SPI_    DCD    1598640211
        0x000057c8:    656d6954    Time    DCD    1701669204
        0x000057cc:    6e4f5f72    r_On    DCD    1850695538
        0x000057d0:    00000000    ....    DCD    0
        0x000057d4:    00000000    ....    DCD    0
        0x000057d8:    00000000    ....    DCD    0
        0x000057dc:    00001301    ....    DCD    4865
        0x000057e0:    0000130c    ....    DCD    4876
        0x000057e4:    5f495053    SPI_    DCD    1598640211
        0x000057e8:    656d6954    Time    DCD    1701669204
        0x000057ec:    74535f72    r_St    DCD    1951620978
        0x000057f0:    73757461    atus    DCD    1937077345
        0x000057f4:    00000000    ....    DCD    0
        0x000057f8:    00000000    ....    DCD    0
        0x000057fc:    00001311    ....    DCD    4881
        0x00005800:    000013a8    ....    DCD    5032
        0x00005804:    74726f53    Sort    DCD    1953656659
        0x00005808:    6f72505f    _Pro    DCD    1869762655
        0x0000580c:    656c6966    file    DCD    1701603686
        0x00005810:    6765525f    _Reg    DCD    1734693471
        0x00005814:    736e6f69    ions    DCD    1936617321
        0x00005818:    00000000    ....    DCD    0
        0x0000581c:    000013b9    ....    DCD    5049
        0x00005820:    00001472    r...    DCD    5234
        0x00005824:    74737953    Syst    DCD    1953724755
        0x00005828:    6e496d65    emIn    DCD    1850305893
        0x0000582c:    00007469    it..    DCD    29801
        0x00005830:    00000000    ....    DCD    0
        0x00005834:    00000000    ....    DCD    0
        0x00005838:    00000000    ....    DCD    0
        0x0000583c:    000014a1    ....    DCD    5281
        0x00005840:    000014ac    ....    DCD    5292
        0x00005844:    304d5054    TPM0    DCD    810373204
        0x00005848:    5152495f    _IRQ    DCD    1364347231
        0x0000584c:    646e6148    Hand    DCD    1684955464
        0x00005850:    0072656c    ler.    DCD    7497068
        0x00005854:    00000000    ....    DCD    0
        0x00005858:    00000000    ....    DCD    0
        0x0000585c:    000014b1    ....    DCD    5297
        0x00005860:    00001508    ....    DCD    5384
        0x00005864:    54524155    UART    DCD    1414676821
        0x00005868:    52495f30    0_IR    DCD    1380540208
        0x0000586c:    6e614851    QHan    DCD    1851869265
        0x00005870:    72656c64    dler    DCD    1919249508
        0x00005874:    00000000    ....    DCD    0
        0x00005878:    00000000    ....    DCD    0
        0x0000587c:    00001f79    y...    DCD    8057
        0x00005880:    00001f88    ....    DCD    8072
        0x00005884:    6b736964    disk    DCD    1802725732
        0x00005888:    696e695f    _ini    DCD    1768843615
        0x0000588c:    6c616974    tial    DCD    1818323316
        0x00005890:    00657a69    ize.    DCD    6650473
        0x00005894:    00000000    ....    DCD    0
        0x00005898:    00000000    ....    DCD    0
        0x0000589c:    00001f8d    ....    DCD    8077
        0x000058a0:    00001fa4    ....    DCD    8100
        0x000058a4:    6b736964    disk    DCD    1802725732
        0x000058a8:    6165725f    _rea    DCD    1634038367
        0x000058ac:    00007064    dp..    DCD    28772
        0x000058b0:    00000000    ....    DCD    0
        0x000058b4:    00000000    ....    DCD    0
        0x000058b8:    00000000    ....    DCD    0
        0x000058bc:    00002011    . ..    DCD    8209
        0x000058c0:    00002060    ` ..    DCD    8288
        0x000058c4:    65657266    free    DCD    1701147238
        0x000058c8:    00000000    ....    DCD    0
        0x000058cc:    00000000    ....    DCD    0
        0x000058d0:    00000000    ....    DCD    0
        0x000058d4:    00000000    ....    DCD    0
        0x000058d8:    00000000    ....    DCD    0
        0x000058dc:    00002985    .)..    DCD    10629
        0x000058e0:    00002a34    4*..    DCD    10804
        0x000058e4:    6e69616d    main    DCD    1852399981
        0x000058e8:    00000000    ....    DCD    0
        0x000058ec:    00000000    ....    DCD    0
        0x000058f0:    00000000    ....    DCD    0
        0x000058f4:    00000000    ....    DCD    0
        0x000058f8:    00000000    ....    DCD    0
        0x000058fc:    00002a95    .*..    DCD    10901
        0x00005900:    00002af0    .*..    DCD    10992
        0x00005904:    6c6c616d    mall    DCD    1819042157
        0x00005908:    0000636f    oc..    DCD    25455
        0x0000590c:    00000000    ....    DCD    0
        0x00005910:    00000000    ....    DCD    0
        0x00005914:    00000000    ....    DCD    0
        0x00005918:    00000000    ....    DCD    0
        0x0000591c:    00002b01    .+..    DCD    11009
        0x00005920:    00002c00    .,..    DCD    11264
        0x00005924:    6d5f6670    pf_m    DCD    1834968688
        0x00005928:    746e756f    ount    DCD    1953396079
        0x0000592c:    00000000    ....    DCD    0
        0x00005930:    00000000    ....    DCD    0
        0x00005934:    00000000    ....    DCD    0
        0x00005938:    00000000    ....    DCD    0
        0x0000593c:    00002c09    .,..    DCD    11273
        0x00005940:    00002c5e    ^,..    DCD    11358
        0x00005944:    6f5f6670    pf_o    DCD    1868523120
        0x00005948:    006e6570    pen.    DCD    7234928
        0x0000594c:    00000000    ....    DCD    0
        0x00005950:    00000000    ....    DCD    0
        0x00005954:    00000000    ....    DCD    0
        0x00005958:    00000000    ....    DCD    0
        0x0000595c:    00002c65    e,..    DCD    11365
        0x00005960:    00002cae    .,..    DCD    11438
        0x00005964:    6f5f6670    pf_o    DCD    1868523120
        0x00005968:    646e6570    pend    DCD    1684956528
        0x0000596c:    00007269    ir..    DCD    29289
        0x00005970:    00000000    ....    DCD    0
        0x00005974:    00000000    ....    DCD    0
        0x00005978:    00000000    ....    DCD    0
        0x0000597c:    00002cb5    .,..    DCD    11445
        0x00005980:    00002d76    v-..    DCD    11638
        0x00005984:    725f6670    pf_r    DCD    1918854768
        0x00005988:    00646165    ead.    DCD    6578533
        0x0000598c:    00000000    ....    DCD    0
        0x00005990:    00000000    ....    DCD    0
        0x00005994:    00000000    ....    DCD    0
        0x00005998:    00000000    ....    DCD    0
        0x0000599c:    00002d81    .-..    DCD    11649
        0x000059a0:    00002e1a    ....    DCD    11802
        0x000059a4:    725f6670    pf_r    DCD    1918854768
        0x000059a8:    64646165    eadd    DCD    1684300133
        0x000059ac:    00007269    ir..    DCD    29289
        0x000059b0:    00000000    ....    DCD    0
        0x000059b4:    00000000    ....    DCD    0
        0x000059b8:    00000000    ....    DCD    0
        0x000059bc:    00002e21    !...    DCD    11809
        0x000059c0:    00002eb2    ....    DCD    11954
        0x000059c4:    65706a70    pjpe    DCD    1701866096
        0x000059c8:    65645f67    g_de    DCD    1701076839
        0x000059cc:    65646f63    code    DCD    1701080931
        0x000059d0:    696e695f    _ini    DCD    1768843615
        0x000059d4:    00000074    t...    DCD    116
        0x000059d8:    00000000    ....    DCD    0
        0x000059dc:    00002ebd    ....    DCD    11965
        0x000059e0:    00002eee    ....    DCD    12014
        0x000059e4:    65706a70    pjpe    DCD    1701866096
        0x000059e8:    65645f67    g_de    DCD    1701076839
        0x000059ec:    65646f63    code    DCD    1701080931
        0x000059f0:    75636d5f    _mcu    DCD    1969450335
        0x000059f4:    00000000    ....    DCD    0
        0x000059f8:    00000000    ....    DCD    0
        0x000059fc:    00002ef5    ....    DCD    12021
        0x00005a00:    00003184    .1..    DCD    12676
        0x00005a04:    65706a70    pjpe    DCD    1701866096
        0x00005a08:    6f6c5f67    g_lo    DCD    1869373287
        0x00005a0c:    665f6461    ad_f    DCD    1717527649
        0x00005a10:    5f6d6f72    rom_    DCD    1601007474
        0x00005a14:    656c6966    file    DCD    1701603686
        0x00005a18:    00000000    ....    DCD    0
        0x00005a1c:    0000318d    .1..    DCD    12685
        0x00005a20:    000031b2    .1..    DCD    12722
        0x00005a24:    65706a70    pjpe    DCD    1701866096
        0x00005a28:    656e5f67    g_ne    DCD    1701732199
        0x00005a2c:    625f6465    ed_b    DCD    1650418789
        0x00005a30:    73657479    ytes    DCD    1936028793
        0x00005a34:    6c61635f    _cal    DCD    1818321759
        0x00005a38:    6361626c    lbac    DCD    1667326572
    .constdata
    NumProfileRegions
        0x00005a3c:    0000007a    z...    DCD    122
    .constdata
    Lucida_Console12x19
        0x00005a40:    00200000    .. .    DCD    2097152
        0x00005a44:    0013007f    ....    DCD    1245311
        0x00005a48:    00018801    ....    DCD    100353
        0x00005a4c:    00019b08    ....    DCD    105224
        0x00005a50:    0001ae0a    ....    DCD    110090
        0x00005a54:    0001d40c    ....    DCD    119820
        0x00005a58:    0001fa0a    ....    DCD    129546
        0x00005a5c:    0002200c    . ..    DCD    139276
        0x00005a60:    0002460c    .F..    DCD    149004
        0x00005a64:    00026c07    .l..    DCD    158727
        0x00005a68:    00027f0b    ....    DCD    163595
        0x00005a6c:    0002a509    ....    DCD    173321
        0x00005a70:    0002cb0a    ....    DCD    183050
        0x00005a74:    0002f10c    ....    DCD    192780
        0x00005a78:    00031708    ....    DCD    202504
        0x00005a7c:    00032a0a    .*..    DCD    207370
        0x00005a80:    00035008    .P..    DCD    217096
        0x00005a84:    0003630b    .c..    DCD    221963
        0x00005a88:    0003890b    ....    DCD    231691
        0x00005a8c:    0003af0c    ....    DCD    241420
        0x00005a90:    0003d50b    ....    DCD    251147
        0x00005a94:    0003fb0a    ....    DCD    260874
        0x00005a98:    0004210b    .!..    DCD    270603
        0x00005a9c:    0004470a    .G..    DCD    280330
        0x00005aa0:    00046d0b    .m..    DCD    290059
        0x00005aa4:    0004930a    ....    DCD    299786
        0x00005aa8:    0004b90b    ....    DCD    309515
        0x00005aac:    0004df0b    ....    DCD    319243
        0x00005ab0:    00050508    ....    DCD    328968
        0x00005ab4:    00051808    ....    DCD    333832
        0x00005ab8:    00052b0b    .+..    DCD    338699
        0x00005abc:    0005510b    .Q..    DCD    348427
        0x00005ac0:    0005770a    .w..    DCD    358154
        0x00005ac4:    00059d0b    ....    DCD    367883
        0x00005ac8:    0005c30c    ....    DCD    377612
        0x00005acc:    0005e90c    ....    DCD    387340
        0x00005ad0:    00060f0b    ....    DCD    397067
        0x00005ad4:    0006350c    .5..    DCD    406796
        0x00005ad8:    00065b0c    .[..    DCD    416524
        0x00005adc:    0006810b    ....    DCD    426251
        0x00005ae0:    0006a70b    ....    DCD    435979
        0x00005ae4:    0006cd0b    ....    DCD    445707
        0x00005ae8:    0006f30b    ....    DCD    455435
        0x00005aec:    0007190a    ....    DCD    465162
        0x00005af0:    00073f0a    .?..    DCD    474890
        0x00005af4:    0007650c    .e..    DCD    484620
        0x00005af8:    00078b0b    ....    DCD    494347
        0x00005afc:    0007b10b    ....    DCD    504075
        0x00005b00:    0007d70b    ....    DCD    513803
        0x00005b04:    0007fd0b    ....    DCD    523531
        0x00005b08:    0008230b    .#..    DCD    533259
        0x00005b0c:    0008490c    .I..    DCD    542988
        0x00005b10:    00086f0c    .o..    DCD    552716
        0x00005b14:    0008950b    ....    DCD    562443
        0x00005b18:    0008bb0b    ....    DCD    572171
        0x00005b1c:    0008e10b    ....    DCD    581899
        0x00005b20:    0009070c    ....    DCD    591628
        0x00005b24:    00092d0c    .-..    DCD    601356
        0x00005b28:    0009530c    .S..    DCD    611084
        0x00005b2c:    0009790c    .y..    DCD    620812
        0x00005b30:    00099f0c    ....    DCD    630540
        0x00005b34:    0009c50b    ....    DCD    640267
        0x00005b38:    0009eb0b    ....    DCD    649995
        0x00005b3c:    000a1109    ....    DCD    659721
        0x00005b40:    000a370b    .7..    DCD    669451
        0x00005b44:    000a5d0c    .]..    DCD    679180
        0x00005b48:    000a8308    ....    DCD    688904
        0x00005b4c:    000a960c    ....    DCD    693772
        0x00005b50:    000abc0b    ....    DCD    703499
        0x00005b54:    000ae20b    ....    DCD    713227
        0x00005b58:    000b080b    ....    DCD    722955
        0x00005b5c:    000b2e0b    ....    DCD    732683
        0x00005b60:    000b540c    .T..    DCD    742412
        0x00005b64:    000b7a0b    .z..    DCD    752139
        0x00005b68:    000ba00b    ....    DCD    761867
        0x00005b6c:    000bc608    ....    DCD    771592
        0x00005b70:    000bd909    ....    DCD    776457
        0x00005b74:    000bff0b    ....    DCD    786187
        0x00005b78:    000c2509    .%..    DCD    795913
        0x00005b7c:    000c4b0b    .K..    DCD    805643
        0x00005b80:    000c710b    .q..    DCD    815371
        0x00005b84:    000c970b    ....    DCD    825099
        0x00005b88:    000cbd0b    ....    DCD    834827
        0x00005b8c:    000ce30b    ....    DCD    844555
        0x00005b90:    000d090a    ....    DCD    854282
        0x00005b94:    000d2f0b    ./..    DCD    864011
        0x00005b98:    000d550b    .U..    DCD    873739
        0x00005b9c:    000d7b0b    .{..    DCD    883467
        0x00005ba0:    000da10b    ....    DCD    893195
        0x00005ba4:    000dc70c    ....    DCD    902924
        0x00005ba8:    000ded0b    ....    DCD    912651
        0x00005bac:    000e130b    ....    DCD    922379
        0x00005bb0:    000e390b    .9..    DCD    932107
        0x00005bb4:    000e5f0b    ._..    DCD    941835
        0x00005bb8:    000e8508    ....    DCD    951560
        0x00005bbc:    000e980a    ....    DCD    956426
        0x00005bc0:    000ebe0b    ....    DCD    966155
        0x00005bc4:    000ee405    ....    DCD    975877
        0x00005bc8:    00000000    ....    DCD    0
        0x00005bcc:    00000000    ....    DCD    0
        0x00005bd0:    00000000    ....    DCD    0
        0x00005bd4:    00000000    ....    DCD    0
        0x00005bd8:    00000000    ....    DCD    0
        0x00005bdc:    e0e0e0e0    ....    DCD    3772834016
        0x00005be0:    e0e0e0e0    ....    DCD    3772834016
        0x00005be4:    0000e0e0    ....    DCD    57568
        0x00005be8:    0000e0e0    ....    DCD    57568
        0x00005bec:    039c0000    ....    DCD    60555264
        0x00005bf0:    039c039c    ....    DCD    60556188
        0x00005bf4:    039c039c    ....    DCD    60556188
        0x00005bf8:    00000000    ....    DCD    0
        0x00005bfc:    00000000    ....    DCD    0
        0x00005c00:    00000000    ....    DCD    0
        0x00005c04:    00000000    ....    DCD    0
        0x00005c08:    00000000    ....    DCD    0
        0x00005c0c:    00000000    ....    DCD    0
        0x00005c10:    00000000    ....    DCD    0
        0x00005c14:    03300000    ..0.    DCD    53477376
        0x00005c18:    03300330    0.0.    DCD    53478192
        0x00005c1c:    01980198    ....    DCD    26739096
        0x00005c20:    01980ffe    ....    DCD    26742782
        0x00005c24:    00cc00d8    ....    DCD    13369560
        0x00005c28:    00cc07ff    ....    DCD    13371391
        0x00005c2c:    006600cc    ..f.    DCD    6684876
        0x00005c30:    00000066    f...    DCD    102
        0x00005c34:    00000000    ....    DCD    0
        0x00005c38:    00600000    ..`.    DCD    6291456
        0x00005c3c:    03fc01f8    ....    DCD    66847224
        0x00005c40:    006e006e    n.n.    DCD    7209070
        0x00005c44:    007c006e    n.|.    DCD    8126574
        0x00005c48:    01e00078    x...    DCD    31457400
        0x00005c4c:    03e001e0    ....    DCD    65012192
        0x00005c50:    03e603e0    ....    DCD    65405920
        0x00005c54:    00fc01fe    ....    DCD    16515582
        0x00005c58:    00000060    `...    DCD    96
        0x00005c5c:    00000000    ....    DCD    0
        0x00005c60:    0c3e0000    ..>.    DCD    205389824
        0x00005c64:    03770677    w.w.    DCD    58132087
        0x00005c68:    01f703f7    ....    DCD    32965623
        0x00005c6c:    006000fe    ..`.    DCD    6291710
        0x00005c70:    07f00060    `...    DCD    133169248
        0x00005c74:    0efc0ef8    ....    DCD    251399928
        0x00005c78:    0ee60eec    ....    DCD    249958124
        0x00005c7c:    000007c3    ....    DCD    1987
        0x00005c80:    00000000    ....    DCD    0
        0x00005c84:    00000000    ....    DCD    0
        0x00005c88:    01fc00f8    ....    DCD    33292536
        0x00005c8c:    01dc01dc    ....    DCD    31195612
        0x00005c90:    007800fc    ..x.    DCD    7864572
        0x00005c94:    0e7e003c    <.~.    DCD    243138620
        0x00005c98:    0ee70ef7    ....    DCD    250023671
        0x00005c9c:    07cf07c7    ....    DCD    131008455
        0x00005ca0:    0ffc07fe    ....    DCD    268175358
        0x00005ca4:    00000000    ....    DCD    0
        0x00005ca8:    00000000    ....    DCD    0
        0x00005cac:    70707070    pppp    DCD    1886417008
        0x00005cb0:    00000070    p...    DCD    112
        0x00005cb4:    00000000    ....    DCD    0
        0x00005cb8:    00000000    ....    DCD    0
        0x00005cbc:    00000000    ....    DCD    0
        0x00005cc0:    e007c007    ....    DCD    3758604295
        0x00005cc4:    7000e001    ...p    DCD    1879105537
        0x00005cc8:    38007000    .p.8    DCD    939552768
        0x00005ccc:    38003800    .8.8    DCD    939538432
        0x00005cd0:    38003800    .8.8    DCD    939538432
        0x00005cd4:    70003800    .8.p    DCD    1879062528
        0x00005cd8:    e0007000    .p..    DCD    3758125056
        0x00005cdc:    c001e000    ....    DCD    3221348352
        0x00005ce0:    00070007    ....    DCD    458759
        0x00005ce4:    3e000e00    ...>    DCD    1040190976
        0x00005ce8:    70007800    .x.p    DCD    1879078912
        0x00005cec:    e000e000    ....    DCD    3758153728
        0x00005cf0:    c001c000    ....    DCD    3221340160
        0x00005cf4:    c001c001    ....    DCD    3221340161
        0x00005cf8:    c001c001    ....    DCD    3221340161
        0x00005cfc:    e000e001    ....    DCD    3758153729
        0x00005d00:    78007000    .p.x    DCD    2013294592
        0x00005d04:    0e003e00    .>..    DCD    234896896
        0x00005d08:    00000000    ....    DCD    0
        0x00005d0c:    70007000    .p.p    DCD    1879076864
        0x00005d10:    de03fe00    ....    DCD    3724803584
        0x00005d14:    f8000003    ....    DCD    4160749571
        0x00005d18:    d801dc00    ....    DCD    3624000512
        0x00005d1c:    00000000    ....    DCD    0
        0x00005d20:    00000000    ....    DCD    0
        0x00005d24:    00000000    ....    DCD    0
        0x00005d28:    00000000    ....    DCD    0
        0x00005d2c:    00000000    ....    DCD    0
        0x00005d30:    00000000    ....    DCD    0
        0x00005d34:    00000000    ....    DCD    0
        0x00005d38:    e0000000    ....    DCD    3758096384
        0x00005d3c:    e000e000    ....    DCD    3758153728
        0x00005d40:    fe00e000    ....    DCD    4261470208
        0x00005d44:    e00ffe0f    ....    DCD    3759144463
        0x00005d48:    e000e000    ....    DCD    3758153728
        0x00005d4c:    0000e000    ....    DCD    57344
        0x00005d50:    00000000    ....    DCD    0
        0x00005d54:    00000000    ....    DCD    0
        0x00005d58:    00000000    ....    DCD    0
        0x00005d5c:    00000000    ....    DCD    0
        0x00005d60:    f0000000    ....    DCD    4026531840
        0x00005d64:    60e0f0f0    ...`    DCD    1625354480
        0x00005d68:    00000070    p...    DCD    112
        0x00005d6c:    00000000    ....    DCD    0
        0x00005d70:    00000000    ....    DCD    0
        0x00005d74:    00000000    ....    DCD    0
        0x00005d78:    03fc0000    ....    DCD    66846720
        0x00005d7c:    000003fc    ....    DCD    1020
        0x00005d80:    00000000    ....    DCD    0
        0x00005d84:    00000000    ....    DCD    0
        0x00005d88:    00000000    ....    DCD    0
        0x00005d8c:    00000000    ....    DCD    0
        0x00005d90:    00000000    ....    DCD    0
        0x00005d94:    00000000    ....    DCD    0
        0x00005d98:    00000000    ....    DCD    0
        0x00005d9c:    00f0f0f0    ....    DCD    15790320
        0x00005da0:    00000000    ....    DCD    0
        0x00005da4:    80038007    ....    DCD    2147713031
        0x00005da8:    c0038003    ....    DCD    3221454851
        0x00005dac:    e001c001    ....    DCD    3758211073
        0x00005db0:    e000e000    ....    DCD    3758153728
        0x00005db4:    70007000    .p.p    DCD    1879076864
        0x00005db8:    38007000    .p.8    DCD    939552768
        0x00005dbc:    1c003800    .8..    DCD    469776384
        0x00005dc0:    1c001c00    ....    DCD    469769216
        0x00005dc4:    00000e00    ....    DCD    3584
        0x00005dc8:    f0000000    ....    DCD    4026531840
        0x00005dcc:    9c03f800    ....    DCD    2617505792
        0x00005dd0:    0e079e03    ....    DCD    235380227
        0x00005dd4:    0e070e07    ....    DCD    235343367
        0x00005dd8:    0e070e07    ....    DCD    235343367
        0x00005ddc:    9e070e07    ....    DCD    2651262471
        0x00005de0:    f8039c07    ....    DCD    4160986119
        0x00005de4:    0000f001    ....    DCD    61441
        0x00005de8:    00000000    ....    DCD    0
        0x00005dec:    00000000    ....    DCD    0
        0x00005df0:    fc00e000    ....    DCD    4227915776
        0x00005df4:    e000ee00    ....    DCD    3758157312
        0x00005df8:    e000e000    ....    DCD    3758153728
        0x00005dfc:    e000e000    ....    DCD    3758153728
        0x00005e00:    e000e000    ....    DCD    3758153728
        0x00005e04:    e000e000    ....    DCD    3758153728
        0x00005e08:    fe0ffe00    ....    DCD    4262460928
        0x00005e0c:    0000000f    ....    DCD    15
        0x00005e10:    00000000    ....    DCD    0
        0x00005e14:    f8000000    ....    DCD    4160749568
        0x00005e18:    8c03fc01    ....    DCD    2349071361
        0x00005e1c:    00070007    ....    DCD    458759
        0x00005e20:    80070007    ....    DCD    2147942407
        0x00005e24:    e001c003    ....    DCD    3758211075
        0x00005e28:    38007000    .p.8    DCD    939552768
        0x00005e2c:    fc001c00    ....    DCD    4227865600
        0x00005e30:    0007fc07    ....    DCD    523271
        0x00005e34:    00000000    ....    DCD    0
        0x00005e38:    00000000    ....    DCD    0
        0x00005e3c:    fc01f800    ....    DCD    4227987456
        0x00005e40:    80038c03    ....    DCD    2147716099
        0x00005e44:    f801c003    ....    DCD    4160864259
        0x00005e48:    c001f800    ....    DCD    3221354496
        0x00005e4c:    80038001    ....    DCD    2147713025
        0x00005e50:    c0038003    ....    DCD    3221454851
        0x00005e54:    fc01fc03    ....    DCD    4227988483
        0x00005e58:    00000000    ....    DCD    0
        0x00005e5c:    00000000    ....    DCD    0
        0x00005e60:    c0000000    ....    DCD    3221225472
        0x00005e64:    f001e001    ....    DCD    4026654721
        0x00005e68:    d801f001    ....    DCD    3624005633
        0x00005e6c:    ce01dc01    ....    DCD    3456228353
        0x00005e70:    ff01c601    ....    DCD    4278306305
        0x00005e74:    c007ff07    ....    DCD    3221749511
        0x00005e78:    c001c001    ....    DCD    3221340161
        0x00005e7c:    0001c001    ....    DCD    114689
        0x00005e80:    00000000    ....    DCD    0
        0x00005e84:    00000000    ....    DCD    0
        0x00005e88:    fc03fc00    ....    DCD    4228119552
        0x00005e8c:    1c001c03    ....    DCD    469769219
        0x00005e90:    fc001c00    ....    DCD    4227865600
        0x00005e94:    c001fc00    ....    DCD    3221355520
        0x00005e98:    80038003    ....    DCD    2147713027
        0x00005e9c:    c0038003    ....    DCD    3221454851
        0x00005ea0:    fc01fc03    ....    DCD    4227988483
        0x00005ea4:    00000000    ....    DCD    0
        0x00005ea8:    00000000    ....    DCD    0
        0x00005eac:    f0000000    ....    DCD    4026531840
        0x00005eb0:    3c03f801    ...<    DCD    1006893057
        0x00005eb4:    0e001c00    ....    DCD    234888192
        0x00005eb8:    fe01ee00    ....    DCD    4261539328
        0x00005ebc:    0e079e03    ....    DCD    235380227
        0x00005ec0:    0e070e07    ....    DCD    235343367
        0x00005ec4:    fc079c07    ....    DCD    4228357127
        0x00005ec8:    0001f003    ....    DCD    126979
        0x00005ecc:    00000000    ....    DCD    0
        0x00005ed0:    00000000    ....    DCD    0
        0x00005ed4:    fe03fe00    ....    DCD    4261674496
        0x00005ed8:    c0038003    ....    DCD    3221454851
        0x00005edc:    e001c001    ....    DCD    3758211073
        0x00005ee0:    7000e000    ...p    DCD    1879105536
        0x00005ee4:    38007000    .p.8    DCD    939552768
        0x00005ee8:    38003800    .8.8    DCD    939538432
        0x00005eec:    1c001c00    ....    DCD    469769216
        0x00005ef0:    00000000    ....    DCD    0
        0x00005ef4:    00000000    ....    DCD    0
        0x00005ef8:    f0000000    ....    DCD    4026531840
        0x00005efc:    9c03fc01    ....    DCD    2617506817
        0x00005f00:    bc039c03    ....    DCD    3154353155
        0x00005f04:    f001f803    ....    DCD    4026660867
        0x00005f08:    8e03fc00    ....    DCD    2382625792
        0x00005f0c:    0e070e07    ....    DCD    235343367
        0x00005f10:    fc079e07    ....    DCD    4228357639
        0x00005f14:    0001f803    ....    DCD    129027
        0x00005f18:    00000000    ....    DCD    0
        0x00005f1c:    00000000    ....    DCD    0
        0x00005f20:    fc00f800    ....    DCD    4227921920
        0x00005f24:    0e039e03    ....    DCD    235118083
        0x00005f28:    0e070e07    ....    DCD    235343367
        0x00005f2c:    fc079e07    ....    DCD    4228357639
        0x00005f30:    00077807    .x..    DCD    489479
        0x00005f34:    c0038007    ....    DCD    3221454855
        0x00005f38:    f801fc03    ....    DCD    4160879619
        0x00005f3c:    00000000    ....    DCD    0
        0x00005f40:    00000000    ....    DCD    0
        0x00005f44:    00000000    ....    DCD    0
        0x00005f48:    f0f00000    ....    DCD    4042260480
        0x00005f4c:    000000f0    ....    DCD    240
        0x00005f50:    f0f0f000    ....    DCD    4042321920
        0x00005f54:    00000000    ....    DCD    0
        0x00005f58:    00000000    ....    DCD    0
        0x00005f5c:    f0f0f000    ....    DCD    4042321920
        0x00005f60:    00000000    ....    DCD    0
        0x00005f64:    e0f0f0f0    ....    DCD    3773886704
        0x00005f68:    00007060    `p..    DCD    28768
        0x00005f6c:    00000000    ....    DCD    0
        0x00005f70:    00000000    ....    DCD    0
        0x00005f74:    80060000    ....    DCD    2147876864
        0x00005f78:    f003e007    ....    DCD    4026785799
        0x00005f7c:    3c003c00    .<.<    DCD    1006648320
        0x00005f80:    e000f000    ....    DCD    3758157824
        0x00005f84:    00078003    ....    DCD    491523
        0x00005f88:    00000006    ....    DCD    6
        0x00005f8c:    00000000    ....    DCD    0
        0x00005f90:    00000000    ....    DCD    0
        0x00005f94:    00000000    ....    DCD    0
        0x00005f98:    00000000    ....    DCD    0
        0x00005f9c:    fe07fe00    ....    DCD    4261936640
        0x00005fa0:    00000007    ....    DCD    7
        0x00005fa4:    fe07fe00    ....    DCD    4261936640
        0x00005fa8:    00000007    ....    DCD    7
        0x00005fac:    00000000    ....    DCD    0
        0x00005fb0:    00000000    ....    DCD    0
        0x00005fb4:    00000000    ....    DCD    0
        0x00005fb8:    00000000    ....    DCD    0
        0x00005fbc:    00000000    ....    DCD    0
        0x00005fc0:    1e000600    ....    DCD    503318016
        0x00005fc4:    f0007c00    .|..    DCD    4026563584
        0x00005fc8:    c003c000    ....    DCD    3221471232
        0x00005fcc:    7c00f003    ...|    DCD    2080436227
        0x00005fd0:    06001e00    ....    DCD    100670976
        0x00005fd4:    00000000    ....    DCD    0
        0x00005fd8:    00000000    ....    DCD    0
        0x00005fdc:    fe000000    ....    DCD    4261412864
        0x00005fe0:    8607fe01    ....    DCD    2248670721
        0x00005fe4:    00070007    ....    DCD    458759
        0x00005fe8:    c0038007    ....    DCD    3221454855
        0x00005fec:    7000e001    ...p    DCD    1879105537
        0x00005ff0:    00007000    .p..    DCD    28672
        0x00005ff4:    70000000    ...p    DCD    1879048192
        0x00005ff8:    00007000    .p..    DCD    28672
        0x00005ffc:    00000000    ....    DCD    0
        0x00006000:    00000000    ....    DCD    0
        0x00006004:    9c01f000    ....    DCD    2617372672
        0x00006008:    c6070e03    ....    DCD    3322351107
        0x0000600c:    7307e307    ...s    DCD    1929896711
        0x00006010:    33063306    .3.3    DCD    856044294
        0x00006014:    f3077306    .s..    DCD    4077351686
        0x00006018:    0e0ce607    ....    DCD    235726343
        0x0000601c:    f0031c00    ....    DCD    4026735616
        0x00006020:    00000003    ....    DCD    3
        0x00006024:    00000000    ....    DCD    0
        0x00006028:    00000000    ....    DCD    0
        0x0000602c:    f0000000    ....    DCD    4026531840
        0x00006030:    f000f000    ....    DCD    4026593280
        0x00006034:    9801f800    ....    DCD    2550265856
        0x00006038:    9c039c01    ....    DCD    2617482241
        0x0000603c:    fe03fc03    ....    DCD    4261673987
        0x00006040:    0f070e07    ....    DCD    252120583
        0x00006044:    000e070f    ....    DCD    919311
        0x00006048:    00000000    ....    DCD    0
        0x0000604c:    00000000    ....    DCD    0
        0x00006050:    00000000    ....    DCD    0
        0x00006054:    fe01fe00    ....    DCD    4261543424
        0x00006058:    0e070e03    ....    DCD    235343363
        0x0000605c:    fe038e07    ....    DCD    4261645831
        0x00006060:    8e03fe01    ....    DCD    2382626305
        0x00006064:    0e070e03    ....    DCD    235343363
        0x00006068:    fe03fe07    ....    DCD    4261674503
        0x0000606c:    00000001    ....    DCD    1
        0x00006070:    00000000    ....    DCD    0
        0x00006074:    00000000    ....    DCD    0
        0x00006078:    e0000000    ....    DCD    3758096384
        0x0000607c:    3c0ff807    ...<    DCD    1007679495
        0x00006080:    0e001e0c    ....    DCD    234888716
        0x00006084:    0e000e00    ....    DCD    234884608
        0x00006088:    1e000e00    ....    DCD    503320064
        0x0000608c:    f8003c00    .<..    DCD    4160764928
        0x00006090:    0007e00f    ....    DCD    516111
        0x00006094:    00000000    ....    DCD    0
        0x00006098:    00000000    ....    DCD    0
        0x0000609c:    00000000    ....    DCD    0
        0x000060a0:    fe01fe00    ....    DCD    4261543424
        0x000060a4:    0e078e07    ....    DCD    235376135
        0x000060a8:    0e0e0e0f    ....    DCD    235802127
        0x000060ac:    0e0e0e0e    ....    DCD    235802126
        0x000060b0:    8e0f0e0e    ....    DCD    2383351310
        0x000060b4:    fe03fe07    ....    DCD    4261674503
        0x000060b8:    00000001    ....    DCD    1
        0x000060bc:    00000000    ....    DCD    0
        0x000060c0:    00000000    ....    DCD    0
        0x000060c4:    fc000000    ....    DCD    4227858432
        0x000060c8:    1c07fc07    ....    DCD    470285319
        0x000060cc:    1c001c00    ....    DCD    469769216
        0x000060d0:    fc03fc00    ....    DCD    4228119552
        0x000060d4:    1c001c03    ....    DCD    469769219
        0x000060d8:    fc001c00    ....    DCD    4227865600
        0x000060dc:    0007fc07    ....    DCD    523271
        0x000060e0:    00000000    ....    DCD    0
        0x000060e4:    00000000    ....    DCD    0
        0x000060e8:    00000000    ....    DCD    0
        0x000060ec:    fc07fc00    ....    DCD    4228381696
        0x000060f0:    1c001c07    ....    DCD    469769223
        0x000060f4:    fc001c00    ....    DCD    4227865600
        0x000060f8:    1c03fc03    ....    DCD    470023171
        0x000060fc:    1c001c00    ....    DCD    469769216
        0x00006100:    1c001c00    ....    DCD    469769216
        0x00006104:    00000000    ....    DCD    0
        0x00006108:    00000000    ....    DCD    0
        0x0000610c:    00000000    ....    DCD    0
        0x00006110:    f0000000    ....    DCD    4026531840
        0x00006114:    1e07fc03    ....    DCD    503839747
        0x00006118:    07000f06    ....    DCD    117444358
        0x0000611c:    c707c700    ....    DCD    3339175680
        0x00006120:    0f070707    ....    DCD    252118791
        0x00006124:    fc071e07    ....    DCD    4228324871
        0x00006128:    0003f007    ....    DCD    258055
        0x0000612c:    00000000    ....    DCD    0
        0x00006130:    00000000    ....    DCD    0
        0x00006134:    00000000    ....    DCD    0
        0x00006138:    0e070e00    ....    DCD    235343360
        0x0000613c:    0e070e07    ....    DCD    235343367
        0x00006140:    fe070e07    ....    DCD    4261875207
        0x00006144:    0e07fe07    ....    DCD    235404807
        0x00006148:    0e070e07    ....    DCD    235343367
        0x0000614c:    0e070e07    ....    DCD    235343367
        0x00006150:    00000007    ....    DCD    7
        0x00006154:    00000000    ....    DCD    0
        0x00006158:    00000000    ....    DCD    0
        0x0000615c:    fe000000    ....    DCD    4261412864
        0x00006160:    7003fe03    ...p    DCD    1879309827
        0x00006164:    70007000    .p.p    DCD    1879076864
        0x00006168:    70007000    .p.p    DCD    1879076864
        0x0000616c:    70007000    .p.p    DCD    1879076864
        0x00006170:    fe007000    .p..    DCD    4261441536
        0x00006174:    0003fe03    ....    DCD    261635
        0x00006178:    00000000    ....    DCD    0
        0x0000617c:    00000000    ....    DCD    0
        0x00006180:    00000000    ....    DCD    0
        0x00006184:    f803f800    ....    DCD    4161009664
        0x00006188:    80038003    ....    DCD    2147713027
        0x0000618c:    80038003    ....    DCD    2147713027
        0x00006190:    80038003    ....    DCD    2147713027
        0x00006194:    c0038003    ....    DCD    3221454851
        0x00006198:    fc01fc03    ....    DCD    4227988483
        0x0000619c:    00000000    ....    DCD    0
        0x000061a0:    00000000    ....    DCD    0
        0x000061a4:    00000000    ....    DCD    0
        0x000061a8:    8e000000    ....    DCD    2382364672
        0x000061ac:    ce03ce07    ....    DCD    3456355847
        0x000061b0:    7e00ee01    ...~    DCD    2113990145
        0x000061b4:    7e003e00    .>.~    DCD    2113945088
        0x000061b8:    ee00fe00    ....    DCD    3993042432
        0x000061bc:    8e03ce01    ....    DCD    2382614017
        0x000061c0:    000f0e07    ....    DCD    986631
        0x000061c4:    00000000    ....    DCD    0
        0x000061c8:    00000000    ....    DCD    0
        0x000061cc:    00000000    ....    DCD    0
        0x000061d0:    1c001c00    ....    DCD    469769216
        0x000061d4:    1c001c00    ....    DCD    469769216
        0x000061d8:    1c001c00    ....    DCD    469769216
        0x000061dc:    1c001c00    ....    DCD    469769216
        0x000061e0:    1c001c00    ....    DCD    469769216
        0x000061e4:    fc07fc00    ....    DCD    4228381696
        0x000061e8:    00000007    ....    DCD    7
        0x000061ec:    00000000    ....    DCD    0
        0x000061f0:    00000000    ....    DCD    0
        0x000061f4:    8f000000    ....    DCD    2399141888
        0x000061f8:    9f078f07    ....    DCD    2668072711
        0x000061fc:    df07df07    ....    DCD    3741835015
        0x00006200:    7707ff07    ...w    DCD    1997012743
        0x00006204:    77077707    .w.w    DCD    1996977927
        0x00006208:    07070707    ....    DCD    117901063
        0x0000620c:    00070707    ....    DCD    460551
        0x00006210:    00000000    ....    DCD    0
        0x00006214:    00000000    ....    DCD    0
        0x00006218:    00000000    ....    DCD    0
        0x0000621c:    1e070e00    ....    DCD    503778816
        0x00006220:    3e073e07    .>.>    DCD    1040662023
        0x00006224:    7e077e07    .~.~    DCD    2114420231
        0x00006228:    ee07ee07    ....    DCD    3993497095
        0x0000622c:    ce07ce07    ....    DCD    3456617991
        0x00006230:    0e078e07    ....    DCD    235376135
        0x00006234:    00000007    ....    DCD    7
        0x00006238:    00000000    ....    DCD    0
        0x0000623c:    00000000    ....    DCD    0
        0x00006240:    f8000000    ....    DCD    4160749568
        0x00006244:    8e03fe00    ....    DCD    2382626304
        0x00006248:    07070703    ....    DCD    117901059
        0x0000624c:    07070707    ....    DCD    117901063
        0x00006250:    07070707    ....    DCD    117901063
        0x00006254:    fe038e07    ....    DCD    4261645831
        0x00006258:    0000f803    ....    DCD    63491
        0x0000625c:    00000000    ....    DCD    0
        0x00006260:    00000000    ....    DCD    0
        0x00006264:    00000000    ....    DCD    0
        0x00006268:    fe01fe00    ....    DCD    4261543424
        0x0000626c:    0e070e07    ....    DCD    235343367
        0x00006270:    fe078e07    ....    DCD    4261907975
        0x00006274:    0e01fe03    ....    DCD    235011587
        0x00006278:    0e000e00    ....    DCD    234884608
        0x0000627c:    0e000e00    ....    DCD    234884608
        0x00006280:    00000000    ....    DCD    0
        0x00006284:    00000000    ....    DCD    0
        0x00006288:    00000000    ....    DCD    0
        0x0000628c:    f8000000    ....    DCD    4160749568
        0x00006290:    8e03fe00    ....    DCD    2382626304
        0x00006294:    07070703    ....    DCD    117901059
        0x00006298:    07070707    ....    DCD    117901063
        0x0000629c:    07070707    ....    DCD    117901063
        0x000062a0:    fc038e07    ....    DCD    4228091399
        0x000062a4:    c000f801    ....    DCD    3221288961
        0x000062a8:    000f8003    ....    DCD    1015811
        0x000062ac:    00000006    ....    DCD    6
        0x000062b0:    00000000    ....    DCD    0
        0x000062b4:    fe01fe00    ....    DCD    4261543424
        0x000062b8:    8e038e03    ....    DCD    2382597635
        0x000062bc:    fe03ce03    ....    DCD    4261662211
        0x000062c0:    ee00fe01    ....    DCD    3993042433
        0x000062c4:    8e01ce01    ....    DCD    2382482945
        0x000062c8:    0e078e03    ....    DCD    235376131
        0x000062cc:    0000000f    ....    DCD    15
        0x000062d0:    00000000    ....    DCD    0
        0x000062d4:    00000000    ....    DCD    0
        0x000062d8:    f8000000    ....    DCD    4160749568
        0x000062dc:    0e03fe01    ....    DCD    235142657
        0x000062e0:    1e000e03    ....    DCD    503320067
        0x000062e4:    e000fc00    ....    DCD    3758160896
        0x000062e8:    00078003    ....    DCD    491523
        0x000062ec:    fe070e07    ....    DCD    4261875207
        0x000062f0:    0001fc03    ....    DCD    130051
        0x000062f4:    00000000    ....    DCD    0
        0x000062f8:    00000000    ....    DCD    0
        0x000062fc:    00000000    ....    DCD    0
        0x00006300:    ff07ff00    ....    DCD    4278714112
        0x00006304:    70007007    .p.p    DCD    1879076871
        0x00006308:    70007000    .p.p    DCD    1879076864
        0x0000630c:    70007000    .p.p    DCD    1879076864
        0x00006310:    70007000    .p.p    DCD    1879076864
        0x00006314:    70007000    .p.p    DCD    1879076864
        0x00006318:    00000000    ....    DCD    0
        0x0000631c:    00000000    ....    DCD    0
        0x00006320:    00000000    ....    DCD    0
        0x00006324:    0e000000    ....    DCD    234881024
        0x00006328:    0e070e07    ....    DCD    235343367
        0x0000632c:    0e070e07    ....    DCD    235343367
        0x00006330:    0e070e07    ....    DCD    235343367
        0x00006334:    0e070e07    ....    DCD    235343367
        0x00006338:    fc079e07    ....    DCD    4228357639
        0x0000633c:    0001f803    ....    DCD    129027
        0x00006340:    00000000    ....    DCD    0
        0x00006344:    00000000    ....    DCD    0
        0x00006348:    00000000    ....    DCD    0
        0x0000634c:    0e0e0700    ....    DCD    235800320
        0x00006350:    1e070e0f    ....    DCD    503778831
        0x00006354:    bc071c07    ....    DCD    3154582535
        0x00006358:    b803b803    ....    DCD    3087251459
        0x0000635c:    f001f003    ....    DCD    4026658819
        0x00006360:    e001f001    ....    DCD    3758223361
        0x00006364:    00000000    ....    DCD    0
        0x00006368:    00000000    ....    DCD    0
        0x0000636c:    00000000    ....    DCD    0
        0x00006370:    07000000    ....    DCD    117440512
        0x00006374:    070e070c    ....    DCD    118359820
        0x00006378:    f606e60e    ....    DCD    4127647246
        0x0000637c:    f606f606    ....    DCD    4127651334
        0x00006380:    fe07fe06    ....    DCD    4261936646
        0x00006384:    9c039e07    ....    DCD    2617482759
        0x00006388:    00039c03    ....    DCD    236547
        0x0000638c:    00000000    ....    DCD    0
        0x00006390:    00000000    ....    DCD    0
        0x00006394:    00000000    ....    DCD    0
        0x00006398:    1e0e0f00    ....    DCD    504237824
        0x0000639c:    fc039c07    ....    DCD    4228094983
        0x000063a0:    f000f801    ....    DCD    4026595329
        0x000063a4:    f800f000    ....    DCD    4160811008
        0x000063a8:    9c03d801    ....    DCD    2617497601
        0x000063ac:    07078e03    ....    DCD    117935619
        0x000063b0:    0000000f    ....    DCD    15
        0x000063b4:    00000000    ....    DCD    0
        0x000063b8:    00000000    ....    DCD    0
        0x000063bc:    07000000    ....    DCD    117440512
        0x000063c0:    1c070e0e    ....    DCD    470224398
        0x000063c4:    b803bc07    ....    DCD    3087252487
        0x000063c8:    e001f001    ....    DCD    3758223361
        0x000063cc:    e000e000    ....    DCD    3758153728
        0x000063d0:    e000e000    ....    DCD    3758153728
        0x000063d4:    0000e000    ....    DCD    57344
        0x000063d8:    00000000    ....    DCD    0
        0x000063dc:    00000000    ....    DCD    0
        0x000063e0:    00000000    ....    DCD    0
        0x000063e4:    fe0ffe00    ....    DCD    4262460928
        0x000063e8:    800f000f    ....    DCD    2148466703
        0x000063ec:    e003c007    ....    DCD    3758342151
        0x000063f0:    7800f001    ...x    DCD    2013327361
        0x000063f4:    1e003c00    .<..    DCD    503331840
        0x000063f8:    fe0ffe00    ....    DCD    4262460928
        0x000063fc:    0000000f    ....    DCD    15
        0x00006400:    00000000    ....    DCD    0
        0x00006404:    f007f000    ....    DCD    4027052032
        0x00006408:    70007007    .p.p    DCD    1879076871
        0x0000640c:    70007000    .p.p    DCD    1879076864
        0x00006410:    70007000    .p.p    DCD    1879076864
        0x00006414:    70007000    .p.p    DCD    1879076864
        0x00006418:    70007000    .p.p    DCD    1879076864
        0x0000641c:    70007000    .p.p    DCD    1879076864
        0x00006420:    70007000    .p.p    DCD    1879076864
        0x00006424:    f007f000    ....    DCD    4027052032
        0x00006428:    0e000007    ....    DCD    234881031
        0x0000642c:    1c001c00    ....    DCD    469769216
        0x00006430:    38001c00    ...8    DCD    939531264
        0x00006434:    70003800    .8.p    DCD    1879062528
        0x00006438:    70007000    .p.p    DCD    1879076864
        0x0000643c:    e000e000    ....    DCD    3758153728
        0x00006440:    c000e000    ....    DCD    3221282816
        0x00006444:    8001c001    ....    DCD    2147598337
        0x00006448:    80038003    ....    DCD    2147713027
        0x0000644c:    00070003    ....    DCD    458755
        0x00006450:    fc01fc00    ....    DCD    4227988480
        0x00006454:    c001c001    ....    DCD    3221340161
        0x00006458:    c001c001    ....    DCD    3221340161
        0x0000645c:    c001c001    ....    DCD    3221340161
        0x00006460:    c001c001    ....    DCD    3221340161
        0x00006464:    c001c001    ....    DCD    3221340161
        0x00006468:    c001c001    ....    DCD    3221340161
        0x0000646c:    c001c001    ....    DCD    3221340161
        0x00006470:    fc01fc01    ....    DCD    4227988481
        0x00006474:    00000001    ....    DCD    1
        0x00006478:    60006000    .`.`    DCD    1610637312
        0x0000647c:    f000f000    ....    DCD    4026593280
        0x00006480:    f800f000    ....    DCD    4160811008
        0x00006484:    9c019801    ....    DCD    2617350145
        0x00006488:    0c039c03    ....    DCD    201563139
        0x0000648c:    00070e03    ....    DCD    462339
        0x00006490:    00000000    ....    DCD    0
        0x00006494:    00000000    ....    DCD    0
        0x00006498:    00000000    ....    DCD    0
        0x0000649c:    00000000    ....    DCD    0
        0x000064a0:    00000000    ....    DCD    0
        0x000064a4:    00000000    ....    DCD    0
        0x000064a8:    00000000    ....    DCD    0
        0x000064ac:    00000000    ....    DCD    0
        0x000064b0:    00000000    ....    DCD    0
        0x000064b4:    00000000    ....    DCD    0
        0x000064b8:    ff000000    ....    DCD    4278190080
        0x000064bc:    000fff0f    ....    DCD    1048335
        0x000064c0:    70000000    ...p    DCD    1879048192
        0x000064c4:    000000e0    ....    DCD    224
        0x000064c8:    00000000    ....    DCD    0
        0x000064cc:    00000000    ....    DCD    0
        0x000064d0:    00000000    ....    DCD    0
        0x000064d4:    00000000    ....    DCD    0
        0x000064d8:    00000000    ....    DCD    0
        0x000064dc:    00000000    ....    DCD    0
        0x000064e0:    03fc01f8    ....    DCD    66847224
        0x000064e4:    0380038c    ....    DCD    58721164
        0x000064e8:    039c03f8    ....    DCD    60556280
        0x000064ec:    03ce038e    ....    DCD    63832974
        0x000064f0:    0f7c0ffe    ..|.    DCD    259788798
        0x000064f4:    00000000    ....    DCD    0
        0x000064f8:    00000000    ....    DCD    0
        0x000064fc:    000e000e    ....    DCD    917518
        0x00006500:    000e000e    ....    DCD    917518
        0x00006504:    01ee000e    ....    DCD    32374798
        0x00006508:    079e03fe    ....    DCD    127796222
        0x0000650c:    070e070e    ....    DCD    118359822
        0x00006510:    070e070e    ....    DCD    118359822
        0x00006514:    03fe039e    ....    DCD    66978718
        0x00006518:    000001fe    ....    DCD    510
        0x0000651c:    00000000    ....    DCD    0
        0x00006520:    00000000    ....    DCD    0
        0x00006524:    00000000    ....    DCD    0
        0x00006528:    00000000    ....    DCD    0
        0x0000652c:    07fc03f0    ....    DCD    133956592
        0x00006530:    000e001c    ....    DCD    917532
        0x00006534:    000e000e    ....    DCD    917518
        0x00006538:    003c000e    ..<.    DCD    3932174
        0x0000653c:    03f007fc    ....    DCD    66062332
        0x00006540:    00000000    ....    DCD    0
        0x00006544:    00000000    ....    DCD    0
        0x00006548:    07000700    ....    DCD    117442304
        0x0000654c:    07000700    ....    DCD    117442304
        0x00006550:    07f80700    ....    DCD    133695232
        0x00006554:    079c07fc    ....    DCD    127666172
        0x00006558:    070e070e    ....    DCD    118359822
        0x0000655c:    070e070e    ....    DCD    118359822
        0x00006560:    07fc079e    ....    DCD    133957534
        0x00006564:    000007f8    ....    DCD    2040
        0x00006568:    00000000    ....    DCD    0
        0x0000656c:    00000000    ....    DCD    0
        0x00006570:    00000000    ....    DCD    0
        0x00006574:    00000000    ....    DCD    0
        0x00006578:    03fc01f0    ....    DCD    66847216
        0x0000657c:    070e079c    ....    DCD    118359964
        0x00006580:    07fe07fe    ....    DCD    134088702
        0x00006584:    061e000e    ....    DCD    102629390
        0x00006588:    03f007fc    ....    DCD    66062332
        0x0000658c:    00000000    ....    DCD    0
        0x00006590:    00000000    ....    DCD    0
        0x00006594:    0fe00fc0    ....    DCD    266342336
        0x00006598:    00700070    p.p.    DCD    7340144
        0x0000659c:    0ffe0070    p...    DCD    268304496
        0x000065a0:    00700ffe    ..p.    DCD    7344126
        0x000065a4:    00700070    p.p.    DCD    7340144
        0x000065a8:    00700070    p.p.    DCD    7340144
        0x000065ac:    00700070    p.p.    DCD    7340144
        0x000065b0:    00000070    p...    DCD    112
        0x000065b4:    00000000    ....    DCD    0
        0x000065b8:    00000000    ....    DCD    0
        0x000065bc:    00000000    ....    DCD    0
        0x000065c0:    00000000    ....    DCD    0
        0x000065c4:    07fc07f8    ....    DCD    133957624
        0x000065c8:    070e079c    ....    DCD    118359964
        0x000065cc:    070e070e    ....    DCD    118359822
        0x000065d0:    079e070e    ....    DCD    127797006
        0x000065d4:    07f807fc    ....    DCD    133695484
        0x000065d8:    078c0700    ....    DCD    126617344
        0x000065dc:    01f803fc    ....    DCD    33031164
        0x000065e0:    000e000e    ....    DCD    917518
        0x000065e4:    000e000e    ....    DCD    917518
        0x000065e8:    03ee000e    ....    DCD    65929230
        0x000065ec:    073e07fe    ..>.    DCD    121505790
        0x000065f0:    070e070e    ....    DCD    118359822
        0x000065f4:    070e070e    ....    DCD    118359822
        0x000065f8:    070e070e    ....    DCD    118359822
        0x000065fc:    0000070e    ....    DCD    1806
        0x00006600:    00000000    ....    DCD    0
        0x00006604:    e0000000    ....    DCD    3758096384
        0x00006608:    fe0000e0    ....    DCD    4261413088
        0x0000660c:    e0e0e0fe    ....    DCD    3772834046
        0x00006610:    e0e0e0e0    ....    DCD    3772834016
        0x00006614:    000000e0    ....    DCD    224
        0x00006618:    c0000000    ....    DCD    3221225472
        0x0000661c:    0001c001    ....    DCD    114689
        0x00006620:    fc000000    ....    DCD    4227858432
        0x00006624:    c001fc01    ....    DCD    3221355521
        0x00006628:    c001c001    ....    DCD    3221340161
        0x0000662c:    c001c001    ....    DCD    3221340161
        0x00006630:    c001c001    ....    DCD    3221340161
        0x00006634:    c001c001    ....    DCD    3221340161
        0x00006638:    fe01c601    ....    DCD    4261529089
        0x0000663c:    0e007c00    .|..    DCD    234912768
        0x00006640:    0e000e00    ....    DCD    234884608
        0x00006644:    0e000e00    ....    DCD    234884608
        0x00006648:    ee03ce00    ....    DCD    3993226752
        0x0000664c:    7e00ee01    ...~    DCD    2113990145
        0x00006650:    7e007e00    .~.~    DCD    2113961472
        0x00006654:    ee00fe00    ....    DCD    3993042432
        0x00006658:    8e03ce01    ....    DCD    2382614017
        0x0000665c:    00000007    ....    DCD    7
        0x00006660:    00000000    ....    DCD    0
        0x00006664:    fc01fc00    ....    DCD    4227988480
        0x00006668:    c001c001    ....    DCD    3221340161
        0x0000666c:    c001c001    ....    DCD    3221340161
        0x00006670:    c001c001    ....    DCD    3221340161
        0x00006674:    c001c001    ....    DCD    3221340161
        0x00006678:    c001c001    ....    DCD    3221340161
        0x0000667c:    c001c001    ....    DCD    3221340161
        0x00006680:    0001c001    ....    DCD    114689
        0x00006684:    00000000    ....    DCD    0
        0x00006688:    00000000    ....    DCD    0
        0x0000668c:    00000000    ....    DCD    0
        0x00006690:    00000000    ....    DCD    0
        0x00006694:    ff03bf00    ....    DCD    4278435584
        0x00006698:    7707ff07    ...w    DCD    1997012743
        0x0000669c:    77077707    .w.w    DCD    1996977927
        0x000066a0:    77077707    .w.w    DCD    1996977927
        0x000066a4:    77077707    .w.w    DCD    1996977927
        0x000066a8:    00000007    ....    DCD    7
        0x000066ac:    00000000    ....    DCD    0
        0x000066b0:    00000000    ....    DCD    0
        0x000066b4:    00000000    ....    DCD    0
        0x000066b8:    ee000000    ....    DCD    3992977408
        0x000066bc:    3e07fe03    ...>    DCD    1040711171
        0x000066c0:    0e070e07    ....    DCD    235343367
        0x000066c4:    0e070e07    ....    DCD    235343367
        0x000066c8:    0e070e07    ....    DCD    235343367
        0x000066cc:    00070e07    ....    DCD    462343
        0x000066d0:    00000000    ....    DCD    0
        0x000066d4:    00000000    ....    DCD    0
        0x000066d8:    00000000    ....    DCD    0
        0x000066dc:    00000000    ....    DCD    0
        0x000066e0:    fe00f800    ....    DCD    4261476352
        0x000066e4:    07038e03    ....    DCD    117673475
        0x000066e8:    07070707    ....    DCD    117901063
        0x000066ec:    8e070707    ....    DCD    2382825223
        0x000066f0:    f803fe03    ....    DCD    4161011203
        0x000066f4:    00000000    ....    DCD    0
        0x000066f8:    00000000    ....    DCD    0
        0x000066fc:    00000000    ....    DCD    0
        0x00006700:    00000000    ....    DCD    0
        0x00006704:    fe000000    ....    DCD    4261412864
        0x00006708:    9e03fe01    ....    DCD    2651061761
        0x0000670c:    0e070e07    ....    DCD    235343367
        0x00006710:    0e070e07    ....    DCD    235343367
        0x00006714:    fe039e07    ....    DCD    4261649927
        0x00006718:    0e01fe03    ....    DCD    235011587
        0x0000671c:    0e000e00    ....    DCD    234884608
        0x00006720:    00000e00    ....    DCD    3584
        0x00006724:    00000000    ....    DCD    0
        0x00006728:    00000000    ....    DCD    0
        0x0000672c:    fc07f800    ....    DCD    4228380672
        0x00006730:    0e079c07    ....    DCD    235379719
        0x00006734:    0e070e07    ....    DCD    235343367
        0x00006738:    9e070e07    ....    DCD    2651262471
        0x0000673c:    7807fc07    ...x    DCD    2013789191
        0x00006740:    00070007    ....    DCD    458759
        0x00006744:    00070007    ....    DCD    458759
        0x00006748:    00000007    ....    DCD    7
        0x0000674c:    00000000    ....    DCD    0
        0x00006750:    fc000000    ....    DCD    4227858432
        0x00006754:    3c03fc03    ...<    DCD    1006894083
        0x00006758:    1c001c03    ....    DCD    469769219
        0x0000675c:    1c001c00    ....    DCD    469769216
        0x00006760:    1c001c00    ....    DCD    469769216
        0x00006764:    00001c00    ....    DCD    7168
        0x00006768:    00000000    ....    DCD    0
        0x0000676c:    00000000    ....    DCD    0
        0x00006770:    00000000    ....    DCD    0
        0x00006774:    00000000    ....    DCD    0
        0x00006778:    fc03f800    ....    DCD    4228118528
        0x0000677c:    3c001c03    ...<    DCD    1006640131
        0x00006780:    e001f800    ....    DCD    3758225408
        0x00006784:    0c070003    ....    DCD    201785347
        0x00006788:    f807fc07    ....    DCD    4161272839
        0x0000678c:    00000001    ....    DCD    1
        0x00006790:    00000000    ....    DCD    0
        0x00006794:    00000000    ....    DCD    0
        0x00006798:    38000000    ...8    DCD    939524096
        0x0000679c:    ff003800    .8..    DCD    4278204416
        0x000067a0:    3807ff07    ...8    DCD    940048135
        0x000067a4:    38003800    .8.8    DCD    939538432
        0x000067a8:    38003800    .8.8    DCD    939538432
        0x000067ac:    f8003800    .8..    DCD    4160763904
        0x000067b0:    0007f007    ....    DCD    520199
        0x000067b4:    00000000    ....    DCD    0
        0x000067b8:    00000000    ....    DCD    0
        0x000067bc:    00000000    ....    DCD    0
        0x000067c0:    00000000    ....    DCD    0
        0x000067c4:    0e070e00    ....    DCD    235343360
        0x000067c8:    0e070e07    ....    DCD    235343367
        0x000067cc:    0e070e07    ....    DCD    235343367
        0x000067d0:    ce070e07    ....    DCD    3456568839
        0x000067d4:    7c07fe07    ...|    DCD    2080898567
        0x000067d8:    00000007    ....    DCD    7
        0x000067dc:    00000000    ....    DCD    0
        0x000067e0:    00000000    ....    DCD    0
        0x000067e4:    00000000    ....    DCD    0
        0x000067e8:    0e000000    ....    DCD    234881024
        0x000067ec:    9c071c07    ....    DCD    2617711623
        0x000067f0:    b8039c03    ....    DCD    3087244291
        0x000067f4:    f001b803    ....    DCD    4026644483
        0x000067f8:    f001f001    ....    DCD    4026658817
        0x000067fc:    0000e000    ....    DCD    57344
        0x00006800:    00000000    ....    DCD    0
        0x00006804:    00000000    ....    DCD    0
        0x00006808:    00000000    ....    DCD    0
        0x0000680c:    00000000    ....    DCD    0
        0x00006810:    e70c0700    ....    DCD    3876325120
        0x00006814:    f60ef70e    ....    DCD    4128175886
        0x00006818:    fe06f606    ....    DCD    4261869062
        0x0000681c:    9e07de07    ....    DCD    2651315719
        0x00006820:    9c039c07    ....    DCD    2617482247
        0x00006824:    00000003    ....    DCD    3
        0x00006828:    00000000    ....    DCD    0
        0x0000682c:    00000000    ....    DCD    0
        0x00006830:    00000000    ....    DCD    0
        0x00006834:    1e000000    ....    DCD    503316480
        0x00006838:    f8039c07    ....    DCD    4160986119
        0x0000683c:    f001f801    ....    DCD    4026660865
        0x00006840:    f800f000    ....    DCD    4160811008
        0x00006844:    9c01d801    ....    DCD    2617366529
        0x00006848:    00078e03    ....    DCD    495107
        0x0000684c:    00000000    ....    DCD    0
        0x00006850:    00000000    ....    DCD    0
        0x00006854:    00000000    ....    DCD    0
        0x00006858:    00000000    ....    DCD    0
        0x0000685c:    1c070e00    ....    DCD    470224384
        0x00006860:    9c039c03    ....    DCD    2617482243
        0x00006864:    f801f803    ....    DCD    4160878595
        0x00006868:    f000f801    ....    DCD    4026595329
        0x0000686c:    6000f000    ...`    DCD    1610674176
        0x00006870:    70007000    .p.p    DCD    1879076864
        0x00006874:    1c003c00    .<..    DCD    469777408
        0x00006878:    00000000    ....    DCD    0
        0x0000687c:    00000000    ....    DCD    0
        0x00006880:    fe000000    ....    DCD    4261412864
        0x00006884:    8007fe07    ....    DCD    2148007431
        0x00006888:    e001c003    ....    DCD    3758211075
        0x0000688c:    38007000    .p.8    DCD    939552768
        0x00006890:    fe001c00    ....    DCD    4261420032
        0x00006894:    0007fe07    ....    DCD    523783
        0x00006898:    00000000    ....    DCD    0
        0x0000689c:    c0000000    ....    DCD    3221225472
        0x000068a0:    e007e007    ....    DCD    3758612487
        0x000068a4:    e000e000    ....    DCD    3758153728
        0x000068a8:    e000e000    ....    DCD    3758153728
        0x000068ac:    7800e000    ...x    DCD    2013323264
        0x000068b0:    e0007800    .x..    DCD    3758127104
        0x000068b4:    e000e000    ....    DCD    3758153728
        0x000068b8:    e000e000    ....    DCD    3758153728
        0x000068bc:    e000e000    ....    DCD    3758153728
        0x000068c0:    0007c007    ....    DCD    507911
        0x000068c4:    e0e0e000    ....    DCD    3772833792
        0x000068c8:    e0e0e0e0    ....    DCD    3772834016
        0x000068cc:    e0e0e0e0    ....    DCD    3772834016
        0x000068d0:    e0e0e0e0    ....    DCD    3772834016
        0x000068d4:    00e0e0e0    ....    DCD    14737632
        0x000068d8:    00fc007c    |...    DCD    16515196
        0x000068dc:    00e000e0    ....    DCD    14680288
        0x000068e0:    00e000e0    ....    DCD    14680288
        0x000068e4:    00e000e0    ....    DCD    14680288
        0x000068e8:    03c003c0    ....    DCD    62915520
        0x000068ec:    00e000e0    ....    DCD    14680288
        0x000068f0:    00e000e0    ....    DCD    14680288
        0x000068f4:    00e000e0    ....    DCD    14680288
        0x000068f8:    007c00fc    ..|.    DCD    8126716
        0x000068fc:    00000000    ....    DCD    0
        0x00006900:    00000000    ....    DCD    0
        0x00006904:    00000000    ....    DCD    0
        0x00006908:    00000000    ....    DCD    0
        0x0000690c:    067c0000    ..|.    DCD    108789760
        0x00006910:    03e607fe    ....    DCD    65406974
        0x00006914:    00000000    ....    DCD    0
        0x00006918:    00000000    ....    DCD    0
        0x0000691c:    00000000    ....    DCD    0
        0x00006920:    00000000    ....    DCD    0
        0x00006924:    1f000000    ....    DCD    520093696
        0x00006928:    1b1b1b1b    ....    DCD    454761243
        0x0000692c:    1b1b1b1b    ....    DCD    454761243
        0x00006930:    00001f1b    ....    DCD    7963
        0x00006934:    0000        ..      DCW    0
        0x00006936:    00          .       DCB    0
    .constdata
    Init_Seq_ST7789
        0x00006937:    01          .       DCB    1
        0x00006938:    02360111    ..6.    DCD    37093649
        0x0000693c:    023a0100    ..:.    DCD    37355776
        0x00006940:    02b20155    U...    DCD    45220181
        0x00006944:    020c020c    ....    DCD    34341388
        0x00006948:    02330200    ..3.    DCD    36897280
        0x0000694c:    02b70133    3...    DCD    45547827
        0x00006950:    02bb0135    5...    DCD    45809973
        0x00006954:    02c0012b    +...    DCD    46137643
        0x00006958:    02c2012c    ,...    DCD    46268716
        0x0000695c:    01ff0201    ....    DCD    33489409
        0x00006960:    011102c3    ....    DCD    17892035
        0x00006964:    012002c4    .. .    DCD    18875076
        0x00006968:    010f02c6    ....    DCD    17760966
        0x0000696c:    02a402d0    ....    DCD    44303056
        0x00006970:    02e001a1    ....    DCD    48234913
        0x00006974:    020002d0    ....    DCD    33555152
        0x00006978:    020e0205    ....    DCD    34472453
        0x0000697c:    020d0215    ....    DCD    34406933
        0x00006980:    02430237    7.C.    DCD    37945911
        0x00006984:    02090247    G...    DCD    34144839
        0x00006988:    02120215    ....    DCD    34734613
        0x0000698c:    01190216    ....    DCD    18416150
        0x00006990:    02d002e1    ....    DCD    47186657
        0x00006994:    02050200    ....    DCD    33882624
        0x00006998:    020c020d    ....    DCD    34341389
        0x0000699c:    022d0206    ..-.    DCD    36504070
        0x000069a0:    02400244    D.@.    DCD    37749316
        0x000069a4:    021c020e    ....    DCD    35389966
        0x000069a8:    02160218    ....    DCD    34996760
        0x000069ac:    022a0119    ..*.    DCD    36307225
        0x000069b0:    02000200    ....    DCD    33554944
        0x000069b4:    01ef0200    ....    DCD    32440832
        0x000069b8:    0200022b    +...    DCD    33554987
        0x000069bc:    02010200    ....    DCD    33620480
        0x000069c0:    0029013f    ?.).    DCD    2687295
        0x000069c4:    00          .       DCB    0
    .constdata
    ZAG
        0x000069c5:    000108      ...     DCB    0,1,8
        0x000069c8:    03020910    ....    DCD    50465040
        0x000069cc:    2018110a    ...     DCD    538448138
        0x000069d0:    040b1219    ....    DCD    67834393
        0x000069d4:    1a130c05    ....    DCD    437455877
        0x000069d8:    29302821    !(0)    DCD    691021857
        0x000069dc:    0d141b22    "...    DCD    219421474
        0x000069e0:    150e0706    ....    DCD    353240838
        0x000069e4:    312a231c    .#*1    DCD    824845084
        0x000069e8:    2b323938    892+    DCD    724711736
        0x000069ec:    0f161d24    $...    DCD    253107492
        0x000069f0:    2c251e17    ..%,    DCD    740630039
        0x000069f4:    343b3a33    3:;4    DCD    876296755
        0x000069f8:    271f262d    -&.'    DCD    656352813
        0x000069fc:    3d3c352e    .5<=    DCD    1027355950
        0x00006a00:    3e372f36    6/7>    DCD    1043803958
        0x00006a04:    3f          ?       DCB    63
    gWinogradQuant
        0x00006a05:    80b2b2      ...     DCB    128,178,178
        0x00006a08:    97a7f6a7    ....    DCD    2544367271
        0x00006a0c:    8097e8e8    ....    DCD    2157439208
        0x00006a10:    80d1dbd1    ....    DCD    2161236945
        0x00006a14:    c5c5b265    e...    DCD    3318067813
        0x00006a18:    8b4565b2    .eE.    DCD    2336581042
        0x00006a1c:    8ba7b1a7    ....    DCD    2343023015
        0x00006a20:    83602345    E#`.    DCD    2204115781
        0x00006a24:    60839797    ...`    DCD    1619236759
        0x00006a28:    765b3123    #1[v    DCD    1985687843
        0x00006a2c:    315b7680    .v[1    DCD    828077696
        0x00006a30:    6565512e    .Qee    DCD    1701138734
        0x00006a34:    452a2e51    Q.*E    DCD    1160392273
        0x00006a38:    232a454f    OE*#    DCD    589972815
        0x00006a3c:    1c233636    66#.    DCD    472069686
        0x00006a40:    13131c25    %...    DCD    320019493
        0x00006a44:    0a          .       DCB    10
    .constdata
    cvt
        0x00006a45:    809a45      ..E     DCB    128,154,69
        0x00006a48:    8f418e41    A.A.    DCD    2403438145
        0x00006a4c:    45454580    .EEE    DCD    1162167680
        0x00006a50:    8e494949    III.    DCD    2387167561
        0x00006a54:    9292908f    ....    DCD    2459078799
        0x00006a58:    554f994f    O.OU    DCD    1431279951
        0x00006a5c:    9a995955    UY..    DCD    2593741141
        0x00006a60:    9e9d9c9b    ....    DCD    2661129371
        0x00006a64:    4f49419f    .AIO    DCD    1330200991
        0x00006a68:    a6a5a555    U...    DCD    2795873621
        0x00006a6c:    aaa9a8a7    ....    DCD    2863245479
        0x00006a70:    aeadacab    ....    DCD    2930617515
        0x00006a74:    b2b1b0af    ....    DCD    2997989551
        0x00006a78:    b6b5b4b3    ....    DCD    3065361587
        0x00006a7c:    bab9b8b7    ....    DCD    3132733623
        0x00006a80:    bebdbcbb    ....    DCD    3200105659
        0x00006a84:    c2c1c0bf    ....    DCD    3267477695
        0x00006a88:    c6c5c4c3    ....    DCD    3334849731
        0x00006a8c:    cac9c8c7    ....    DCD    3402221767
        0x00006a90:    cecdcccb    ....    DCD    3469593803
        0x00006a94:    d2d1d0cf    ....    DCD    3536965839
        0x00006a98:    d6d5d4d3    ....    DCD    3604337875
        0x00006a9c:    dad9d8d7    ....    DCD    3671709911
        0x00006aa0:    dedddcdb    ....    DCD    3739081947
        0x00006aa4:    e2e1e0df    ....    DCD    3806453983
        0x00006aa8:    e6e5e4e3    ....    DCD    3873826019
        0x00006aac:    eae9e8e7    ....    DCD    3941198055
        0x00006ab0:    eeedeceb    ....    DCD    4008570091
        0x00006ab4:    f2f1f0ef    ....    DCD    4075942127
        0x00006ab8:    f6f5f4f3    ....    DCD    4143314163
        0x00006abc:    faf9f8f7    ....    DCD    4210686199
        0x00006ac0:    fefdfcfb    ....    DCD    4278058235
        0x00006ac4:    000000ff    ....    DCD    255
    Region$$Table$$Base
        0x00006ac8:    00006ae8    .j..    DCD    27368
        0x00006acc:    1ffff000    ....    DCD    536866816
        0x00006ad0:    000000c8    ....    DCD    200
        0x00006ad4:    00001934    4...    DCD    6452
        0x00006ad8:    00006bb0    .k..    DCD    27568
        0x00006adc:    1ffff0c8    ....    DCD    536867016
        0x00006ae0:    00001cd8    ....    DCD    7384
        0x00006ae4:    00001944    D...    DCD    6468
    Region$$Table$$Limit

** Section #2 'RW_IRAM1' (SHT_PROGBITS) [SHF_ALLOC + SHF_WRITE]
    Size   : 200 bytes (alignment 4)
    Address: 0x1ffff000


** Section #3 'RW_IRAM1' (SHT_NOBITS) [SHF_ALLOC + SHF_WRITE]
    Size   : 7384 bytes (alignment 8)
    Address: 0x1ffff0c8


** Section #4 '.debug_abbrev' (SHT_PROGBITS)
    Size   : 1476 bytes


** Section #5 '.debug_frame' (SHT_PROGBITS)
    Size   : 3640 bytes


** Section #6 '.debug_info' (SHT_PROGBITS)
    Size   : 68916 bytes


** Section #7 '.debug_line' (SHT_PROGBITS)
    Size   : 30120 bytes


** Section #8 '.debug_loc' (SHT_PROGBITS)
    Size   : 18276 bytes


** Section #9 '.debug_macinfo' (SHT_PROGBITS)
    Size   : 218476 bytes


** Section #10 '.debug_pubnames' (SHT_PROGBITS)
    Size   : 4129 bytes


** Section #11 '.symtab' (SHT_SYMTAB)
    Size   : 12400 bytes (alignment 4)
    String table #12 '.strtab'
    Last local symbol no. 561


** Section #12 '.strtab' (SHT_STRTAB)
    Size   : 7760 bytes


** Section #13 '.note' (SHT_NOTE)
    Size   : 28 bytes (alignment 4)


** Section #14 '.comment' (SHT_PROGBITS)
    Size   : 28096 bytes


** Section #15 '.shstrtab' (SHT_STRTAB)
    Size   : 156 bytes


